 oversee-csgo

 Timestamp is 62484f45 (Sat Apr  2 16:27:33 2022)

 Preferred load address is 0000000010000000

 Start         Length     Name                   Class
 0001:00000000 002af971H .text                   CODE
 0001:002af971 0000000cH .text$di                CODE
 0001:002af980 000e4aedH .text$mn                CODE
 0001:0039446d 0000000aH .text$yd                CODE
 0002:00000000 00075884H .rdata                  DATA
 0002:00075884 00000018H .rdata$T                DATA
 0002:0007589c 0000000dH .rdata$Z                DATA
 0002:000758ac 0000012cH .rdata$r                DATA
 0002:00076f08 00000004H .CRT$XCA                DATA
 0002:00076f0c 00000004H .CRT$XCL                DATA
 0002:00076f10 000000f0H .CRT$XCU                DATA
 0002:00077000 00000004H .CRT$XCZ                DATA
 0002:00077004 00000004H .CRT$XIA                DATA
 0002:00077008 00000004H .CRT$XIC                DATA
 0002:0007700c 00000004H .CRT$XIZ                DATA
 0002:00077010 00000004H .CRT$XLA                DATA
 0002:00077014 00000004H .CRT$XLZ                DATA
 0002:00077018 00000004H .CRT$XPA                DATA
 0002:0007701c 00000004H .CRT$XPZ                DATA
 0002:00077020 00000004H .CRT$XTA                DATA
 0002:00077024 00000004H .CRT$XTZ                DATA
 0002:0007adfc 00000004H .rtc$IAA                DATA
 0002:0007ae00 00000004H .rtc$IZZ                DATA
 0002:0007ae04 00000004H .rtc$TAA                DATA
 0002:0007ae08 00000004H .rtc$TZZ                DATA
 0002:0007ae0c 00018628H .xdata                  DATA
 0002:00093438 000000bcH .xdata$x                DATA
 0003:00000000 0006b354H .data                   DATA
 0003:0006b354 00000018H .data$rs                DATA
 0003:0006b36c 0000a61cH .bss                    DATA
 0004:00000000 00000004H .00cfg                  DATA
 0005:00000000 00000001H .tls                    DATA
 0005:00000004 00000008H .tls$                   DATA
 0005:0000000c 00000001H .tls$ZZZ                DATA
 0006:00000000 000000e8H .voltbl                 DATA
 0007:00000000 00000058H .rsrc$01                DATA
 0007:00000060 00000148H .rsrc$02                DATA

  Address         Publics by Value              Rva+Base               Lib:Object

 0000:00000000       ___AbsoluteZero            0000000000000000     <absolute>
 0000:00000000       ___guard_fids_table        0000000000000000     <absolute>
 0000:00000000       ___guard_fids_count        0000000000000000     <absolute>
 0000:00000000       ___guard_flags             0000000000000000     <absolute>
 0000:00000000       ___guard_iat_table         0000000000000000     <absolute>
 0000:00000000       ___guard_iat_count         0000000000000000     <absolute>
 0000:00000000       ___guard_longjmp_table     0000000000000000     <absolute>
 0000:00000000       ___guard_longjmp_count     0000000000000000     <absolute>
 0000:00000000       ___enclave_config          0000000000000000     <absolute>
 0000:00000000       ___AbsoluteZero            0000000000000000     <absolute>
 0000:00000002       @vol.md                    0000000000000002     <absolute>
 0000:00000002       @vol.md                    0000000000000002     <absolute>
 0000:00000002       @vol.md                    0000000000000002     <absolute>
 0000:00000002       @vol.md                    0000000000000002     <absolute>
 0000:00000002       @vol.md                    0000000000000002     <absolute>
 0000:00000002       @vol.md                    0000000000000002     <absolute>
 0000:00000002       @vol.md                    0000000000000002     <absolute>
 0000:00000002       @vol.md                    0000000000000002     <absolute>
 0000:00000002       @vol.md                    0000000000000002     <absolute>
 0000:00000002       @vol.md                    0000000000000002     <absolute>
 0000:00000002       @vol.md                    0000000000000002     <absolute>
 0000:00000002       @vol.md                    0000000000000002     <absolute>
 0000:00000002       @vol.md                    0000000000000002     <absolute>
 0000:00000002       @vol.md                    0000000000000002     <absolute>
 0000:00000002       @vol.md                    0000000000000002     <absolute>
 0000:00000002       @vol.md                    0000000000000002     <absolute>
 0000:00000002       @vol.md                    0000000000000002     <absolute>
 0000:00000002       @vol.md                    0000000000000002     <absolute>
 0000:00000002       @vol.md                    0000000000000002     <absolute>
 0000:00000002       @vol.md                    0000000000000002     <absolute>
 0000:00000002       @vol.md                    0000000000000002     <absolute>
 0000:00000002       @vol.md                    0000000000000002     <absolute>
 0000:00000002       @vol.md                    0000000000000002     <absolute>
 0000:00000002       @vol.md                    0000000000000002     <absolute>
 0000:00000002       @vol.md                    0000000000000002     <absolute>
 0000:00000002       @vol.md                    0000000000000002     <absolute>
 0000:00000002       @vol.md                    0000000000000002     <absolute>
 0000:00000002       @vol.md                    0000000000000002     <absolute>
 0000:00000002       @vol.md                    0000000000000002     <absolute>
 0000:00000002       @vol.md                    0000000000000002     <absolute>
 0000:00000002       @vol.md                    0000000000000002     <absolute>
 0000:00000002       @vol.md                    0000000000000002     <absolute>
 0000:00000002       @vol.md                    0000000000000002     <absolute>
 0000:00000002       @vol.md                    0000000000000002     <absolute>
 0000:00000002       @vol.md                    0000000000000002     <absolute>
 0000:00000002       @vol.md                    0000000000000002     <absolute>
 0000:00000002       @vol.md                    0000000000000002     <absolute>
 0000:00000002       @vol.md                    0000000000000002     <absolute>
 0000:00000002       @vol.md                    0000000000000002     <absolute>
 0000:00000002       @vol.md                    0000000000000002     <absolute>
 0000:00000002       @vol.md                    0000000000000002     <absolute>
 0000:00000002       @vol.md                    0000000000000002     <absolute>
 0000:00000002       @vol.md                    0000000000000002     <absolute>
 0000:00000002       @vol.md                    0000000000000002     <absolute>
 0000:00000002       @vol.md                    0000000000000002     <absolute>
 0000:00000002       @vol.md                    0000000000000002     <absolute>
 0000:00000002       @vol.md                    0000000000000002     <absolute>
 0000:00000002       @vol.md                    0000000000000002     <absolute>
 0000:00000002       @vol.md                    0000000000000002     <absolute>
 0000:00000002       @vol.md                    0000000000000002     <absolute>
 0000:00000002       @vol.md                    0000000000000002     <absolute>
 0000:00000002       @vol.md                    0000000000000002     <absolute>
 0000:00000002       @vol.md                    0000000000000002     <absolute>
 0000:00000002       @vol.md                    0000000000000002     <absolute>
 0000:00000002       @vol.md                    0000000000000002     <absolute>
 0000:00000002       @vol.md                    0000000000000002     <absolute>
 0000:00000002       @vol.md                    0000000000000002     <absolute>
 0000:00000002       @vol.md                    0000000000000002     <absolute>
 0000:00000002       @vol.md                    0000000000000002     <absolute>
 0000:00000002       @vol.md                    0000000000000002     <absolute>
 0000:00000002       @vol.md                    0000000000000002     <absolute>
 0000:00000002       @vol.md                    0000000000000002     <absolute>
 0000:00000002       @vol.md                    0000000000000002     <absolute>
 0000:00000002       @vol.md                    0000000000000002     <absolute>
 0000:00000002       @vol.md                    0000000000000002     <absolute>
 0000:00000002       @vol.md                    0000000000000002     <absolute>
 0000:00000002       @vol.md                    0000000000000002     <absolute>
 0000:00000002       @vol.md                    0000000000000002     <absolute>
 0000:00000002       @vol.md                    0000000000000002     <absolute>
 0000:00000002       @vol.md                    0000000000000002     <absolute>
 0000:00000002       @vol.md                    0000000000000002     <absolute>
 0000:00000002       @vol.md                    0000000000000002     <absolute>
 0000:00000002       @vol.md                    0000000000000002     <absolute>
 0000:00000002       @vol.md                    0000000000000002     <absolute>
 0000:00000002       @vol.md                    0000000000000002     <absolute>
 0000:00000002       @vol.md                    0000000000000002     <absolute>
 0000:00000002       @vol.md                    0000000000000002     <absolute>
 0000:00000002       @vol.md                    0000000000000002     <absolute>
 0000:00000002       @vol.md                    0000000000000002     <absolute>
 0000:00000002       @vol.md                    0000000000000002     <absolute>
 0000:00000002       @vol.md                    0000000000000002     <absolute>
 0000:00000002       @vol.md                    0000000000000002     <absolute>
 0000:00000002       @vol.md                    0000000000000002     <absolute>
 0000:00000002       @vol.md                    0000000000000002     <absolute>
 0000:0000002c       __tls_array                000000000000002c     <absolute>
 0000:00000530       ___safe_se_handler_count   0000000000000530     <absolute>
 0000:00000000       ___ImageBase               0000000010000000     <linker-defined>
 0001:00000030       ?CreateFonts@C_FontManager@@UAEXXZ 0000000010001030     FontManager.obj
 0001:000005c0       ?PushFont@C_FontManager@@UAEXPAXHABIH@Z 00000000100015c0     FontManager.obj
 0001:00000830       ?PushFont@C_FontManager@@UAEXPBDABIH@Z 0000000010001830     FontManager.obj
 0001:00000af0       ?GetFontFromHash@C_FontManager@@UAEPAUImFont@@ABI@Z 0000000010001af0     FontManager.obj
 0001:00000b40       ??__Eg_SettingsManager@@YAXXZ 0000000010001b40     FontManager.obj
 0001:00000c10       ??0C_SettingsManager@@QAE@XZ 0000000010001c10     FontManager.obj
 0001:00000f30       ??__Eg_FontManager@@YAXXZ  0000000010001f30     FontManager.obj
 0001:00001090       ??1C_FontManager@@QAE@XZ   0000000010002090     FontManager.obj
 0001:000011d0       ??0?$_Hash@V?$_Umap_traits@V?$basic_string@DU?$char_traits@D@std@@V?$allocator@D@2@@std@@_NV?$_Uhash_compare@V?$basic_string@DU?$char_traits@D@std@@V?$allocator@D@2@@std@@U?$hash@V?$basic_string@DU?$char_traits@D@std@@V?$allocator@D@2@@std@@@2@U?$equal_to@V?$basic_string@DU?$char_traits@D@std@@V?$allocator@D@2@@std@@@2@@2@V?$allocator@U?$pair@$$CBV?$basic_string@DU?$char_traits@D@std@@V?$allocator@D@2@@std@@_N@std@@@2@$0A@@std@@@std@@IAE@ABV?$_Uhash_compare@V?$basic_string@DU?$char_traits@D@std@@V?$allocator@D@2@@std@@U?$hash@V?$basic_string@DU?$char_traits@D@std@@V?$allocator@D@2@@std@@@2@U?$equal_to@V?$basic_string@DU?$char_traits@D@std@@V?$allocator@D@2@@std@@@2@@1@ABV?$allocator@U?$pair@$$CBV?$basic_string@DU?$char_traits@D@std@@V?$allocator@D@2@@std@@_N@std@@@1@@Z 00000000100021d0     FontManager.obj
 0001:00001310       ?_Throw_bad_array_new_length@std@@YAXXZ 0000000010002310     FontManager.obj
 0001:00001340       ??0bad_array_new_length@std@@QAE@ABV01@@Z 0000000010002340     FontManager.obj
 0001:00001380       ??0bad_alloc@std@@QAE@ABV01@@Z 0000000010002380     FontManager.obj
 0001:000013c0       ??0exception@std@@QAE@ABV01@@Z 00000000100023c0     FontManager.obj
 0001:00001400       ??1exception@std@@UAE@XZ   0000000010002400     FontManager.obj
 0001:00001420       ??_Gbad_array_new_length@std@@UAEPAXI@Z 0000000010002420     FontManager.obj
 0001:00001420       ??_Gbad_array_new_length@std@@UAEPAXI@Z 0000000010002420     FontManager.obj
 0001:00001450       ?what@exception@std@@UBEPBDXZ 0000000010002450     FontManager.obj
 0001:00001460       ??_Gbad_alloc@std@@UAEPAXI@Z 0000000010002460     FontManager.obj
 0001:00001460       ??_Gbad_alloc@std@@UAEPAXI@Z 0000000010002460     FontManager.obj
 0001:00001490       ??_Gexception@std@@UAEPAXI@Z 0000000010002490     FontManager.obj
 0001:00001490       ??_Gexception@std@@UAEPAXI@Z 0000000010002490     FontManager.obj
 0001:000014c0       ?_Tidy@?$list@U?$pair@$$CBV?$basic_string@DU?$char_traits@D@std@@V?$allocator@D@2@@std@@_N@std@@V?$allocator@U?$pair@$$CBV?$basic_string@DU?$char_traits@D@std@@V?$allocator@D@2@@std@@_N@std@@@2@@std@@AAEXXZ 00000000100024c0     FontManager.obj
 0001:00001540       ??0?$_Hash@V?$_Umap_traits@V?$basic_string@DU?$char_traits@D@std@@V?$allocator@D@2@@std@@HV?$_Uhash_compare@V?$basic_string@DU?$char_traits@D@std@@V?$allocator@D@2@@std@@U?$hash@V?$basic_string@DU?$char_traits@D@std@@V?$allocator@D@2@@std@@@2@U?$equal_to@V?$basic_string@DU?$char_traits@D@std@@V?$allocator@D@2@@std@@@2@@2@V?$allocator@U?$pair@$$CBV?$basic_string@DU?$char_traits@D@std@@V?$allocator@D@2@@std@@H@std@@@2@$0A@@std@@@std@@IAE@ABV?$_Uhash_compare@V?$basic_string@DU?$char_traits@D@std@@V?$allocator@D@2@@std@@U?$hash@V?$basic_string@DU?$char_traits@D@std@@V?$allocator@D@2@@std@@@2@U?$equal_to@V?$basic_string@DU?$char_traits@D@std@@V?$allocator@D@2@@std@@@2@@1@ABV?$allocator@U?$pair@$$CBV?$basic_string@DU?$char_traits@D@std@@V?$allocator@D@2@@std@@H@std@@@1@@Z 0000000010002540     FontManager.obj
 0001:00001680       ?_Tidy@?$list@U?$pair@$$CBV?$basic_string@DU?$char_traits@D@std@@V?$allocator@D@2@@std@@H@std@@V?$allocator@U?$pair@$$CBV?$basic_string@DU?$char_traits@D@std@@V?$allocator@D@2@@std@@H@std@@@2@@std@@AAEXXZ 0000000010002680     FontManager.obj
 0001:00001700       ??0?$_Hash@V?$_Umap_traits@V?$basic_string@DU?$char_traits@D@std@@V?$allocator@D@2@@std@@MV?$_Uhash_compare@V?$basic_string@DU?$char_traits@D@std@@V?$allocator@D@2@@std@@U?$hash@V?$basic_string@DU?$char_traits@D@std@@V?$allocator@D@2@@std@@@2@U?$equal_to@V?$basic_string@DU?$char_traits@D@std@@V?$allocator@D@2@@std@@@2@@2@V?$allocator@U?$pair@$$CBV?$basic_string@DU?$char_traits@D@std@@V?$allocator@D@2@@std@@M@std@@@2@$0A@@std@@@std@@IAE@ABV?$_Uhash_compare@V?$basic_string@DU?$char_traits@D@std@@V?$allocator@D@2@@std@@U?$hash@V?$basic_string@DU?$char_traits@D@std@@V?$allocator@D@2@@std@@@2@U?$equal_to@V?$basic_string@DU?$char_traits@D@std@@V?$allocator@D@2@@std@@@2@@1@ABV?$allocator@U?$pair@$$CBV?$basic_string@DU?$char_traits@D@std@@V?$allocator@D@2@@std@@M@std@@@1@@Z 0000000010002700     FontManager.obj
 0001:00001840       ?_Tidy@?$list@U?$pair@$$CBV?$basic_string@DU?$char_traits@D@std@@V?$allocator@D@2@@std@@M@std@@V?$allocator@U?$pair@$$CBV?$basic_string@DU?$char_traits@D@std@@V?$allocator@D@2@@std@@M@std@@@2@@std@@AAEXXZ 0000000010002840     FontManager.obj
 0001:000018c0       ??0?$_Hash@V?$_Umap_traits@V?$basic_string@DU?$char_traits@D@std@@V?$allocator@D@2@@std@@UImColor@@V?$_Uhash_compare@V?$basic_string@DU?$char_traits@D@std@@V?$allocator@D@2@@std@@U?$hash@V?$basic_string@DU?$char_traits@D@std@@V?$allocator@D@2@@std@@@2@U?$equal_to@V?$basic_string@DU?$char_traits@D@std@@V?$allocator@D@2@@std@@@2@@2@V?$allocator@U?$pair@$$CBV?$basic_string@DU?$char_traits@D@std@@V?$allocator@D@2@@std@@UImColor@@@std@@@2@$0A@@std@@@std@@IAE@ABV?$_Uhash_compare@V?$basic_string@DU?$char_traits@D@std@@V?$allocator@D@2@@std@@U?$hash@V?$basic_string@DU?$char_traits@D@std@@V?$allocator@D@2@@std@@@2@U?$equal_to@V?$basic_string@DU?$char_traits@D@std@@V?$allocator@D@2@@std@@@2@@1@ABV?$allocator@U?$pair@$$CBV?$basic_string@DU?$char_traits@D@std@@V?$allocator@D@2@@std@@UImColor@@@std@@@1@@Z 00000000100028c0     FontManager.obj
 0001:00001a00       ?_Tidy@?$list@U?$pair@$$CBV?$basic_string@DU?$char_traits@D@std@@V?$allocator@D@2@@std@@UImColor@@@std@@V?$allocator@U?$pair@$$CBV?$basic_string@DU?$char_traits@D@std@@V?$allocator@D@2@@std@@UImColor@@@std@@@2@@std@@AAEXXZ 0000000010002a00     FontManager.obj
 0001:00001a80       ??0?$_Hash@V?$_Umap_traits@V?$basic_string@DU?$char_traits@D@std@@V?$allocator@D@2@@std@@VColor@@V?$_Uhash_compare@V?$basic_string@DU?$char_traits@D@std@@V?$allocator@D@2@@std@@U?$hash@V?$basic_string@DU?$char_traits@D@std@@V?$allocator@D@2@@std@@@2@U?$equal_to@V?$basic_string@DU?$char_traits@D@std@@V?$allocator@D@2@@std@@@2@@2@V?$allocator@U?$pair@$$CBV?$basic_string@DU?$char_traits@D@std@@V?$allocator@D@2@@std@@VColor@@@std@@@2@$0A@@std@@@std@@IAE@ABV?$_Uhash_compare@V?$basic_string@DU?$char_traits@D@std@@V?$allocator@D@2@@std@@U?$hash@V?$basic_string@DU?$char_traits@D@std@@V?$allocator@D@2@@std@@@2@U?$equal_to@V?$basic_string@DU?$char_traits@D@std@@V?$allocator@D@2@@std@@@2@@1@ABV?$allocator@U?$pair@$$CBV?$basic_string@DU?$char_traits@D@std@@V?$allocator@D@2@@std@@VColor@@@std@@@1@@Z 0000000010002a80     FontManager.obj
 0001:00001bc0       ?_Tidy@?$list@U?$pair@$$CBV?$basic_string@DU?$char_traits@D@std@@V?$allocator@D@2@@std@@VColor@@@std@@V?$allocator@U?$pair@$$CBV?$basic_string@DU?$char_traits@D@std@@V?$allocator@D@2@@std@@VColor@@@std@@@2@@std@@AAEXXZ 0000000010002bc0     FontManager.obj
 0001:00001c40       ??0?$_Hash@V?$_Umap_traits@_KUInventoryItem_t@@V?$_Uhash_compare@_KU?$hash@_K@std@@U?$equal_to@_K@2@@std@@V?$allocator@U?$pair@$$CB_KUInventoryItem_t@@@std@@@3@$0A@@std@@@std@@IAE@ABV?$_Uhash_compare@_KU?$hash@_K@std@@U?$equal_to@_K@2@@1@ABV?$allocator@U?$pair@$$CB_KUInventoryItem_t@@@std@@@1@@Z 0000000010002c40     FontManager.obj
 0001:00001d90       ?_Tidy@?$list@U?$pair@$$CB_KUInventoryItem_t@@@std@@V?$allocator@U?$pair@$$CB_KUInventoryItem_t@@@std@@@2@@std@@AAEXXZ 0000000010002d90     FontManager.obj
 0001:00001e20       ??0?$_Hash@V?$_Umap_traits@IPAUImFont@@V?$_Uhash_compare@IU?$hash@I@std@@U?$equal_to@I@2@@std@@V?$allocator@U?$pair@$$CBIPAUImFont@@@std@@@3@$0A@@std@@@std@@IAE@ABV?$_Uhash_compare@IU?$hash@I@std@@U?$equal_to@I@2@@1@ABV?$allocator@U?$pair@$$CBIPAUImFont@@@std@@@1@@Z 0000000010002e20     FontManager.obj
 0001:00001f80       ?_Assign_grow@?$_Hash_vec@V?$allocator@V?$_List_unchecked_iterator@V?$_List_val@U?$_List_simple_types@U?$pair@$$CBIPAUImFont@@@std@@@std@@@std@@@std@@@std@@@std@@QAEXIV?$_List_unchecked_iterator@V?$_List_val@U?$_List_simple_types@U?$pair@$$CBIPAUImFont@@@std@@@std@@@std@@@2@@Z 0000000010002f80     FontManager.obj
 0001:000022a0       ?_Destroy@?$vector@UFontTask_t@@V?$allocator@UFontTask_t@@@std@@@std@@AAEXPAUFontTask_t@@0@Z 00000000100032a0     FontManager.obj
 0001:00002320       ?deallocate@?$allocator@UFontTask_t@@@std@@QAEXQAUFontTask_t@@I@Z 0000000010003320     FontManager.obj
 0001:00002360       ??$_Emplace_reallocate@AAUFontTask_t@@@?$vector@UFontTask_t@@V?$allocator@UFontTask_t@@@std@@@std@@QAEPAUFontTask_t@@QAU2@AAU2@@Z 0000000010003360     FontManager.obj
 0001:00002820       ??$_Reallocate_for@V<lambda_1>@?0??assign@?$basic_string@DU?$char_traits@D@std@@V?$allocator@D@2@@std@@QAEAAV34@QBDI@Z@PBD@?$basic_string@DU?$char_traits@D@std@@V?$allocator@D@2@@std@@AAEAAV01@IV<lambda_1>@?0??assign@01@QAEAAV01@QBDI@Z@PBD@Z 0000000010003820     FontManager.obj
 0001:00002920       ?_Xlen_string@std@@YAXXZ   0000000010003920     FontManager.obj
 0001:00002930       ?_Destroy@?$_Ref_count_obj2@VC_FontManager@@@std@@EAEXXZ 0000000010003930     FontManager.obj
 0001:00002940       ?_Delete_this@?$_Ref_count_obj2@VC_FontManager@@@std@@EAEXXZ 0000000010003940     FontManager.obj
 0001:00002950       ??_G?$_Ref_count_obj2@VC_FontManager@@@std@@UAEPAXI@Z 0000000010003950     FontManager.obj
 0001:00002970       ?_Get_deleter@_Ref_count_base@std@@UBEPAXABVtype_info@@@Z 0000000010003970     FontManager.obj
 0001:00002980       ??0?$_Hash@V?$_Umap_traits@IPAUImFont@@V?$_Uhash_compare@IU?$hash@I@std@@U?$equal_to@I@2@@std@@V?$allocator@U?$pair@$$CBIPAUImFont@@@std@@@3@$0A@@std@@@std@@IAE@$$QAV01@@Z 0000000010003980     FontManager.obj
 0001:00002b30       ??$_Reallocate_grow_by@V<lambda_1>@?0??append@?$basic_string@DU?$char_traits@D@std@@V?$allocator@D@2@@std@@QAEAAV34@QBDI@Z@PBDI@?$basic_string@DU?$char_traits@D@std@@V?$allocator@D@2@@std@@AAEAAV01@IV<lambda_1>@?0??append@01@QAEAAV01@QBDI@Z@PBDI@Z 0000000010003b30     FontManager.obj
 0001:00002ca0       ??$_Try_emplace@ABI$$V@?$_Hash@V?$_Umap_traits@IPAUImFont@@V?$_Uhash_compare@IU?$hash@I@std@@U?$equal_to@I@2@@std@@V?$allocator@U?$pair@$$CBIPAUImFont@@@std@@@3@$0A@@std@@@std@@IAE?AU?$pair@PAU?$_List_node@U?$pair@$$CBIPAUImFont@@@std@@PAX@std@@_N@1@ABI@Z 0000000010003ca0     FontManager.obj
 0001:00002f20       ?_Forced_rehash@?$_Hash@V?$_Umap_traits@IPAUImFont@@V?$_Uhash_compare@IU?$hash@I@std@@U?$equal_to@I@2@@std@@V?$allocator@U?$pair@$$CBIPAUImFont@@@std@@@3@$0A@@std@@@std@@IAEXI@Z 0000000010003f20     FontManager.obj
 0001:00003330       ?OnItemEquip@C_DormantSystem@@UAEXPAVIGameEvent@@@Z 0000000010004330     DormantSystem.obj
 0001:000033a0       ?OnSharedESPReceived@C_DormantSystem@@UAEXUC_SharedESPData@@@Z 00000000100043a0     DormantSystem.obj
 0001:00003400       ?OnPostNetworkDataReceived@C_DormantSystem@@UAEXXZ 0000000010004400     DormantSystem.obj
 0001:00003ab0       ?ResetPlayer@C_DormantSystem@@UAEXPAVC_BasePlayer@@@Z 0000000010004ab0     DormantSystem.obj
 0001:00003d70       ?OnRadarDataReceived@C_DormantSystem@@UAEXPAVCCSUsrMsg_ProcessSpottedEntityUpdate_SpottedEntityUpdate@@@Z 0000000010004d70     DormantSystem.obj
 0001:00003e90       ?GetLastActiveTime@C_DormantSystem@@UAEMH@Z 0000000010004e90     DormantSystem.obj
 0001:00003eb0       ?GetLastDormantTime@C_DormantSystem@@UAEMH@Z 0000000010004eb0     DormantSystem.obj
 0001:00003ed0       ?GetTimeInDormant@C_DormantSystem@@UAEMH@Z 0000000010004ed0     DormantSystem.obj
 0001:00003f00       ?GetTimeSinceLastData@C_DormantSystem@@UAEMH@Z 0000000010004f00     DormantSystem.obj
 0001:00003f30       ?GetLastNetworkOrigin@C_DormantSystem@@UAE?AVVector@@H@Z 0000000010004f30     DormantSystem.obj
 0001:00003f60       ?GetLastDormantOrigin@C_DormantSystem@@UAE?AVVector@@H@Z 0000000010004f60     DormantSystem.obj
 0001:00003f90       ?GetDormantHealth@C_DormantSystem@@UAEHH@Z 0000000010004f90     DormantSystem.obj
 0001:00003fb0       ?GetLastActiveWeapon@C_DormantSystem@@UAEHH@Z 0000000010004fb0     DormantSystem.obj
 0001:00003fd0       ?GetLastActiveWeaponType@C_DormantSystem@@UAEHH@Z 0000000010004fd0     DormantSystem.obj
 0001:00003ff0       ?ResetData@C_DormantSystem@@UAEXXZ 0000000010004ff0     DormantSystem.obj
 0001:00004190       ?IsValidSoundData@C_DormantSystem@@UAE_NUSndInfo_t@@@Z 0000000010005190     DormantSystem.obj
 0001:00004210       ??__Em_NetVars@NetVars@@YAXXZ 0000000010005210     DormantSystem.obj
 0001:00004240       ??__Em_AddressList@EngineData@SDK@@YAXXZ 0000000010005240     DormantSystem.obj
 0001:00004270       ??__Em_ConvarList@EngineData@SDK@@YAXXZ 0000000010005270     DormantSystem.obj
 0001:000042a0       ??__Eg_Globals@@YAXXZ      00000000100052a0     DormantSystem.obj
 0001:00004370       ??__Eg_DormantSystem@@YAXXZ 0000000010005370     DormantSystem.obj
 0001:000043b0       ??__Eg_VoiceCommunication@@YAXXZ 00000000100053b0     DormantSystem.obj
 0001:000043d0       ??__Eg_Utils@@YAXXZ        00000000100053d0     DormantSystem.obj
 0001:000043f0       ??$destroy@UNetVar_t@@@?$_Default_allocator_traits@V?$allocator@UNetVar_t@@@std@@@std@@SAXAAV?$allocator@UNetVar_t@@@1@QAUNetVar_t@@@Z 00000000100053f0     DormantSystem.obj
 0001:00004500       ??0?$_Hash@V?$_Umap_traits@W4CheatAddressList@@PAXV?$_Uhash_compare@W4CheatAddressList@@U?$hash@W4CheatAddressList@@@std@@U?$equal_to@W4CheatAddressList@@@3@@std@@V?$allocator@U?$pair@$$CBW4CheatAddressList@@PAX@std@@@3@$0A@@std@@@std@@IAE@ABV?$_Uhash_compare@W4CheatAddressList@@U?$hash@W4CheatAddressList@@@std@@U?$equal_to@W4CheatAddressList@@@3@@1@ABV?$allocator@U?$pair@$$CBW4CheatAddressList@@PAX@std@@@1@@Z 0000000010005500     DormantSystem.obj
 0001:00004660       ??0?$_Hash@V?$_Umap_traits@W4CheatConvarList@@PAVConVar@@V?$_Uhash_compare@W4CheatConvarList@@U?$hash@W4CheatConvarList@@@std@@U?$equal_to@W4CheatConvarList@@@3@@std@@V?$allocator@U?$pair@$$CBW4CheatConvarList@@PAVConVar@@@std@@@4@$0A@@std@@@std@@IAE@ABV?$_Uhash_compare@W4CheatConvarList@@U?$hash@W4CheatConvarList@@@std@@U?$equal_to@W4CheatConvarList@@@3@@1@ABV?$allocator@U?$pair@$$CBW4CheatConvarList@@PAVConVar@@@std@@@1@@Z 0000000010005660     DormantSystem.obj
 0001:000049e0       ?SetupExploits@C_Exploits@@UAEXXZ 00000000100059e0     Exploits.obj
 0001:00005350       ?GetPredictedTickBase@C_Exploits@@UAEHXZ 0000000010006350     Exploits.obj
 0001:00005510       ?OnTickBaseProxy@C_Exploits@@UAEXH@Z 0000000010006510     Exploits.obj
 0001:00005530       ?OnFakeDuck@C_Exploits@@UAEXXZ 0000000010006530     Exploits.obj
 0001:000055a0       ?BeforeRageBot@C_Exploits@@UAEXXZ 00000000100065a0     Exploits.obj
 0001:00005940       ?PostRageBot@C_Exploits@@UAEXXZ 0000000010006940     Exploits.obj
 0001:00005e30       ?WriteUsercmd@C_Exploits@@UAEXPAVbf_write@@PAVC_UserCmd@@1@Z 0000000010006e30     Exploits.obj
 0001:00005e70       ?WriteUsercmdDeltaToBuffer@C_Exploits@@UAE_NPAVbf_write@@HHH_N@Z 0000000010006e70     Exploits.obj
 0001:000060a0       ?OnMovePacket@C_Exploits@@UAEXM@Z 00000000100070a0     Exploits.obj
 0001:00006260       ?IsRecharging@C_Exploits@@UAE_NXZ 0000000010007260     Exploits.obj
 0001:00006520       ?RunExploits@C_Exploits@@UAE_NXZ 0000000010007520     Exploits.obj
 0001:00006ff0       ?DebugDrawData@C_Exploits@@UAEXXZ 0000000010007ff0     Exploits.obj
 0001:00007a30       ?ResetData@C_Exploits@@UAEXXZ 0000000010008a30     Exploits.obj
 0001:00007af0       ??__Eg_Exploits@@YAXXZ     0000000010008af0     Exploits.obj
 0001:00007b40       ??__Eg_Hooks@@YAXXZ        0000000010008b40     Exploits.obj
 0001:00007b80       ??__Eg_EnginePrediction@@YAXXZ 0000000010008b80     Exploits.obj
 0001:00008070       ??__Eg_LocalInterpolation@@YAXXZ 0000000010009070     Exploits.obj
 0001:00008090       ??__Eg_LocalAnimations@@YAXXZ 0000000010009090     Exploits.obj
 0001:000089a0       ??__Eg_AntiAim@@YAXXZ      00000000100099a0     Exploits.obj
 0001:000089f0       ??__Eg_AutoStop@@YAXXZ     00000000100099f0     Exploits.obj
 0001:00008b10       ??__Eg_LagCompensation@@YAXXZ 0000000010009b10     Exploits.obj
 0001:00008fe0       ??__Eg_RageBot@@YAXXZ      0000000010009fe0     Exploits.obj
 0001:00009210       ??__Eg_Networking@@YAXXZ   000000001000a210     Exploits.obj
 0001:00009250       ??__Eg_Movement@@YAXXZ     000000001000a250     Exploits.obj
 0001:00009270       ?GetChecksum@C_UserCmd@@QBEKXZ 000000001000a270     Exploits.obj
 0001:00009370       ??__Eg_InputSystem@@YAXXZ  000000001000a370     Exploits.obj
 0001:000093b0       ??__Eg_Renderer@@YAXXZ     000000001000a3b0     Exploits.obj
 0001:000094e0       ?_Assign_grow@?$_Hash_vec@V?$allocator@V?$_List_unchecked_iterator@V?$_List_val@U?$_List_simple_types@U?$pair@$$CBV?$basic_string@DU?$char_traits@D@std@@V?$allocator@D@2@@std@@_N@std@@@std@@@std@@@std@@@std@@@std@@QAEXIV?$_List_unchecked_iterator@V?$_List_val@U?$_List_simple_types@U?$pair@$$CBV?$basic_string@DU?$char_traits@D@std@@V?$allocator@D@2@@std@@_N@std@@@std@@@std@@@2@@Z 000000001000a4e0     Exploits.obj
 0001:00009800       ?IsInDefensive@C_Exploits@@UAE_NXZ 000000001000a800     Exploits.obj
 0001:00009810       ?ResetData@C_EnginePrediction@@UAEXXZ 000000001000a810     Exploits.obj
 0001:000099d0       ?GetEngineTickbase@C_EnginePrediction@@UAEHH@Z 000000001000a9d0     Exploits.obj
 0001:00009a00       ?SetTickbase@C_EnginePrediction@@UAEXHH@Z 000000001000aa00     Exploits.obj
 0001:00009a40       ?GetTickbaseRecord@C_EnginePrediction@@UAEPAUTickbaseRecord_t@@H@Z 000000001000aa40     Exploits.obj
 0001:00009a70       ?GetPacketLoss@C_EnginePrediction@@UAEHXZ 000000001000aa70     Exploits.obj
 0001:00009a80       ?GetUnpredictedData@C_EnginePrediction@@UAEPAUPredictionData_t@@XZ 000000001000aa80     Exploits.obj
 0001:00009a90       ?GetYawDelta@C_LocalAnimations@@UAEMXZ 000000001000aa90     Exploits.obj
 0001:00009aa0       ?GetShootPosition@C_LocalAnimations@@UAE?AVVector@@XZ 000000001000aaa0     Exploits.obj
 0001:00009ac0       ?GetDesyncMatrix@C_LocalAnimations@@UAE?AV?$array@Vmatrix3x4_t@@$0IA@@std@@XZ 000000001000aac0     Exploits.obj
 0001:00009ae0       ?FinishCreateMove@C_AntiAim@@UAEXXZ 000000001000aae0     Exploits.obj
 0001:00009cc0       ?ResetData@C_AntiAim@@UAEXXZ 000000001000acc0     Exploits.obj
 0001:00009ce0       ?ResetData@C_AutoStop@@UAEXXZ 000000001000ace0     Exploits.obj
 0001:00009d10       ?GetTicksToStop@C_AutoStop@@UAEHXZ 000000001000ad10     Exploits.obj
 0001:00009d20       ?CleanUp@C_AutoStop@@UAEXXZ 000000001000ad20     Exploits.obj
 0001:00009d40       ?IsPeeking@C_AutoStop@@UAE_NXZ 000000001000ad40     Exploits.obj
 0001:00009d50       ?SetAsPeeking@C_AutoStop@@UAEXXZ 000000001000ad50     Exploits.obj
 0001:00009d60       ?ResetData@C_LagCompensation@@UAEXXZ 000000001000ad60     Exploits.obj
 0001:00009da0       ?GetPlayerRecords@C_LagCompensation@@UAEAAV?$deque@ULagRecord_t@@V?$allocator@ULagRecord_t@@@std@@@std@@PAVC_BasePlayer@@@Z 000000001000ada0     Exploits.obj
 0001:00009dc0       ?GetPlayerData@C_LagCompensation@@UAEAAUPlayerData_t@@PAVC_BasePlayer@@@Z 000000001000adc0     Exploits.obj
 0001:00009df0       ?_Tidy@?$deque@ULagRecord_t@@V?$allocator@ULagRecord_t@@@std@@@std@@AAEXXZ 000000001000adf0     Exploits.obj
 0001:00009e90       ?IsAutoStopEnabled@C_RageBot@@UAE_NXZ 000000001000ae90     Exploits.obj
 0001:00009ea0       ?GetSettings@C_RageBot@@UAEPAURageSettings_t@@XZ 000000001000aea0     Exploits.obj
 0001:00009eb0       ?GetLastTarget@C_RageBot@@UAEHXZ 000000001000aeb0     Exploits.obj
 0001:00009ec0       ?ResetData@C_RageBot@@UAEXXZ 000000001000aec0     Exploits.obj
 0001:00009fe0       ?OnSendDatagram@C_Networking@@UAEXH@Z 000000001000afe0     Exploits.obj
 0001:00009ff0       ?PushCommand@C_Networking@@UAEXH@Z 000000001000aff0     Exploits.obj
 0001:0000a020       ?SetMaxChoke@C_Networking@@UAEXH@Z 000000001000b020     Exploits.obj
 0001:0000a030       ?ReadPackets@C_Networking@@UAE_NXZ 000000001000b030     Exploits.obj
 0001:0000a040       ?CleanSequenceList@C_Networking@@UAEXXZ 000000001000b040     Exploits.obj
 0001:0000a050       ?ResetData@C_Networking@@UAEXXZ 000000001000b050     Exploits.obj
 0001:0000a070       ??$_Emplace_reallocate@ABH@?$vector@HV?$allocator@H@std@@@std@@QAEPAHQAHABH@Z 000000001000b070     Exploits.obj
 0001:0000a1c0       ?IsToggled@C_InputSystem@@UAE_NK@Z 000000001000b1c0     Exploits.obj
 0001:0000a1d0       ?IsKeyHeld@C_InputSystem@@UAE_NK@Z 000000001000b1d0     Exploits.obj
 0001:0000a1e0       ?_Tidy@?$deque@UDrawQueueObject_t@@V?$allocator@UDrawQueueObject_t@@@std@@@std@@AAEXXZ 000000001000b1e0     Exploits.obj
 0001:0000a2c0       ??$fnvHashConst@$0L@@FnvHash@@CAIAAY0L@$$CBDI@Z 000000001000b2c0     Exploits.obj
 0001:0000a300       ?_Assign_grow@?$_Hash_vec@V?$allocator@V?$_List_unchecked_iterator@V?$_List_val@U?$_List_simple_types@U?$pair@$$CBW4CheatAddressList@@PAX@std@@@std@@@std@@@std@@@std@@@std@@QAEXIV?$_List_unchecked_iterator@V?$_List_val@U?$_List_simple_types@U?$pair@$$CBW4CheatAddressList@@PAX@std@@@std@@@std@@@2@@Z 000000001000b300     Exploits.obj
 0001:0000a620       ??$_Try_emplace@W4CheatAddressList@@$$V@?$_Hash@V?$_Umap_traits@W4CheatAddressList@@PAXV?$_Uhash_compare@W4CheatAddressList@@U?$hash@W4CheatAddressList@@@std@@U?$equal_to@W4CheatAddressList@@@3@@std@@V?$allocator@U?$pair@$$CBW4CheatAddressList@@PAX@std@@@3@$0A@@std@@@std@@IAE?AU?$pair@PAU?$_List_node@U?$pair@$$CBW4CheatAddressList@@PAX@std@@PAX@std@@_N@1@$$QAW4CheatAddressList@@@Z 000000001000b620     Exploits.obj
 0001:0000a8a0       ?_Forced_rehash@?$_Hash@V?$_Umap_traits@W4CheatAddressList@@PAXV?$_Uhash_compare@W4CheatAddressList@@U?$hash@W4CheatAddressList@@@std@@U?$equal_to@W4CheatAddressList@@@3@@std@@V?$allocator@U?$pair@$$CBW4CheatAddressList@@PAX@std@@@3@$0A@@std@@@std@@IAEXI@Z 000000001000b8a0     Exploits.obj
 0001:0000aa10       ?_Destroy@?$_Ref_count_obj2@VC_Hooks@@@std@@EAEXXZ 000000001000ba10     Exploits.obj
 0001:0000aa20       ?_Delete_this@?$_Ref_count_obj2@VC_Hooks@@@std@@EAEXXZ 000000001000ba20     Exploits.obj
 0001:0000aa30       ??_G?$_Ref_count_obj2@VC_Hooks@@@std@@UAEPAXI@Z 000000001000ba30     Exploits.obj
 0001:0000aa50       ??$_Try_emplace@V?$basic_string@DU?$char_traits@D@std@@V?$allocator@D@2@@std@@$$V@?$_Hash@V?$_Umap_traits@V?$basic_string@DU?$char_traits@D@std@@V?$allocator@D@2@@std@@_NV?$_Uhash_compare@V?$basic_string@DU?$char_traits@D@std@@V?$allocator@D@2@@std@@U?$hash@V?$basic_string@DU?$char_traits@D@std@@V?$allocator@D@2@@std@@@2@U?$equal_to@V?$basic_string@DU?$char_traits@D@std@@V?$allocator@D@2@@std@@@2@@2@V?$allocator@U?$pair@$$CBV?$basic_string@DU?$char_traits@D@std@@V?$allocator@D@2@@std@@_N@std@@@2@$0A@@std@@@std@@IAE?AU?$pair@PAU?$_List_node@U?$pair@$$CBV?$basic_string@DU?$char_traits@D@std@@V?$allocator@D@2@@std@@_N@std@@PAX@std@@_N@1@$$QAV?$basic_string@DU?$char_traits@D@std@@V?$allocator@D@2@@1@@Z 000000001000ba50     Exploits.obj
 0001:0000ae10       ?_Forced_rehash@?$_Hash@V?$_Umap_traits@V?$basic_string@DU?$char_traits@D@std@@V?$allocator@D@2@@std@@_NV?$_Uhash_compare@V?$basic_string@DU?$char_traits@D@std@@V?$allocator@D@2@@std@@U?$hash@V?$basic_string@DU?$char_traits@D@std@@V?$allocator@D@2@@std@@@2@U?$equal_to@V?$basic_string@DU?$char_traits@D@std@@V?$allocator@D@2@@std@@@2@@2@V?$allocator@U?$pair@$$CBV?$basic_string@DU?$char_traits@D@std@@V?$allocator@D@2@@std@@_N@std@@@2@$0A@@std@@@std@@IAEXI@Z 000000001000be10     Exploits.obj
 0001:0000b0b0       ??1_Clear_guard@?$_Hash@V?$_Umap_traits@V?$basic_string@DU?$char_traits@D@std@@V?$allocator@D@2@@std@@_NV?$_Uhash_compare@V?$basic_string@DU?$char_traits@D@std@@V?$allocator@D@2@@std@@U?$hash@V?$basic_string@DU?$char_traits@D@std@@V?$allocator@D@2@@std@@@2@U?$equal_to@V?$basic_string@DU?$char_traits@D@std@@V?$allocator@D@2@@std@@@2@@2@V?$allocator@U?$pair@$$CBV?$basic_string@DU?$char_traits@D@std@@V?$allocator@D@2@@std@@_N@std@@@2@$0A@@std@@@std@@QAE@XZ 000000001000c0b0     Exploits.obj
 0001:0000b2a0       ?_Unchecked_erase@?$_Hash@V?$_Umap_traits@V?$basic_string@DU?$char_traits@D@std@@V?$allocator@D@2@@std@@_NV?$_Uhash_compare@V?$basic_string@DU?$char_traits@D@std@@V?$allocator@D@2@@std@@U?$hash@V?$basic_string@DU?$char_traits@D@std@@V?$allocator@D@2@@std@@@2@U?$equal_to@V?$basic_string@DU?$char_traits@D@std@@V?$allocator@D@2@@std@@@2@@2@V?$allocator@U?$pair@$$CBV?$basic_string@DU?$char_traits@D@std@@V?$allocator@D@2@@std@@_N@std@@@2@$0A@@std@@@std@@AAEPAU?$_List_node@U?$pair@$$CBV?$basic_string@DU?$char_traits@D@std@@V?$allocator@D@2@@std@@_N@std@@PAX@2@PAU32@QAU32@@Z 000000001000c2a0     Exploits.obj
 0001:0000b5e0       ?Get@CBaseHandle@@QBEPAVIHandleEntity@@XZ 000000001000c5e0     Exploits.obj
 0001:0000b600       ?GetClientEntityFromHandle@IClientEntityList@@QAE?A?<auto>@@VCBaseHandle@@@Z 000000001000c600     Exploits.obj
 0001:0000b630       ??$_Reallocate_grow_by@V<lambda_1>@?0??insert@?$basic_string@DU?$char_traits@D@std@@V?$allocator@D@2@@std@@QAEAAV34@IQBDI@Z@IPBDI@?$basic_string@DU?$char_traits@D@std@@V?$allocator@D@2@@std@@AAEAAV01@IV<lambda_1>@?0??insert@01@QAEAAV01@IQBDI@Z@IPBDI@Z 000000001000c630     Exploits.obj
 0001:0000ba10       ?SetupInterpolation@C_LocalInterpolation@@UAEX_N@Z 000000001000ca10     Interpolation.obj
 0001:0000bc20       ?SkipInterpolation@C_LocalInterpolation@@UAEXXZ 000000001000cc20     Interpolation.obj
 0001:0000bc30       ?ContinueInterpolation@C_LocalInterpolation@@UAEXXZ 000000001000cc30     Interpolation.obj
 0001:0000be50       ?FinishPacket@C_Networking@@UAEXH@Z 000000001000ce50     Networking.obj
 0001:0000c130       ?PingReducer@C_Networking@@UAEXXZ 000000001000d130     Networking.obj
 0001:0000c7b0       ?StartNetwork@C_Networking@@UAEXXZ 000000001000d7b0     Networking.obj
 0001:0000c880       ?FinishNetwork@C_Networking@@UAEXXZ 000000001000d880     Networking.obj
 0001:0000cc50       ?OnFakeDuck@C_Networking@@UAEXXZ 000000001000dc50     Networking.obj
 0001:0000cc80       ?OnNetShowFragments@C_Networking@@UAEXK@Z 000000001000dc80     Networking.obj
 0001:0000cd20       ?GetLatency@C_Networking@@UAEMXZ 000000001000dd20     Networking.obj
 0001:0000cd30       ?GetMaximumChoke@C_Networking@@UAEHXZ 000000001000dd30     Networking.obj
 0001:0000cd40       ?GetLagCompensationTick@C_Networking@@UAEHXZ 000000001000dd40     Networking.obj
 0001:0000cd50       ?GetServerTick@C_Networking@@UAEHXZ 000000001000dd50     Networking.obj
 0001:0000cd60       ?GetTickRate@C_Networking@@UAEHXZ 000000001000dd60     Networking.obj
 0001:0000cd70       ?PacketStart@C_Networking@@UAE_NH@Z 000000001000dd70     Networking.obj
 0001:0000d180       ??__Eg_ViewmodelAnimation@@YAXXZ 000000001000e180     Networking.obj
 0001:0000d380       ?UpdatePrediction@C_EnginePrediction@@UAEXXZ 000000001000e380     EnginePrediction.obj
 0001:0000d460       ?OnRunCommand@C_EnginePrediction@@UAEXH@Z 000000001000e460     EnginePrediction.obj
 0001:0000e900       ?OnVelocityModifierProxy@C_EnginePrediction@@UAEXM@Z 000000001000f900     EnginePrediction.obj
 0001:0000e930       ?OnFrameStageNotify@C_EnginePrediction@@UAEXW4ClientFrameStage_t@@@Z 000000001000f930     EnginePrediction.obj
 0001:0000ece0       ?AdjustPlayerTimeBase@C_EnginePrediction@@UAEHH@Z 000000001000fce0     EnginePrediction.obj
 0001:0000eee0       ?OnPostNetworkDataReceived@C_EnginePrediction@@UAEXXZ 000000001000fee0     EnginePrediction.obj
 0001:00011970       ?OnPlayerMove@C_EnginePrediction@@UAEXXZ 0000000010012970     EnginePrediction.obj
 0001:00012760       ?CanAttack@C_EnginePrediction@@UAE_N_NH@Z 0000000010013760     EnginePrediction.obj
 0001:00013130       ?StartPrediction@C_EnginePrediction@@UAEXXZ 0000000010014130     EnginePrediction.obj
 0001:00013380       ?RunPrediction@C_EnginePrediction@@UAEXXZ 0000000010014380     EnginePrediction.obj
 0001:000139f0       ?FinishPrediction@C_EnginePrediction@@UAEXXZ 00000000100149f0     EnginePrediction.obj
 0001:00013a30       ?StartCommand@C_EnginePrediction@@EAEXXZ 0000000010014a30     EnginePrediction.obj
 0001:00013ae0       ?FinishCommand@C_EnginePrediction@@EAEXXZ 0000000010014ae0     EnginePrediction.obj
 0001:00013b80       ?UpdateButtonState@C_EnginePrediction@@UAEXXZ 0000000010014b80     EnginePrediction.obj
 0001:00013c20       ?GetSpread@C_EnginePrediction@@UAEMXZ 0000000010014c20     EnginePrediction.obj
 0001:00013c30       ?GetInaccuracy@C_EnginePrediction@@UAEMXZ 0000000010014c30     EnginePrediction.obj
 0001:00013c40       ?GetMaxSpeed@C_EnginePrediction@@UAEMPAVC_BasePlayer@@@Z 0000000010014c40     EnginePrediction.obj
 0001:00013e40       ?SaveNetvars@C_EnginePrediction@@UAEXXZ 0000000010014e40     EnginePrediction.obj
 0001:000156f0       ?RestoreNetvars@C_EnginePrediction@@UAEXXZ 00000000100166f0     EnginePrediction.obj
 0001:00016fe0       ?RePredict@C_EnginePrediction@@UAEXXZ 0000000010017fe0     EnginePrediction.obj
 0001:00017000       ?ForceEngineRepredict@C_EnginePrediction@@UAEXXZ 0000000010018000     EnginePrediction.obj
 0001:00017030       ?ModifyDatamap@C_EnginePrediction@@UAEXXZ 0000000010018030     EnginePrediction.obj
 0001:000173b0       ?FindInDatamap@SDK@@YAKPAUC_DataMap@@ABV?$basic_string@DU?$char_traits@D@std@@V?$allocator@D@2@@std@@@Z 00000000100183b0     EnginePrediction.obj
 0001:00017480       __scprintf                 0000000010018480     EnginePrediction.obj
 0001:000174c0       _sprintf_s                 00000000100184c0     EnginePrediction.obj
 0001:00017510       ___local_stdio_printf_options 0000000010018510     EnginePrediction.obj
 0001:00017520       ??$_Reallocate_for@V<lambda_1>@?0??assign@?$basic_string@DU?$char_traits@D@std@@V?$allocator@D@2@@std@@QAEAAV34@ID@Z@D@?$basic_string@DU?$char_traits@D@std@@V?$allocator@D@2@@std@@AAEAAV01@IV<lambda_1>@?0??assign@01@QAEAAV01@ID@Z@D@Z 0000000010018520     EnginePrediction.obj
 0001:000177f0       ?SimulatePlayerAnimations@C_PlayerAnimations@@UAEXPAVC_BasePlayer@@PAULagRecord_t@@PAUPlayerData_t@@@Z 00000000100187f0     Animations.obj
 0001:0001b520       ?ComputeActivityPlayback@C_PlayerAnimations@@UAEMPAVC_BasePlayer@@PAULagRecord_t@@@Z 000000001001c520     Animations.obj
 0001:0001b580       ?SimulatePlayerActivity@C_PlayerAnimations@@UAEXPAVC_BasePlayer@@PAULagRecord_t@@1@Z 000000001001c580     Animations.obj
 0001:0001b7e0       ?HandleDormancyLeaving@C_PlayerAnimations@@UAEXPAVC_BasePlayer@@PAULagRecord_t@@PAVC_CSGOPlayerAnimationState@@@Z 000000001001c7e0     Animations.obj
 0001:0001ba10       ?CopyRecordData@C_PlayerAnimations@@UAEXPAVC_BasePlayer@@PAULagRecord_t@@1PAVC_CSGOPlayerAnimationState@@@Z 000000001001ca10     Animations.obj
 0001:0001bab0       ?DeterminePlayerVelocity@C_PlayerAnimations@@UAE?AVVector@@PAVC_BasePlayer@@PAULagRecord_t@@1PAVC_CSGOPlayerAnimationState@@@Z 000000001001cab0     Animations.obj
 0001:0001c120       ?SetupData@C_PlayerAnimations@@UAEPAULagRecord_t@@PAVC_BasePlayer@@PAU2@PAUPlayerData_t@@@Z 000000001001d120     Animations.obj
 0001:0001c1c0       ?DetermineAnimationCycle@C_PlayerAnimations@@UAEHPAVC_BasePlayer@@PAULagRecord_t@@1@Z 000000001001d1c0     Animations.obj
 0001:0001c250       ?SetupCollision@C_PlayerAnimations@@UAEXPAVC_BasePlayer@@PAULagRecord_t@@@Z 000000001001d250     Animations.obj
 0001:0001c2e0       ?GenerateSafePoints@C_PlayerAnimations@@UAEXPAVC_BasePlayer@@PAULagRecord_t@@@Z 000000001001d2e0     Animations.obj
 0001:0001d4d0       ?BuildFootYaw@C_PlayerAnimations@@UAEMPAVC_BasePlayer@@PAULagRecord_t@@@Z 000000001001e4d0     Animations.obj
 0001:0001d870       ?UpdatePlayerAnimations@C_PlayerAnimations@@UAEXPAVC_BasePlayer@@PAULagRecord_t@@PAVC_CSGOPlayerAnimationState@@@Z 000000001001e870     Animations.obj
 0001:0001df90       ?InterpolateMatricies@C_PlayerAnimations@@UAEXXZ 000000001001ef90     Animations.obj
 0001:0001e270       ?TransformateMatrix@C_PlayerAnimations@@UAEXPAVC_BasePlayer@@PAUPlayerData_t@@@Z 000000001001f270     Animations.obj
 0001:0001e380       ?CopyCachedMatrix@C_PlayerAnimations@@UAE_NPAVC_BasePlayer@@PAVmatrix3x4_t@@H@Z 000000001001f380     Animations.obj
 0001:0001e3c0       ?SetupPlayerMatrix@C_PlayerAnimations@@UAEXPAVC_BasePlayer@@PAULagRecord_t@@PAVmatrix3x4_t@@H@Z 000000001001f3c0     Animations.obj
 0001:0001ebf0       ?SetupBones@C_PlayerAnimations@@UAEXPAVC_BasePlayer@@HPAVmatrix3x4_t@@@Z 000000001001fbf0     Animations.obj
 0001:0001ec30       ?IncrementLayerCycle@C_CSGOPlayerAnimationState@@QAEXPAVC_AnimationLayer@@_N@Z 000000001001fc30     Animations.obj
 0001:0001ecc0       ?IsLayerSequenceFinished@C_CSGOPlayerAnimationState@@QAE_NPAVC_AnimationLayer@@M@Z 000000001001fcc0     Animations.obj
 0001:0001ecf0       ?SetLayerCycle@C_CSGOPlayerAnimationState@@QAEXPAVC_AnimationLayer@@M@Z 000000001001fcf0     Animations.obj
 0001:0001ed10       ?SetLayerRate@C_CSGOPlayerAnimationState@@QAEXPAVC_AnimationLayer@@M@Z 000000001001fd10     Animations.obj
 0001:0001ed30       ?SetLayerWeight@C_CSGOPlayerAnimationState@@QAEXPAVC_AnimationLayer@@M@Z 000000001001fd30     Animations.obj
 0001:0001ed50       ?SetLayerWeightRate@C_CSGOPlayerAnimationState@@QAEXPAVC_AnimationLayer@@M@Z 000000001001fd50     Animations.obj
 0001:0001ed70       ?SetLayerSequence@C_CSGOPlayerAnimationState@@QAEXPAVC_AnimationLayer@@H@Z 000000001001fd70     Animations.obj
 0001:0001ee70       ?SelectSequenceFromActivityModifier@C_CSGOPlayerAnimationState@@QAEHH@Z 000000001001fe70     Animations.obj
 0001:0001ef40       ?Reset@C_CSGOPlayerAnimationState@@QAEXXZ 000000001001ff40     Animations.obj
 0001:0001f2f0       ??__Eg_PlayerAnimations@@YAXXZ 00000000100202f0     Animations.obj
 0001:0001f310       ??__Eg_ShotSystem@@YAXXZ   0000000010020310     Animations.obj
 0001:0001f3c0       ??__Eg_Resolver@@YAXXZ     00000000100203c0     Animations.obj
 0001:0001f470       ??0?$_Hash@V?$_Umap_traits@HUResolverData_t@@V?$_Uhash_compare@HU?$hash@H@std@@U?$equal_to@H@2@@std@@V?$allocator@U?$pair@$$CBHUResolverData_t@@@std@@@3@$0A@@std@@@std@@IAE@ABV?$_Uhash_compare@HU?$hash@H@std@@U?$equal_to@H@2@@1@ABV?$allocator@U?$pair@$$CBHUResolverData_t@@@std@@@1@@Z 0000000010020470     Animations.obj
 0001:0001f5d0       ?_Assign_grow@?$_Hash_vec@V?$allocator@V?$_List_unchecked_iterator@V?$_List_val@U?$_List_simple_types@U?$pair@$$CBW4CheatConvarList@@PAVConVar@@@std@@@std@@@std@@@std@@@std@@@std@@QAEXIV?$_List_unchecked_iterator@V?$_List_val@U?$_List_simple_types@U?$pair@$$CBW4CheatConvarList@@PAVConVar@@@std@@@std@@@std@@@2@@Z 00000000100205d0     Animations.obj
 0001:0001f8f0       ??$_Try_emplace@W4CheatConvarList@@$$V@?$_Hash@V?$_Umap_traits@W4CheatConvarList@@PAVConVar@@V?$_Uhash_compare@W4CheatConvarList@@U?$hash@W4CheatConvarList@@@std@@U?$equal_to@W4CheatConvarList@@@3@@std@@V?$allocator@U?$pair@$$CBW4CheatConvarList@@PAVConVar@@@std@@@4@$0A@@std@@@std@@IAE?AU?$pair@PAU?$_List_node@U?$pair@$$CBW4CheatConvarList@@PAVConVar@@@std@@PAX@std@@_N@1@$$QAW4CheatConvarList@@@Z 00000000100208f0     Animations.obj
 0001:0001fb70       ?_Forced_rehash@?$_Hash@V?$_Umap_traits@W4CheatConvarList@@PAVConVar@@V?$_Uhash_compare@W4CheatConvarList@@U?$hash@W4CheatConvarList@@@std@@U?$equal_to@W4CheatConvarList@@@3@@std@@V?$allocator@U?$pair@$$CBW4CheatConvarList@@PAVConVar@@@std@@@4@$0A@@std@@@std@@IAEXI@Z 0000000010020b70     Animations.obj
 0001:0001fef0       ?OnCreateMove@C_AntiAim@@UAEXXZ 0000000010020ef0     AntiAim.obj
 0001:00020950       ?GetAtTargetsYaw@C_AntiAim@@UAEMXZ 0000000010021950     AntiAim.obj
 0001:00021430       ?GetPitch@C_AntiAim@@UAEMXZ 0000000010022430     AntiAim.obj
 0001:00021470       ?GetYaw@C_AntiAim@@UAEMXZ  0000000010022470     AntiAim.obj
 0001:00022070       ?AvoidOverlap@C_AntiAim@@UAEXXZ 0000000010023070     AntiAim.obj
 0001:000220e0       ?JitterMove@C_AntiAim@@UAEXXZ 00000000100230e0     AntiAim.obj
 0001:00022850       ?SlowWalk@C_AntiAim@@UAEXXZ 0000000010023850     AntiAim.obj
 0001:00022fe0       ?LegMovement@C_AntiAim@@UAEXXZ 0000000010023fe0     AntiAim.obj
 0001:00023130       ?MicroMovement@C_AntiAim@@UAEXXZ 0000000010024130     AntiAim.obj
 0001:00023850       ?CheckConditions@C_AntiAim@@UAE_NXZ 0000000010024850     AntiAim.obj
 0001:000243e0       ?_Assign_grow@?$_Hash_vec@V?$allocator@V?$_List_unchecked_iterator@V?$_List_val@U?$_List_simple_types@U?$pair@$$CBV?$basic_string@DU?$char_traits@D@std@@V?$allocator@D@2@@std@@H@std@@@std@@@std@@@std@@@std@@@std@@QAEXIV?$_List_unchecked_iterator@V?$_List_val@U?$_List_simple_types@U?$pair@$$CBV?$basic_string@DU?$char_traits@D@std@@V?$allocator@D@2@@std@@H@std@@@std@@@std@@@2@@Z 00000000100253e0     AntiAim.obj
 0001:00024700       ??$_Try_emplace@V?$basic_string@DU?$char_traits@D@std@@V?$allocator@D@2@@std@@$$V@?$_Hash@V?$_Umap_traits@V?$basic_string@DU?$char_traits@D@std@@V?$allocator@D@2@@std@@HV?$_Uhash_compare@V?$basic_string@DU?$char_traits@D@std@@V?$allocator@D@2@@std@@U?$hash@V?$basic_string@DU?$char_traits@D@std@@V?$allocator@D@2@@std@@@2@U?$equal_to@V?$basic_string@DU?$char_traits@D@std@@V?$allocator@D@2@@std@@@2@@2@V?$allocator@U?$pair@$$CBV?$basic_string@DU?$char_traits@D@std@@V?$allocator@D@2@@std@@H@std@@@2@$0A@@std@@@std@@IAE?AU?$pair@PAU?$_List_node@U?$pair@$$CBV?$basic_string@DU?$char_traits@D@std@@V?$allocator@D@2@@std@@H@std@@PAX@std@@_N@1@$$QAV?$basic_string@DU?$char_traits@D@std@@V?$allocator@D@2@@1@@Z 0000000010025700     AntiAim.obj
 0001:00024ad0       ?_Forced_rehash@?$_Hash@V?$_Umap_traits@V?$basic_string@DU?$char_traits@D@std@@V?$allocator@D@2@@std@@HV?$_Uhash_compare@V?$basic_string@DU?$char_traits@D@std@@V?$allocator@D@2@@std@@U?$hash@V?$basic_string@DU?$char_traits@D@std@@V?$allocator@D@2@@std@@@2@U?$equal_to@V?$basic_string@DU?$char_traits@D@std@@V?$allocator@D@2@@std@@@2@@2@V?$allocator@U?$pair@$$CBV?$basic_string@DU?$char_traits@D@std@@V?$allocator@D@2@@std@@H@std@@@2@$0A@@std@@@std@@IAEXI@Z 0000000010025ad0     AntiAim.obj
 0001:00024d70       ??1_Clear_guard@?$_Hash@V?$_Umap_traits@V?$basic_string@DU?$char_traits@D@std@@V?$allocator@D@2@@std@@HV?$_Uhash_compare@V?$basic_string@DU?$char_traits@D@std@@V?$allocator@D@2@@std@@U?$hash@V?$basic_string@DU?$char_traits@D@std@@V?$allocator@D@2@@std@@@2@U?$equal_to@V?$basic_string@DU?$char_traits@D@std@@V?$allocator@D@2@@std@@@2@@2@V?$allocator@U?$pair@$$CBV?$basic_string@DU?$char_traits@D@std@@V?$allocator@D@2@@std@@H@std@@@2@$0A@@std@@@std@@QAE@XZ 0000000010025d70     AntiAim.obj
 0001:00024f60       ?_Unchecked_erase@?$_Hash@V?$_Umap_traits@V?$basic_string@DU?$char_traits@D@std@@V?$allocator@D@2@@std@@HV?$_Uhash_compare@V?$basic_string@DU?$char_traits@D@std@@V?$allocator@D@2@@std@@U?$hash@V?$basic_string@DU?$char_traits@D@std@@V?$allocator@D@2@@std@@@2@U?$equal_to@V?$basic_string@DU?$char_traits@D@std@@V?$allocator@D@2@@std@@@2@@2@V?$allocator@U?$pair@$$CBV?$basic_string@DU?$char_traits@D@std@@V?$allocator@D@2@@std@@H@std@@@2@$0A@@std@@@std@@AAEPAU?$_List_node@U?$pair@$$CBV?$basic_string@DU?$char_traits@D@std@@V?$allocator@D@2@@std@@H@std@@PAX@2@PAU32@QAU32@@Z 0000000010025f60     AntiAim.obj
 0001:00025480       ?Initialize@C_AutoStop@@UAEX_N@Z 0000000010026480     AutoStop.obj
 0001:00025b50       ?RunAutoStop@C_AutoStop@@UAEXXZ 0000000010026b50     AutoStop.obj
 0001:00026580       ?RunEarlyAutoStop@C_AutoStop@@UAEX_N@Z 0000000010027580     AutoStop.obj
 0001:00027fd0       ?RunMovementPrediction@C_AutoStop@@UAEXXZ 0000000010028fd0     AutoStop.obj
 0001:000293b0       ?Friction@C_AutoStop@@UAEXXZ 000000001002a3b0     AutoStop.obj
 0001:000296e0       ?CalcRoll@C_AutoStop@@UAEMABVQAngle@@ABVVector@@MM@Z 000000001002a6e0     AutoStop.obj
 0001:00029ad0       ?ComputeConstraintSpeedFactor@C_AutoStop@@UAEMXZ 000000001002aad0     AutoStop.obj
 0001:00029da0       ?ProcessMovement@C_AutoStop@@UAEXXZ 000000001002ada0     AutoStop.obj
 0001:0002ba90       ??__Eg_AutoWall@@YAXXZ     000000001002ca90     AutoStop.obj
 0001:0002bac0       ?GetWeaponData@C_AutoWall@@UAEAAUWepData_t@@XZ 000000001002cac0     AutoStop.obj
 0001:0002bad0       ??$_Construct@V?$_Deque_unchecked_const_iterator@V?$_Deque_val@U?$_Deque_simple_types@ULagRecord_t@@@std@@@std@@@std@@@?$deque@ULagRecord_t@@V?$allocator@ULagRecord_t@@@std@@@std@@AAEXV?$_Deque_unchecked_const_iterator@V?$_Deque_val@U?$_Deque_simple_types@ULagRecord_t@@@std@@@std@@@1@0@Z 000000001002cad0     AutoStop.obj
 0001:0002bc20       ?_Growmap@?$deque@ULagRecord_t@@V?$allocator@ULagRecord_t@@@std@@@std@@AAEXI@Z 000000001002cc20     AutoStop.obj
 0001:0002bdb0       ?_Xlen@?$deque@ULagRecord_t@@V?$allocator@ULagRecord_t@@@std@@@std@@ABEXXZ 000000001002cdb0     AutoStop.obj
 0001:0002bdc0       ??$_Emplace_reallocate@UTempTarget_t@@@?$vector@UTempTarget_t@@V?$allocator@UTempTarget_t@@@std@@@std@@QAEPAUTempTarget_t@@QAU2@$$QAU2@@Z 000000001002cdc0     AutoStop.obj
 0001:0002bfb0       ??$swap@UTempTarget_t@@$0A@@std@@YAXAAUTempTarget_t@@0@Z 000000001002cfb0     AutoStop.obj
 0001:0002c6c0       ?CacheWeaponData@C_AutoWall@@UAEXXZ 000000001002d6c0     Autowall.obj
 0001:0002c8e0       ?HandleBulletPenetration@C_AutoWall@@UAE_NPAUPenetrationData_t@@@Z 000000001002d8e0     Autowall.obj
 0001:0002cf70       ?TraceToExit@C_AutoWall@@UAE_NPAUPenetrationData_t@@ABVVector@@PAVCGameTrace@@2@Z 000000001002df70     Autowall.obj
 0001:0002d4f0       ?DidHitNonWorldEntity@CGameTrace@@QBE_NXZ 000000001002e4f0     Autowall.obj
 0001:0002d520       ?IsPenetrablePoint@C_AutoWall@@UAE_NABVVector@@0@Z 000000001002e520     Autowall.obj
 0001:0002dc10       ?SimulateFireBullet@C_AutoWall@@UAE_NPAUPenetrationData_t@@@Z 000000001002ec10     Autowall.obj
 0001:0002e570       ?ScaleDamage@C_AutoWall@@UAEXVCGameTrace@@AAM@Z 000000001002f570     Autowall.obj
 0001:0002f1d0       ?IsArmored@C_AutoWall@@UAE_NPAVC_BasePlayer@@ABH@Z 00000000100301d0     Autowall.obj
 0001:0002f650       ?ClipTraceToPlayers@C_AutoWall@@UAEXABVVector@@0PAVCGameTrace@@PAVCTraceFilter@@I@Z 0000000010030650     Autowall.obj
 0001:0002fff0       ?ScanPoint@C_AutoWall@@SAXPAUPenetrationData_t@@@Z 0000000010030ff0     Autowall.obj
 0001:00030080       ?GetPointDirection@C_AutoWall@@UAE?AVVector@@ABV2@0@Z 0000000010031080     Autowall.obj
 0001:000304c0       ?DidHitWorld@CGameTrace@@QBE_NXZ 00000000100314c0     Autowall.obj
 0001:00030740       ?Instance@C_LagCompensation@@UAEXW4ClientFrameStage_t@@@Z 0000000010031740     LagCompensation.obj
 0001:00031340       ?HandleTickbaseShift@C_LagCompensation@@UAEXPAVC_BasePlayer@@PAULagRecord_t@@@Z 0000000010032340     LagCompensation.obj
 0001:00031510       ?ForcePlayerRecord@C_LagCompensation@@UAEXPAVC_BasePlayer@@PAULagRecord_t@@@Z 0000000010032510     LagCompensation.obj
 0001:00031d40       ?GetLerpTime@C_LagCompensation@@UAEMXZ 0000000010032d40     LagCompensation.obj
 0001:00031f40       ?StoreRecordData@C_LagCompensation@@UAEXPAVC_BasePlayer@@PAULagRecord_t@@1@Z 0000000010032f40     LagCompensation.obj
 0001:00033620       ?InterpolatePlayers@C_LagCompensation@@UAEXXZ 0000000010034620     LagCompensation.obj
 0001:00034080       ?InvalidatePlayer@C_LagCompensation@@UAEXPAVC_BasePlayer@@@Z 0000000010035080     LagCompensation.obj
 0001:00034120       ?CleanPlayer@C_LagCompensation@@UAEXPAVC_BasePlayer@@@Z 0000000010035120     LagCompensation.obj
 0001:00034160       ?WasPlayerDataChanged@C_LagCompensation@@UAE_NPAVC_BasePlayer@@PAULagRecord_t@@@Z 0000000010035160     LagCompensation.obj
 0001:000344b0       ?StartLagCompensation@C_LagCompensation@@UAEXXZ 00000000100354b0     LagCompensation.obj
 0001:00034e40       ?FinishLagCompensation@C_LagCompensation@@UAEXXZ 0000000010035e40     LagCompensation.obj
 0001:00035820       ?GetRecordPriority@C_LagCompensation@@UAEHPAULagRecord_t@@@Z 0000000010036820     LagCompensation.obj
 0001:00035880       ?GetBacktrackMatrix@C_LagCompensation@@UAE_NPAVC_BasePlayer@@PAVmatrix3x4_t@@@Z 0000000010036880     LagCompensation.obj
 0001:00035b60       ?IsRecordValid@C_LagCompensation@@UAE_NPAVC_BasePlayer@@PAULagRecord_t@@@Z 0000000010036b60     LagCompensation.obj
 0001:00035bc0       ?IsTimeValid@C_LagCompensation@@UAE_NMH@Z 0000000010036bc0     LagCompensation.obj
 0001:00035f30       ?OnCreateMove@C_LocalAnimations@@UAEXXZ 0000000010036f30     LocalAnimations.obj
 0001:000397f0       ?CopyPlayerAnimationData@C_LocalAnimations@@UAEX_N@Z 000000001003a7f0     LocalAnimations.obj
 0001:00039930       ?UpdateDesyncAnimations@C_LocalAnimations@@UAEXXZ 000000001003a930     LocalAnimations.obj
 0001:0003c300       ?SimulateStrafe@C_LocalAnimations@@UAEXH@Z 000000001003d300     LocalAnimations.obj
 0001:0003c770       ?DoAnimationEvent@C_LocalAnimations@@UAEXH_N@Z 000000001003d770     LocalAnimations.obj
 0001:0003ce80       ?StoreAnimationRecord@C_LocalAnimations@@UAEXXZ 000000001003de80     LocalAnimations.obj
 0001:0003dd20       ?BeforePrediction@C_LocalAnimations@@UAEXXZ 000000001003ed20     LocalAnimations.obj
 0001:0003dfd0       ?SetupShootPosition@C_LocalAnimations@@UAEXXZ 000000001003efd0     LocalAnimations.obj
 0001:0003f7a0       ?SetupPlayerBones@C_LocalAnimations@@UAEXPAVmatrix3x4_t@@H@Z 00000000100407a0     LocalAnimations.obj
 0001:0003fef0       ?ModifyEyePosition@C_LocalAnimations@@UAEXAAVVector@@PAVmatrix3x4_t@@@Z 0000000010040ef0     LocalAnimations.obj
 0001:0003ff80       ?InterpolateMatricies@C_LocalAnimations@@UAEXXZ 0000000010040f80     LocalAnimations.obj
 0001:00040020       ?TransformateMatricies@C_LocalAnimations@@UAEXXZ 0000000010041020     LocalAnimations.obj
 0001:000401d0       ?CopyCachedMatrix@C_LocalAnimations@@UAE_NPAVmatrix3x4_t@@H@Z 00000000100411d0     LocalAnimations.obj
 0001:00040200       ?CleanSnapshots@C_LocalAnimations@@UAEXXZ 0000000010041200     LocalAnimations.obj
 0001:00040230       ?ResetData@C_LocalAnimations@@UAEXXZ 0000000010041230     LocalAnimations.obj
 0001:00040810       ??__Eg_InventoryChanger@@YAXXZ 0000000010041810     LocalAnimations.obj
 0001:00040a10       ?SetupConfiguration@C_RageBot@@UAEXXZ 0000000010041a10     RageBot.obj
 0001:00040fc0       ?Instance@C_RageBot@@UAEXXZ 0000000010041fc0     RageBot.obj
 0001:00044ca0       ?FindTarget@C_RageBot@@UAEXABVVector@@@Z 0000000010045ca0     RageBot.obj
 0001:00046340       ?ComputePointsPriority@C_RageBot@@UAEXPAVC_BasePlayer@@PAULagRecord_t@@AAV?$vector@UPointData_t@@V?$allocator@UPointData_t@@@std@@@std@@@Z 0000000010047340     RageBot.obj
 0001:00047210       ?CalculateTargetPoint@C_RageBot@@UAE?AUAimPointData_t@@PAVC_BasePlayer@@ABVVector@@PAULagRecord_t@@@Z 0000000010048210     RageBot.obj
 0001:0004a710       ?FindBestRecord@C_LagCompensation@@UAE?AULagRecord_t@@PAVC_BasePlayer@@V?$deque@ULagRecord_t@@V?$allocator@ULagRecord_t@@@std@@@std@@AAHABM@Z 000000001004b710     RageBot.obj
 0001:0004ab40       ?FindFirstRecord@C_LagCompensation@@UAE?AULagRecord_t@@PAVC_BasePlayer@@V?$deque@ULagRecord_t@@V?$allocator@ULagRecord_t@@@std@@@std@@@Z 000000001004bb40     RageBot.obj
 0001:0004ada0       ?GetHitboxData@C_RageBot@@UAE?AUHitboxData_t@@PAVC_BasePlayer@@PAVmatrix3x4_t@@H@Z 000000001004bda0     RageBot.obj
 0001:0004b160       ?DebugDrawData@C_RageBot@@QAEXPAVC_BasePlayer@@@Z 000000001004c160     RageBot.obj
 0001:0004b170       ?CollidePoint@C_RageBot@@UAE_NABVVector@@0PAUmstudiobbox_t@@PAVmatrix3x4_t@@@Z 000000001004c170     RageBot.obj
 0001:0004b2c0       ?ThreadedCollisionFunc@C_RageBot@@SAXPAUCollisionData_t@@@Z 000000001004c2c0     RageBot.obj
 0001:0004b2f0       ?IsSafePoint@C_RageBot@@UAE_NPAVC_BasePlayer@@PAULagRecord_t@@ABVVector@@2UHitboxData_t@@@Z 000000001004c2f0     RageBot.obj
 0001:0004b610       ?GetHitchance@C_RageBot@@UAEMXZ 000000001004c610     RageBot.obj
 0001:0004c8a0       ?GetAccuracy@C_RageBot@@UAEMXZ 000000001004d8a0     RageBot.obj
 0001:0004c8b0       ?OnVelocityModifierProxy@C_RageBot@@UAEXM@Z 000000001004d8b0     RageBot.obj
 0001:0004c8e0       ?HasMaximumAccuracy@C_RageBot@@UAE_NPAVC_BaseCombatWeapon@@M@Z 000000001004d8e0     RageBot.obj
 0001:0004ccc0       ?ShouldRunAutoStop@C_RageBot@@UAE_NPAVC_BaseCombatWeapon@@@Z 000000001004dcc0     RageBot.obj
 0001:00050040       ??__Eg_Revolver@@YAXXZ     0000000010051040     RageBot.obj
 0001:00050070       ??__Eg_ShotChams@@YAXXZ    0000000010051070     RageBot.obj
 0001:000500a0       ??$emplace_front@$$V@?$deque@URageShot_t@@V?$allocator@URageShot_t@@@std@@@std@@QAE?A?<decltype-auto>@@XZ 00000000100510a0     RageBot.obj
 0001:00050270       ?ResetData@C_Revolver@@UAEXXZ 0000000010051270     RageBot.obj
 0001:00050280       ?ClearData@C_ShotChams@@UAEXXZ 0000000010051280     RageBot.obj
 0001:00050290       ?_Growmap@?$deque@URageShot_t@@V?$allocator@URageShot_t@@@std@@@std@@AAEXI@Z 0000000010051290     RageBot.obj
 0001:00050420       ?_Xlen@?$deque@URageShot_t@@V?$allocator@URageShot_t@@@std@@@std@@ABEXXZ 0000000010051420     RageBot.obj
 0001:00050430       ??$_Emplace_reallocate@$$V@?$vector@UPenetrationData_t@@V?$allocator@UPenetrationData_t@@@std@@@std@@QAEPAUPenetrationData_t@@QAU2@@Z 0000000010051430     RageBot.obj
 0001:000509e0       ?_Umove@?$vector@UPenetrationData_t@@V?$allocator@UPenetrationData_t@@@std@@@std@@AAEPAUPenetrationData_t@@PAU3@00@Z 00000000100519e0     RageBot.obj
 0001:00050cb0       ?deallocate@?$allocator@UPenetrationData_t@@@std@@QAEXQAUPenetrationData_t@@I@Z 0000000010051cb0     RageBot.obj
 0001:00050cf0       ??0?$basic_string@DU?$char_traits@D@std@@V?$allocator@D@2@@std@@QAE@U_String_constructor_concat_tag@1@AAV01@1@Z 0000000010051cf0     RageBot.obj
 0001:00050eb0       ??$_Emplace_reallocate@UPointData_t@@@?$vector@UPointData_t@@V?$allocator@UPointData_t@@@std@@@std@@QAEPAUPointData_t@@QAU2@$$QAU2@@Z 0000000010051eb0     RageBot.obj
 0001:00051090       ??4PenetrationData_t@@QAEAAU0@$$QAU0@@Z 0000000010052090     RageBot.obj
 0001:00051360       ??$swap@UPenetrationData_t@@$0A@@std@@YAXAAUPenetrationData_t@@0@Z 0000000010052360     RageBot.obj
 0001:000517e0       ?HandleMiss@C_Resolver@@UAEXPAVC_BasePlayer@@PAULagRecord_t@@@Z 00000000100527e0     Resolver.obj
 0001:000517f0       ?CorrectAnimations@C_Resolver@@UAEXPAVC_BasePlayer@@PAULagRecord_t@@1@Z 00000000100527f0     Resolver.obj
 0001:00051800       ?BuildMoveYaw@C_Resolver@@UAEMPAVC_BasePlayer@@M@Z 0000000010052800     Resolver.obj
 0001:00052150       ?OnBulletImpact@C_ShotSystem@@UAEXPAVIGameEvent@@@Z 0000000010053150     Shots.obj
 0001:00052290       ?OnPlayerHurt@C_ShotSystem@@UAEXPAVIGameEvent@@@Z 0000000010053290     Shots.obj
 0001:00052760       ?OnFrameStageNotify@C_ShotSystem@@UAEXW4ClientFrameStage_t@@@Z 0000000010053760     Shots.obj
 0001:000573c0       ??__Eg_HitMarkers@@YAXXZ   00000000100583c0     Shots.obj
 0001:000573f0       ??__Eg_LogManager@@YAXXZ   00000000100583f0     Shots.obj
 0001:000574a0       ?erase@?$deque@URageShot_t@@V?$allocator@URageShot_t@@@std@@@std@@QAE?AV?$_Deque_iterator@V?$_Deque_val@U?$_Deque_simple_types@URageShot_t@@@std@@@std@@@2@V?$_Deque_const_iterator@V?$_Deque_val@U?$_Deque_simple_types@URageShot_t@@@std@@@std@@@2@@Z 00000000100584a0     Shots.obj
 0001:000574f0       ??4RageShot_t@@QAEAAU0@$$QAU0@@Z 00000000100584f0     Shots.obj
 0001:00057910       ??$swap@URageShot_t@@$0A@@std@@YAXAAURageShot_t@@0@Z 0000000010058910     Shots.obj
 0001:00057b20       ??$_Emplace_reallocate@ABVVector@@@?$vector@VVector@@V?$allocator@VVector@@@std@@@std@@QAEPAVVector@@QAV2@ABV2@@Z 0000000010058b20     Shots.obj
 0001:00057d00       ?erase@?$deque@URageShot_t@@V?$allocator@URageShot_t@@@std@@@std@@QAE?AV?$_Deque_iterator@V?$_Deque_val@U?$_Deque_simple_types@URageShot_t@@@std@@@std@@@2@V?$_Deque_const_iterator@V?$_Deque_val@U?$_Deque_simple_types@URageShot_t@@@std@@@std@@@2@0@Z 0000000010058d00     Shots.obj
 0001:00057ec0       ?pop_front@?$deque@URageShot_t@@V?$allocator@URageShot_t@@@std@@@std@@QAEXXZ 0000000010058ec0     Shots.obj
 0001:00057f90       ?pop_back@?$deque@URageShot_t@@V?$allocator@URageShot_t@@@std@@@std@@QAEXXZ 0000000010058f90     Shots.obj
 0001:00058260       ?OnRunCommand@C_Revolver@@UAEXXZ 0000000010059260     Revolver.obj
 0001:00058910       ?OnCreateMove@C_Revolver@@UAEXXZ 0000000010059910     Revolver.obj
 0001:00059180       ?ModifyOrigin@C_ViewmodelAnimation@@UAEXXZ 000000001005a180     Viewmodel.obj
 0001:00059d60       ?ResolveSequences@C_ViewmodelAnimation@@UAEXXZ 000000001005ad60     Viewmodel.obj
 0001:00059d70       ?SaveViewmodelData@C_ViewmodelAnimation@@UAEXXZ 000000001005ad70     Viewmodel.obj
 0001:0005a630       ?ForceViewmodelData@C_ViewmodelAnimation@@UAEXXZ 000000001005b630     Viewmodel.obj
 0001:0005af30       ?_Assign_grow@?$_Hash_vec@V?$allocator@V?$_List_unchecked_iterator@V?$_List_val@U?$_List_simple_types@U?$pair@$$CBV?$basic_string@DU?$char_traits@D@std@@V?$allocator@D@2@@std@@M@std@@@std@@@std@@@std@@@std@@@std@@QAEXIV?$_List_unchecked_iterator@V?$_List_val@U?$_List_simple_types@U?$pair@$$CBV?$basic_string@DU?$char_traits@D@std@@V?$allocator@D@2@@std@@M@std@@@std@@@std@@@2@@Z 000000001005bf30     Viewmodel.obj
 0001:0005b250       ??$_Try_emplace@V?$basic_string@DU?$char_traits@D@std@@V?$allocator@D@2@@std@@$$V@?$_Hash@V?$_Umap_traits@V?$basic_string@DU?$char_traits@D@std@@V?$allocator@D@2@@std@@MV?$_Uhash_compare@V?$basic_string@DU?$char_traits@D@std@@V?$allocator@D@2@@std@@U?$hash@V?$basic_string@DU?$char_traits@D@std@@V?$allocator@D@2@@std@@@2@U?$equal_to@V?$basic_string@DU?$char_traits@D@std@@V?$allocator@D@2@@std@@@2@@2@V?$allocator@U?$pair@$$CBV?$basic_string@DU?$char_traits@D@std@@V?$allocator@D@2@@std@@M@std@@@2@$0A@@std@@@std@@IAE?AU?$pair@PAU?$_List_node@U?$pair@$$CBV?$basic_string@DU?$char_traits@D@std@@V?$allocator@D@2@@std@@M@std@@PAX@std@@_N@1@$$QAV?$basic_string@DU?$char_traits@D@std@@V?$allocator@D@2@@1@@Z 000000001005c250     Viewmodel.obj
 0001:0005b620       ?_Forced_rehash@?$_Hash@V?$_Umap_traits@V?$basic_string@DU?$char_traits@D@std@@V?$allocator@D@2@@std@@MV?$_Uhash_compare@V?$basic_string@DU?$char_traits@D@std@@V?$allocator@D@2@@std@@U?$hash@V?$basic_string@DU?$char_traits@D@std@@V?$allocator@D@2@@std@@@2@U?$equal_to@V?$basic_string@DU?$char_traits@D@std@@V?$allocator@D@2@@std@@@2@@2@V?$allocator@U?$pair@$$CBV?$basic_string@DU?$char_traits@D@std@@V?$allocator@D@2@@std@@M@std@@@2@$0A@@std@@@std@@IAEXI@Z 000000001005c620     Viewmodel.obj
 0001:0005b8c0       ??1_Clear_guard@?$_Hash@V?$_Umap_traits@V?$basic_string@DU?$char_traits@D@std@@V?$allocator@D@2@@std@@MV?$_Uhash_compare@V?$basic_string@DU?$char_traits@D@std@@V?$allocator@D@2@@std@@U?$hash@V?$basic_string@DU?$char_traits@D@std@@V?$allocator@D@2@@std@@@2@U?$equal_to@V?$basic_string@DU?$char_traits@D@std@@V?$allocator@D@2@@std@@@2@@2@V?$allocator@U?$pair@$$CBV?$basic_string@DU?$char_traits@D@std@@V?$allocator@D@2@@std@@M@std@@@2@$0A@@std@@@std@@QAE@XZ 000000001005c8c0     Viewmodel.obj
 0001:0005bab0       ?_Unchecked_erase@?$_Hash@V?$_Umap_traits@V?$basic_string@DU?$char_traits@D@std@@V?$allocator@D@2@@std@@MV?$_Uhash_compare@V?$basic_string@DU?$char_traits@D@std@@V?$allocator@D@2@@std@@U?$hash@V?$basic_string@DU?$char_traits@D@std@@V?$allocator@D@2@@std@@@2@U?$equal_to@V?$basic_string@DU?$char_traits@D@std@@V?$allocator@D@2@@std@@@2@@2@V?$allocator@U?$pair@$$CBV?$basic_string@DU?$char_traits@D@std@@V?$allocator@D@2@@std@@M@std@@@2@$0A@@std@@@std@@AAEPAU?$_List_node@U?$pair@$$CBV?$basic_string@DU?$char_traits@D@std@@V?$allocator@D@2@@std@@M@std@@PAX@2@PAU32@QAU32@@Z 000000001005cab0     Viewmodel.obj
 0001:0005bfe0       ?get_wearable_create_fn@@YAP6APAVIClientNetworkable@@HH@ZXZ 000000001005cfe0     InventoryChanger.obj
 0001:0005c0f0       ?SequenceRemapping@C_InventoryChanger@@UAEXPAVCRecvProxyData@@PAVC_BaseViewmodel@@@Z 000000001005d0f0     InventoryChanger.obj
 0001:0005ca90       ?GetNewAnimation@C_InventoryChanger@@UAEHIH@Z 000000001005da90     InventoryChanger.obj
 0001:0005cc80       ?ApplyGlove@C_InventoryChanger@@UAEXPAVIPlayerInventory@@UPlayerInfo_t@@@Z 000000001005dc80     InventoryChanger.obj
 0001:0005daf0       ?ApplyWeapons@C_InventoryChanger@@UAEXPAVIPlayerInventory@@UPlayerInfo_t@@@Z 000000001005eaf0     InventoryChanger.obj
 0001:0005e580       ?ApplyKnifes@C_InventoryChanger@@UAEXPAVIPlayerInventory@@UPlayerInfo_t@@@Z 000000001005f580     InventoryChanger.obj
 0001:0005f800       ?ApplyMedals@C_InventoryChanger@@UAEXPAVIPlayerInventory@@@Z 0000000010060800     InventoryChanger.obj
 0001:0005f870       ?ApplyMusic@C_InventoryChanger@@UAEXPAVIPlayerInventory@@@Z 0000000010060870     InventoryChanger.obj
 0001:0005f9d0       ?ApplyAgents@C_InventoryChanger@@UAEXPAVIPlayerInventory@@W4ClientFrameStage_t@@@Z 00000000100609d0     InventoryChanger.obj
 0001:0005fe80       ?AddItemToInventory@C_InventoryChanger@@UAEXPAVIPlayerInventory@@UInventoryItem_t@@_NV?$basic_string@DU?$char_traits@D@std@@V?$allocator@D@2@@std@@@Z 0000000010060e80     InventoryChanger.obj
 0001:00060f30       ?OnPostDataUpdateStart@C_InventoryChanger@@UAEXPAVIPlayerInventory@@@Z 0000000010061f30     InventoryChanger.obj
 0001:00061580       ?OnSoUpdated@C_InventoryChanger@@UAEXPAVC_SharedObject@@H@Z 0000000010062580     InventoryChanger.obj
 0001:000615c0       ?OnEquipItemInLoadOut@C_InventoryChanger@@UAEXHH_K@Z 00000000100625c0     InventoryChanger.obj
 0001:000618a0       ?OnFrameStageNotify@C_InventoryChanger@@UAEXW4ClientFrameStage_t@@@Z 00000000100628a0     InventoryChanger.obj
 0001:00061940       ?OnEvent@C_InventoryChanger@@UAEXPAVIGameEvent@@@Z 0000000010062940     InventoryChanger.obj
 0001:00061c00       ?ChangeHudIcons@C_InventoryChanger@@UAEXPAVIPlayerInventory@@PAVIGameEvent@@@Z 0000000010062c00     InventoryChanger.obj
 0001:00061fa0       ?LiveStatTrack@C_InventoryChanger@@UAEXPAVIPlayerInventory@@PAVIGameEvent@@@Z 0000000010062fa0     InventoryChanger.obj
 0001:000626a0       ??__Eg_ItemManager@@YAXXZ  00000000100636a0     InventoryChanger.obj
 0001:000626c0       ??0C_ItemManager@@QAE@XZ   00000000100636c0     InventoryChanger.obj
 0001:00062a40       ??1C_ItemManager@@QAE@XZ   0000000010063a40     InventoryChanger.obj
 0001:00062ec0       ?GetAttributes@C_EconItem@@QAE?AV?$vector@Uecon_attirbute@@V?$allocator@Uecon_attirbute@@@std@@@std@@XZ 0000000010063ec0     InventoryChanger.obj
 0001:00063060       ?GetLastValueID@IPlayerInventory@@QAE_KXZ 0000000010064060     InventoryChanger.obj
 0001:00063130       ??$emplace@AA_KAAUInventoryItem_t@@@?$_Hash@V?$_Umap_traits@_KUInventoryItem_t@@V?$_Uhash_compare@_KU?$hash@_K@std@@U?$equal_to@_K@2@@std@@V?$allocator@U?$pair@$$CB_KUInventoryItem_t@@@std@@@3@$0A@@std@@@std@@QAE?AU?$pair@V?$_List_iterator@V?$_List_val@U?$_List_simple_types@U?$pair@$$CB_KUInventoryItem_t@@@std@@@std@@@std@@@std@@_N@1@AA_KAAUInventoryItem_t@@@Z 0000000010064130     InventoryChanger.obj
 0001:00063610       ?_Assign_grow@?$_Hash_vec@V?$allocator@V?$_List_unchecked_iterator@V?$_List_val@U?$_List_simple_types@U?$pair@$$CB_KUInventoryItem_t@@@std@@@std@@@std@@@std@@@std@@@std@@QAEXIV?$_List_unchecked_iterator@V?$_List_val@U?$_List_simple_types@U?$pair@$$CB_KUInventoryItem_t@@@std@@@std@@@std@@@2@@Z 0000000010064610     InventoryChanger.obj
 0001:00063930       ??0?$_Hash@V?$_Umap_traits@IPAVC_EconItemDefinition@@V?$_Uhash_compare@IU?$hash@I@std@@U?$equal_to@I@2@@std@@V?$allocator@U?$pair@$$CBIPAVC_EconItemDefinition@@@std@@@3@$0A@@std@@@std@@IAE@ABV?$_Uhash_compare@IU?$hash@I@std@@U?$equal_to@I@2@@1@ABV?$allocator@U?$pair@$$CBIPAVC_EconItemDefinition@@@std@@@1@@Z 0000000010064930     InventoryChanger.obj
 0001:00063a90       ?_Assign_grow@?$_Hash_vec@V?$allocator@V?$_List_unchecked_iterator@V?$_List_val@U?$_List_simple_types@U?$pair@$$CBIPAVC_EconItemDefinition@@@std@@@std@@@std@@@std@@@std@@@std@@QAEXIV?$_List_unchecked_iterator@V?$_List_val@U?$_List_simple_types@U?$pair@$$CBIPAVC_EconItemDefinition@@@std@@@std@@@std@@@2@@Z 0000000010064a90     InventoryChanger.obj
 0001:00063db0       ??0?$_Hash@V?$_Umap_traits@IPAUC_EconPaintKitDefinition@@V?$_Uhash_compare@IU?$hash@I@std@@U?$equal_to@I@2@@std@@V?$allocator@U?$pair@$$CBIPAUC_EconPaintKitDefinition@@@std@@@3@$0A@@std@@@std@@IAE@ABV?$_Uhash_compare@IU?$hash@I@std@@U?$equal_to@I@2@@1@ABV?$allocator@U?$pair@$$CBIPAUC_EconPaintKitDefinition@@@std@@@1@@Z 0000000010064db0     InventoryChanger.obj
 0001:00063f10       ?_Assign_grow@?$_Hash_vec@V?$allocator@V?$_List_unchecked_iterator@V?$_List_val@U?$_List_simple_types@U?$pair@$$CBIPAUC_EconPaintKitDefinition@@@std@@@std@@@std@@@std@@@std@@@std@@QAEXIV?$_List_unchecked_iterator@V?$_List_val@U?$_List_simple_types@U?$pair@$$CBIPAUC_EconPaintKitDefinition@@@std@@@std@@@std@@@2@@Z 0000000010064f10     InventoryChanger.obj
 0001:00064230       ??0?$_Hash@V?$_Umap_traits@IPAUC_EconStickerDefinition@@V?$_Uhash_compare@IU?$hash@I@std@@U?$equal_to@I@2@@std@@V?$allocator@U?$pair@$$CBIPAUC_EconStickerDefinition@@@std@@@3@$0A@@std@@@std@@IAE@ABV?$_Uhash_compare@IU?$hash@I@std@@U?$equal_to@I@2@@1@ABV?$allocator@U?$pair@$$CBIPAUC_EconStickerDefinition@@@std@@@1@@Z 0000000010065230     InventoryChanger.obj
 0001:00064390       ??0?$_Hash@V?$_Umap_traits@IPAUC_EconMusicDefinition@@V?$_Uhash_compare@IU?$hash@I@std@@U?$equal_to@I@2@@std@@V?$allocator@U?$pair@$$CBIPAUC_EconMusicDefinition@@@std@@@3@$0A@@std@@@std@@IAE@ABV?$_Uhash_compare@IU?$hash@I@std@@U?$equal_to@I@2@@1@ABV?$allocator@U?$pair@$$CBIPAUC_EconMusicDefinition@@@std@@@1@@Z 0000000010065390     InventoryChanger.obj
 0001:000644f0       ??0?$_Hash@V?$_Umap_traits@IV?$vector@PAUC_EconPaintKitDefinition@@V?$allocator@PAUC_EconPaintKitDefinition@@@std@@@std@@V?$_Uhash_compare@IU?$hash@I@std@@U?$equal_to@I@2@@2@V?$allocator@U?$pair@$$CBIV?$vector@PAUC_EconPaintKitDefinition@@V?$allocator@PAUC_EconPaintKitDefinition@@@std@@@std@@@std@@@2@$0A@@std@@@std@@IAE@ABV?$_Uhash_compare@IU?$hash@I@std@@U?$equal_to@I@2@@1@ABV?$allocator@U?$pair@$$CBIV?$vector@PAUC_EconPaintKitDefinition@@V?$allocator@PAUC_EconPaintKitDefinition@@@std@@@std@@@std@@@1@@Z 00000000100654f0     InventoryChanger.obj
 0001:00064630       ?_Tidy@?$list@U?$pair@$$CBIV?$vector@PAUC_EconPaintKitDefinition@@V?$allocator@PAUC_EconPaintKitDefinition@@@std@@@std@@@std@@V?$allocator@U?$pair@$$CBIV?$vector@PAUC_EconPaintKitDefinition@@V?$allocator@PAUC_EconPaintKitDefinition@@@std@@@std@@@std@@@2@@std@@AAEXXZ 0000000010065630     InventoryChanger.obj
 0001:000646b0       ??$fnvHashConst@$0O@@FnvHash@@CAIAAY0O@$$CBDI@Z 00000000100656b0     InventoryChanger.obj
 0001:000646f0       ??$fnvHashConst@$0BB@@FnvHash@@CAIAAY0BB@$$CBDI@Z 00000000100656f0     InventoryChanger.obj
 0001:00064730       ??$_Emplace_reallocate@ABUecon_attirbute@@@?$vector@Uecon_attirbute@@V?$allocator@Uecon_attirbute@@@std@@@std@@QAEPAUecon_attirbute@@QAU2@ABU2@@Z 0000000010065730     InventoryChanger.obj
 0001:000648a0       ??$fnvHashConst@$0BD@@FnvHash@@CAIAAY0BD@$$CBDI@Z 00000000100658a0     InventoryChanger.obj
 0001:000648e0       ?GetEconItems@C_SharedObjectTypeCache@@QAE?AV?$vector@PAUC_EconItem@@V?$allocator@PAUC_EconItem@@@std@@@std@@XZ 00000000100658e0     InventoryChanger.obj
 0001:00064a10       ??$_Emplace_reallocate@PAUC_EconItem@@@?$vector@PAUC_EconItem@@V?$allocator@PAUC_EconItem@@@std@@@std@@QAEPAPAUC_EconItem@@QAPAU2@$$QAPAU2@@Z 0000000010065a10     InventoryChanger.obj
 0001:00064b60       ??$fnvHashConst@$0M@@FnvHash@@CAIAAY0M@$$CBDI@Z 0000000010065b60     InventoryChanger.obj
 0001:00064ba0       ?GetRoot@C_Panorama@@AAEPAVIUIPanel@@XZ 0000000010065ba0     InventoryChanger.obj
 0001:00064d90       ??$fnvHashConst@$07@FnvHash@@CAIAAY07$$CBDI@Z 0000000010065d90     InventoryChanger.obj
 0001:00064dd0       ??$fnvHashConst@$0N@@FnvHash@@CAIAAY0N@$$CBDI@Z 0000000010065dd0     InventoryChanger.obj
 0001:00064e10       ??$fnvHashConst@$0BH@@FnvHash@@CAIAAY0BH@$$CBDI@Z 0000000010065e10     InventoryChanger.obj
 0001:00064e50       ??$_Try_emplace@I$$V@?$_Hash@V?$_Umap_traits@IPAVC_EconItemDefinition@@V?$_Uhash_compare@IU?$hash@I@std@@U?$equal_to@I@2@@std@@V?$allocator@U?$pair@$$CBIPAVC_EconItemDefinition@@@std@@@3@$0A@@std@@@std@@IAE?AU?$pair@PAU?$_List_node@U?$pair@$$CBIPAVC_EconItemDefinition@@@std@@PAX@std@@_N@1@$$QAI@Z 0000000010065e50     InventoryChanger.obj
 0001:000650d0       ?_Forced_rehash@?$_Hash@V?$_Umap_traits@IPAVC_EconItemDefinition@@V?$_Uhash_compare@IU?$hash@I@std@@U?$equal_to@I@2@@std@@V?$allocator@U?$pair@$$CBIPAVC_EconItemDefinition@@@std@@@3@$0A@@std@@@std@@IAEXI@Z 00000000100660d0     InventoryChanger.obj
 0001:00065240       ??$_Try_emplace@I$$V@?$_Hash@V?$_Umap_traits@IPAUC_EconPaintKitDefinition@@V?$_Uhash_compare@IU?$hash@I@std@@U?$equal_to@I@2@@std@@V?$allocator@U?$pair@$$CBIPAUC_EconPaintKitDefinition@@@std@@@3@$0A@@std@@@std@@IAE?AU?$pair@PAU?$_List_node@U?$pair@$$CBIPAUC_EconPaintKitDefinition@@@std@@PAX@std@@_N@1@$$QAI@Z 0000000010066240     InventoryChanger.obj
 0001:000654c0       ?_Forced_rehash@?$_Hash@V?$_Umap_traits@IPAUC_EconPaintKitDefinition@@V?$_Uhash_compare@IU?$hash@I@std@@U?$equal_to@I@2@@std@@V?$allocator@U?$pair@$$CBIPAUC_EconPaintKitDefinition@@@std@@@3@$0A@@std@@@std@@IAEXI@Z 00000000100664c0     InventoryChanger.obj
 0001:00065630       ?_Forced_rehash@?$_Hash@V?$_Umap_traits@_KUInventoryItem_t@@V?$_Uhash_compare@_KU?$hash@_K@std@@U?$equal_to@_K@2@@std@@V?$allocator@U?$pair@$$CB_KUInventoryItem_t@@@std@@@3@$0A@@std@@@std@@IAEXI@Z 0000000010066630     InventoryChanger.obj
 0001:00065850       ??1_Clear_guard@?$_Hash@V?$_Umap_traits@_KUInventoryItem_t@@V?$_Uhash_compare@_KU?$hash@_K@std@@U?$equal_to@_K@2@@std@@V?$allocator@U?$pair@$$CB_KUInventoryItem_t@@@std@@@3@$0A@@std@@@std@@QAE@XZ 0000000010066850     InventoryChanger.obj
 0001:00065a40       ?_Unchecked_erase@?$_Hash@V?$_Umap_traits@_KUInventoryItem_t@@V?$_Uhash_compare@_KU?$hash@_K@std@@U?$equal_to@_K@2@@std@@V?$allocator@U?$pair@$$CB_KUInventoryItem_t@@@std@@@3@$0A@@std@@@std@@AAEPAU?$_List_node@U?$pair@$$CB_KUInventoryItem_t@@@std@@PAX@2@PAU32@QAU32@@Z 0000000010066a40     InventoryChanger.obj
 0001:00065f70       ?Initialize@C_ItemManager@@QAEXXZ 0000000010066f70     ItemsManager.obj
 0001:000668c0       ?ToUtf8@@YA?AV?$basic_string@DU?$char_traits@D@std@@V?$allocator@D@2@@std@@V?$basic_string_view@_WU?$char_traits@_W@std@@@2@@Z 00000000100678c0     ItemsManager.obj
 0001:000669c0       ?LocalizeTex@@YA?AV?$basic_string@DU?$char_traits@D@std@@V?$allocator@D@2@@std@@PBD@Z 00000000100679c0     ItemsManager.obj
 0001:00066a60       ?ImagePrecache@C_ItemManager@@QAEXXZ 0000000010067a60     ItemsManager.obj
 0001:00067cd0       ?GetSkin@C_ItemManager@@QAEPAUIDirect3DTexture9@@V?$basic_string@DU?$char_traits@D@std@@V?$allocator@D@2@@std@@@Z 0000000010068cd0     ItemsManager.obj
 0001:00067e70       ?GetSkinPath@C_ItemManager@@QAE?AV?$basic_string@DU?$char_traits@D@std@@V?$allocator@D@2@@std@@FH@Z 0000000010068e70     ItemsManager.obj
 0001:000692d0       ?_Assign_grow@?$_Hash_vec@V?$allocator@V?$_List_unchecked_iterator@V?$_List_val@U?$_List_simple_types@U?$pair@$$CBIPAUC_EconStickerDefinition@@@std@@@std@@@std@@@std@@@std@@@std@@QAEXIV?$_List_unchecked_iterator@V?$_List_val@U?$_List_simple_types@U?$pair@$$CBIPAUC_EconStickerDefinition@@@std@@@std@@@std@@@2@@Z 000000001006a2d0     ItemsManager.obj
 0001:000695f0       ?_Assign_grow@?$_Hash_vec@V?$allocator@V?$_List_unchecked_iterator@V?$_List_val@U?$_List_simple_types@U?$pair@$$CBIPAUC_EconMusicDefinition@@@std@@@std@@@std@@@std@@@std@@@std@@QAEXIV?$_List_unchecked_iterator@V?$_List_val@U?$_List_simple_types@U?$pair@$$CBIPAUC_EconMusicDefinition@@@std@@@std@@@std@@@2@@Z 000000001006a5f0     ItemsManager.obj
 0001:00069910       ?_Assign_grow@?$_Hash_vec@V?$allocator@V?$_List_unchecked_iterator@V?$_List_val@U?$_List_simple_types@U?$pair@$$CBIV?$vector@PAUC_EconPaintKitDefinition@@V?$allocator@PAUC_EconPaintKitDefinition@@@std@@@std@@@std@@@std@@@std@@@std@@@std@@@std@@QAEXIV?$_List_unchecked_iterator@V?$_List_val@U?$_List_simple_types@U?$pair@$$CBIV?$vector@PAUC_EconPaintKitDefinition@@V?$allocator@PAUC_EconPaintKitDefinition@@@std@@@std@@@std@@@std@@@std@@@2@@Z 000000001006a910     ItemsManager.obj
 0001:00069c30       ??$_Emplace_reallocate@AAPAUC_EconPaintKitDefinition@@@?$vector@PAUC_EconPaintKitDefinition@@V?$allocator@PAUC_EconPaintKitDefinition@@@std@@@std@@QAEPAPAUC_EconPaintKitDefinition@@QAPAU2@AAPAU2@@Z 000000001006ac30     ItemsManager.obj
 0001:00069d80       ?_Xran@?$_String_val@U?$_Simple_types@D@std@@@std@@SAXXZ 000000001006ad80     ItemsManager.obj
 0001:00069d90       ??$_Try_emplace@I$$V@?$_Hash@V?$_Umap_traits@IV?$vector@PAUC_EconPaintKitDefinition@@V?$allocator@PAUC_EconPaintKitDefinition@@@std@@@std@@V?$_Uhash_compare@IU?$hash@I@std@@U?$equal_to@I@2@@2@V?$allocator@U?$pair@$$CBIV?$vector@PAUC_EconPaintKitDefinition@@V?$allocator@PAUC_EconPaintKitDefinition@@@std@@@std@@@std@@@2@$0A@@std@@@std@@IAE?AU?$pair@PAU?$_List_node@U?$pair@$$CBIV?$vector@PAUC_EconPaintKitDefinition@@V?$allocator@PAUC_EconPaintKitDefinition@@@std@@@std@@@std@@PAX@std@@_N@1@$$QAI@Z 000000001006ad90     ItemsManager.obj
 0001:0006a080       ?_Forced_rehash@?$_Hash@V?$_Umap_traits@IV?$vector@PAUC_EconPaintKitDefinition@@V?$allocator@PAUC_EconPaintKitDefinition@@@std@@@std@@V?$_Uhash_compare@IU?$hash@I@std@@U?$equal_to@I@2@@2@V?$allocator@U?$pair@$$CBIV?$vector@PAUC_EconPaintKitDefinition@@V?$allocator@PAUC_EconPaintKitDefinition@@@std@@@std@@@std@@@2@$0A@@std@@@std@@IAEXI@Z 000000001006b080     ItemsManager.obj
 0001:0006a210       ??1_Clear_guard@?$_Hash@V?$_Umap_traits@IV?$vector@PAUC_EconPaintKitDefinition@@V?$allocator@PAUC_EconPaintKitDefinition@@@std@@@std@@V?$_Uhash_compare@IU?$hash@I@std@@U?$equal_to@I@2@@2@V?$allocator@U?$pair@$$CBIV?$vector@PAUC_EconPaintKitDefinition@@V?$allocator@PAUC_EconPaintKitDefinition@@@std@@@std@@@std@@@2@$0A@@std@@@std@@QAE@XZ 000000001006b210     ItemsManager.obj
 0001:0006a3f0       ?_Unchecked_erase@?$_Hash@V?$_Umap_traits@IV?$vector@PAUC_EconPaintKitDefinition@@V?$allocator@PAUC_EconPaintKitDefinition@@@std@@@std@@V?$_Uhash_compare@IU?$hash@I@std@@U?$equal_to@I@2@@2@V?$allocator@U?$pair@$$CBIV?$vector@PAUC_EconPaintKitDefinition@@V?$allocator@PAUC_EconPaintKitDefinition@@@std@@@std@@@std@@@2@$0A@@std@@@std@@AAEPAU?$_List_node@U?$pair@$$CBIV?$vector@PAUC_EconPaintKitDefinition@@V?$allocator@PAUC_EconPaintKitDefinition@@@std@@@std@@@std@@PAX@2@PAU32@QAU32@@Z 000000001006b3f0     ItemsManager.obj
 0001:0006a620       ??$_Try_emplace@ABI$$V@?$_Hash@V?$_Umap_traits@IPAVC_EconItemDefinition@@V?$_Uhash_compare@IU?$hash@I@std@@U?$equal_to@I@2@@std@@V?$allocator@U?$pair@$$CBIPAVC_EconItemDefinition@@@std@@@3@$0A@@std@@@std@@IAE?AU?$pair@PAU?$_List_node@U?$pair@$$CBIPAVC_EconItemDefinition@@@std@@PAX@std@@_N@1@ABI@Z 000000001006b620     ItemsManager.obj
 0001:0006a8a0       ??$_Try_emplace@ABI$$V@?$_Hash@V?$_Umap_traits@IV?$vector@PAUC_EconPaintKitDefinition@@V?$allocator@PAUC_EconPaintKitDefinition@@@std@@@std@@V?$_Uhash_compare@IU?$hash@I@std@@U?$equal_to@I@2@@2@V?$allocator@U?$pair@$$CBIV?$vector@PAUC_EconPaintKitDefinition@@V?$allocator@PAUC_EconPaintKitDefinition@@@std@@@std@@@std@@@2@$0A@@std@@@std@@IAE?AU?$pair@PAU?$_List_node@U?$pair@$$CBIV?$vector@PAUC_EconPaintKitDefinition@@V?$allocator@PAUC_EconPaintKitDefinition@@@std@@@std@@@std@@PAX@std@@_N@1@ABI@Z 000000001006b8a0     ItemsManager.obj
 0001:0006ab90       ??$_Try_emplace@I$$V@?$_Hash@V?$_Umap_traits@IPAUC_EconMusicDefinition@@V?$_Uhash_compare@IU?$hash@I@std@@U?$equal_to@I@2@@std@@V?$allocator@U?$pair@$$CBIPAUC_EconMusicDefinition@@@std@@@3@$0A@@std@@@std@@IAE?AU?$pair@PAU?$_List_node@U?$pair@$$CBIPAUC_EconMusicDefinition@@@std@@PAX@std@@_N@1@$$QAI@Z 000000001006bb90     ItemsManager.obj
 0001:0006ae10       ?_Forced_rehash@?$_Hash@V?$_Umap_traits@IPAUC_EconMusicDefinition@@V?$_Uhash_compare@IU?$hash@I@std@@U?$equal_to@I@2@@std@@V?$allocator@U?$pair@$$CBIPAUC_EconMusicDefinition@@@std@@@3@$0A@@std@@@std@@IAEXI@Z 000000001006be10     ItemsManager.obj
 0001:0006af80       ??$_Try_emplace@ABI$$V@?$_Hash@V?$_Umap_traits@IPAUC_EconStickerDefinition@@V?$_Uhash_compare@IU?$hash@I@std@@U?$equal_to@I@2@@std@@V?$allocator@U?$pair@$$CBIPAUC_EconStickerDefinition@@@std@@@3@$0A@@std@@@std@@IAE?AU?$pair@PAU?$_List_node@U?$pair@$$CBIPAUC_EconStickerDefinition@@@std@@PAX@std@@_N@1@ABI@Z 000000001006bf80     ItemsManager.obj
 0001:0006b200       ?_Forced_rehash@?$_Hash@V?$_Umap_traits@IPAUC_EconStickerDefinition@@V?$_Uhash_compare@IU?$hash@I@std@@U?$equal_to@I@2@@std@@V?$allocator@U?$pair@$$CBIPAUC_EconStickerDefinition@@@std@@@3@$0A@@std@@@std@@IAEXI@Z 000000001006c200     ItemsManager.obj
 0001:0006b370       ??$_Emplace_reallocate@PAUAgentsItem_t@@@?$vector@PAUAgentsItem_t@@V?$allocator@PAUAgentsItem_t@@@std@@@std@@QAEPAPAUAgentsItem_t@@QAPAU2@$$QAPAU2@@Z 000000001006c370     ItemsManager.obj
 0001:0006b4c0       ??$_Emplace_reallocate@PAUDefaultItem_t@@@?$vector@PAUDefaultItem_t@@V?$allocator@PAUDefaultItem_t@@@std@@@std@@QAEPAPAUDefaultItem_t@@QAPAU2@$$QAPAU2@@Z 000000001006c4c0     ItemsManager.obj
 0001:0006b610       ??$_Emplace_reallocate@PAUWeaponItem_t@@@?$vector@PAUWeaponItem_t@@V?$allocator@PAUWeaponItem_t@@@std@@@std@@QAEPAPAUWeaponItem_t@@QAPAU2@$$QAPAU2@@Z 000000001006c610     ItemsManager.obj
 0001:0006b760       ??$_Emplace_reallocate@PAUGloveItem_t@@@?$vector@PAUGloveItem_t@@V?$allocator@PAUGloveItem_t@@@std@@@std@@QAEPAPAUGloveItem_t@@QAPAU2@$$QAPAU2@@Z 000000001006c760     ItemsManager.obj
 0001:0006bad0       ?OnRoundStart@C_BuyBot@@UAEXXZ 000000001006cad0     BuyBot.obj
 0001:0006bae0       ?OnCreateMove@C_BuyBot@@UAEXXZ 000000001006cae0     BuyBot.obj
 0001:0006d400       ??__Eg_BuyBot@@YAXXZ       000000001006e400     BuyBot.obj
 0001:0006d5f0       ?HandleGameEvent@C_CheatEvents@@UAEXPAVIGameEvent@@@Z 000000001006e5f0     Events.obj
 0001:00071450       ?ResetCheatData@C_CheatEvents@@UAEXXZ 0000000010072450     Events.obj
 0001:000714f0       ??__Eg_CheatEvents@@YAXXZ  00000000100724f0     Events.obj
 0001:00071510       ??__Eg_FakeLag@@YAXXZ      0000000010072510     Events.obj
 0001:00071560       ??__Eg_World@@YAXXZ        0000000010072560     Events.obj
 0001:000715a0       ?_Assign_grow@?$_Hash_vec@V?$allocator@V?$_List_unchecked_iterator@V?$_List_val@U?$_List_simple_types@U?$pair@$$CBV?$basic_string@DU?$char_traits@D@std@@V?$allocator@D@2@@std@@UImColor@@@std@@@std@@@std@@@std@@@std@@@std@@QAEXIV?$_List_unchecked_iterator@V?$_List_val@U?$_List_simple_types@U?$pair@$$CBV?$basic_string@DU?$char_traits@D@std@@V?$allocator@D@2@@std@@UImColor@@@std@@@std@@@std@@@2@@Z 00000000100725a0     Events.obj
 0001:000718c0       ?ResetData@C_FakeLag@@UAEXXZ 00000000100728c0     Events.obj
 0001:00071b50       ?SetPacketMode@C_FakeLag@@UAEXH@Z 0000000010072b50     Events.obj
 0001:00071b60       ?SetChokeAmount@C_FakeLag@@UAEXH@Z 0000000010072b60     Events.obj
 0001:00071b70       ?GetChokedPackets@C_FakeLag@@UAEHXZ 0000000010072b70     Events.obj
 0001:00071b80       ?ResetData@C_World@@UAEXXZ 0000000010072b80     Events.obj
 0001:00071ba0       ?_Tidy@?$deque@URageShot_t@@V?$allocator@URageShot_t@@@std@@@std@@AAEXXZ 0000000010072ba0     Events.obj
 0001:00071c50       ??$_Try_emplace@V?$basic_string@DU?$char_traits@D@std@@V?$allocator@D@2@@std@@$$V@?$_Hash@V?$_Umap_traits@V?$basic_string@DU?$char_traits@D@std@@V?$allocator@D@2@@std@@UImColor@@V?$_Uhash_compare@V?$basic_string@DU?$char_traits@D@std@@V?$allocator@D@2@@std@@U?$hash@V?$basic_string@DU?$char_traits@D@std@@V?$allocator@D@2@@std@@@2@U?$equal_to@V?$basic_string@DU?$char_traits@D@std@@V?$allocator@D@2@@std@@@2@@2@V?$allocator@U?$pair@$$CBV?$basic_string@DU?$char_traits@D@std@@V?$allocator@D@2@@std@@UImColor@@@std@@@2@$0A@@std@@@std@@IAE?AU?$pair@PAU?$_List_node@U?$pair@$$CBV?$basic_string@DU?$char_traits@D@std@@V?$allocator@D@2@@std@@UImColor@@@std@@PAX@std@@_N@1@$$QAV?$basic_string@DU?$char_traits@D@std@@V?$allocator@D@2@@1@@Z 0000000010072c50     Events.obj
 0001:00072020       ?_Forced_rehash@?$_Hash@V?$_Umap_traits@V?$basic_string@DU?$char_traits@D@std@@V?$allocator@D@2@@std@@UImColor@@V?$_Uhash_compare@V?$basic_string@DU?$char_traits@D@std@@V?$allocator@D@2@@std@@U?$hash@V?$basic_string@DU?$char_traits@D@std@@V?$allocator@D@2@@std@@@2@U?$equal_to@V?$basic_string@DU?$char_traits@D@std@@V?$allocator@D@2@@std@@@2@@2@V?$allocator@U?$pair@$$CBV?$basic_string@DU?$char_traits@D@std@@V?$allocator@D@2@@std@@UImColor@@@std@@@2@$0A@@std@@@std@@IAEXI@Z 0000000010073020     Events.obj
 0001:000722c0       ??1_Clear_guard@?$_Hash@V?$_Umap_traits@V?$basic_string@DU?$char_traits@D@std@@V?$allocator@D@2@@std@@UImColor@@V?$_Uhash_compare@V?$basic_string@DU?$char_traits@D@std@@V?$allocator@D@2@@std@@U?$hash@V?$basic_string@DU?$char_traits@D@std@@V?$allocator@D@2@@std@@@2@U?$equal_to@V?$basic_string@DU?$char_traits@D@std@@V?$allocator@D@2@@std@@@2@@2@V?$allocator@U?$pair@$$CBV?$basic_string@DU?$char_traits@D@std@@V?$allocator@D@2@@std@@UImColor@@@std@@@2@$0A@@std@@@std@@QAE@XZ 00000000100732c0     Events.obj
 0001:000724b0       ?_Unchecked_erase@?$_Hash@V?$_Umap_traits@V?$basic_string@DU?$char_traits@D@std@@V?$allocator@D@2@@std@@UImColor@@V?$_Uhash_compare@V?$basic_string@DU?$char_traits@D@std@@V?$allocator@D@2@@std@@U?$hash@V?$basic_string@DU?$char_traits@D@std@@V?$allocator@D@2@@std@@@2@U?$equal_to@V?$basic_string@DU?$char_traits@D@std@@V?$allocator@D@2@@std@@@2@@2@V?$allocator@U?$pair@$$CBV?$basic_string@DU?$char_traits@D@std@@V?$allocator@D@2@@std@@UImColor@@@std@@@2@$0A@@std@@@std@@AAEPAU?$_List_node@U?$pair@$$CBV?$basic_string@DU?$char_traits@D@std@@V?$allocator@D@2@@std@@UImColor@@@std@@PAX@2@PAU32@QAU32@@Z 00000000100734b0     Events.obj
 0001:000729e0       ?Instance@C_FakeLag@@UAEXXZ 00000000100739e0     Fakelag.obj
 0001:00073c50       ?FakeDuck@C_FakeLag@@UAEXXZ 0000000010074c50     Fakelag.obj
 0001:000749e0       ?HandleMessage@C_KeyManager@@UAEXII@Z 00000000100759e0     KeyManager.obj
 0001:00074b20       ?RegisterKey@C_KeyManager@@UAEXUOnKeyAction_t@@@Z 0000000010075b20     KeyManager.obj
 0001:00074bd0       ?HandleSwappers@C_KeyManager@@UAEXII@Z 0000000010075bd0     KeyManager.obj
 0001:00074f70       ?HandleHolders@C_KeyManager@@UAEXII@Z 0000000010075f70     KeyManager.obj
 0001:00075250       ?HandleHoldersDown@C_KeyManager@@UAEXII@Z 0000000010076250     KeyManager.obj
 0001:00075530       ?HandleM3@C_KeyManager@@UAEXII@Z 0000000010076530     KeyManager.obj
 0001:00075d90       ?GetVariableAction@C_KeyManager@@UAE?AV?$vector@UOnKeyAction_t@@V?$allocator@UOnKeyAction_t@@@std@@@std@@V?$basic_string@DU?$char_traits@D@std@@V?$allocator@D@2@@3@@Z 0000000010076d90     KeyManager.obj
 0001:00076020       ??__Eg_KeyManager@@YAXXZ   0000000010077020     KeyManager.obj
 0001:00076050       ??1OnKeyAction_t@@QAE@XZ   0000000010077050     KeyManager.obj
 0001:00076150       ??0OnKeyAction_t@@QAE@ABU0@@Z 0000000010077150     KeyManager.obj
 0001:00076550       ?_Destroy@?$vector@UOnKeyAction_t@@V?$allocator@UOnKeyAction_t@@@std@@@std@@AAEXPAUOnKeyAction_t@@0@Z 0000000010077550     KeyManager.obj
 0001:00076580       ?deallocate@?$allocator@UOnKeyAction_t@@@std@@QAEXQAUOnKeyAction_t@@I@Z 0000000010077580     KeyManager.obj
 0001:000765c0       ??$_Emplace_reallocate@ABUOnKeyAction_t@@@?$vector@UOnKeyAction_t@@V?$allocator@UOnKeyAction_t@@@std@@@std@@QAEPAUOnKeyAction_t@@QAU2@ABU2@@Z 00000000100775c0     KeyManager.obj
 0001:00076e80       ??$_Try_emplace@ABV?$basic_string@DU?$char_traits@D@std@@V?$allocator@D@2@@std@@$$V@?$_Hash@V?$_Umap_traits@V?$basic_string@DU?$char_traits@D@std@@V?$allocator@D@2@@std@@_NV?$_Uhash_compare@V?$basic_string@DU?$char_traits@D@std@@V?$allocator@D@2@@std@@U?$hash@V?$basic_string@DU?$char_traits@D@std@@V?$allocator@D@2@@std@@@2@U?$equal_to@V?$basic_string@DU?$char_traits@D@std@@V?$allocator@D@2@@std@@@2@@2@V?$allocator@U?$pair@$$CBV?$basic_string@DU?$char_traits@D@std@@V?$allocator@D@2@@std@@_N@std@@@2@$0A@@std@@@std@@IAE?AU?$pair@PAU?$_List_node@U?$pair@$$CBV?$basic_string@DU?$char_traits@D@std@@V?$allocator@D@2@@std@@_N@std@@PAX@std@@_N@1@ABV?$basic_string@DU?$char_traits@D@std@@V?$allocator@D@2@@1@@Z 0000000010077e80     KeyManager.obj
 0001:000772d0       ??$?0ABUpiecewise_construct_t@std@@V?$tuple@ABV?$basic_string@DU?$char_traits@D@std@@V?$allocator@D@2@@std@@@1@V?$tuple@$$V@1@@?$_List_node_emplace_op2@V?$allocator@U?$_List_node@U?$pair@$$CBV?$basic_string@DU?$char_traits@D@std@@V?$allocator@D@2@@std@@_N@std@@PAX@std@@@std@@@std@@QAE@AAV?$allocator@U?$_List_node@U?$pair@$$CBV?$basic_string@DU?$char_traits@D@std@@V?$allocator@D@2@@std@@_N@std@@PAX@std@@@1@ABUpiecewise_construct_t@1@$$QAV?$tuple@ABV?$basic_string@DU?$char_traits@D@std@@V?$allocator@D@2@@std@@@1@$$QAV?$tuple@$$V@1@@Z 00000000100782d0     KeyManager.obj
 0001:00077420       ?_Throw_bad_any_cast@std@@YAXXZ 0000000010078420     KeyManager.obj
 0001:00077450       ??0bad_any_cast@std@@QAE@ABV01@@Z 0000000010078450     KeyManager.obj
 0001:00077490       ??0bad_cast@std@@QAE@ABV01@@Z 0000000010078490     KeyManager.obj
 0001:000774d0       ??_Gbad_any_cast@std@@UAEPAXI@Z 00000000100784d0     KeyManager.obj
 0001:00077500       ?what@bad_any_cast@std@@UBEPBDXZ 0000000010078500     KeyManager.obj
 0001:00077510       ??_Gbad_cast@std@@UAEPAXI@Z 0000000010078510     KeyManager.obj
 0001:00077540       ??$_Try_emplace@ABV?$basic_string@DU?$char_traits@D@std@@V?$allocator@D@2@@std@@$$V@?$_Hash@V?$_Umap_traits@V?$basic_string@DU?$char_traits@D@std@@V?$allocator@D@2@@std@@HV?$_Uhash_compare@V?$basic_string@DU?$char_traits@D@std@@V?$allocator@D@2@@std@@U?$hash@V?$basic_string@DU?$char_traits@D@std@@V?$allocator@D@2@@std@@@2@U?$equal_to@V?$basic_string@DU?$char_traits@D@std@@V?$allocator@D@2@@std@@@2@@2@V?$allocator@U?$pair@$$CBV?$basic_string@DU?$char_traits@D@std@@V?$allocator@D@2@@std@@H@std@@@2@$0A@@std@@@std@@IAE?AU?$pair@PAU?$_List_node@U?$pair@$$CBV?$basic_string@DU?$char_traits@D@std@@V?$allocator@D@2@@std@@H@std@@PAX@std@@_N@1@ABV?$basic_string@DU?$char_traits@D@std@@V?$allocator@D@2@@1@@Z 0000000010078540     KeyManager.obj
 0001:00077990       ??$?0ABUpiecewise_construct_t@std@@V?$tuple@ABV?$basic_string@DU?$char_traits@D@std@@V?$allocator@D@2@@std@@@1@V?$tuple@$$V@1@@?$_List_node_emplace_op2@V?$allocator@U?$_List_node@U?$pair@$$CBV?$basic_string@DU?$char_traits@D@std@@V?$allocator@D@2@@std@@H@std@@PAX@std@@@std@@@std@@QAE@AAV?$allocator@U?$_List_node@U?$pair@$$CBV?$basic_string@DU?$char_traits@D@std@@V?$allocator@D@2@@std@@H@std@@PAX@std@@@1@ABUpiecewise_construct_t@1@$$QAV?$tuple@ABV?$basic_string@DU?$char_traits@D@std@@V?$allocator@D@2@@std@@@1@$$QAV?$tuple@$$V@1@@Z 0000000010078990     KeyManager.obj
 0001:00077af0       ??$_Try_emplace@ABV?$basic_string@DU?$char_traits@D@std@@V?$allocator@D@2@@std@@$$V@?$_Hash@V?$_Umap_traits@V?$basic_string@DU?$char_traits@D@std@@V?$allocator@D@2@@std@@MV?$_Uhash_compare@V?$basic_string@DU?$char_traits@D@std@@V?$allocator@D@2@@std@@U?$hash@V?$basic_string@DU?$char_traits@D@std@@V?$allocator@D@2@@std@@@2@U?$equal_to@V?$basic_string@DU?$char_traits@D@std@@V?$allocator@D@2@@std@@@2@@2@V?$allocator@U?$pair@$$CBV?$basic_string@DU?$char_traits@D@std@@V?$allocator@D@2@@std@@M@std@@@2@$0A@@std@@@std@@IAE?AU?$pair@PAU?$_List_node@U?$pair@$$CBV?$basic_string@DU?$char_traits@D@std@@V?$allocator@D@2@@std@@M@std@@PAX@std@@_N@1@ABV?$basic_string@DU?$char_traits@D@std@@V?$allocator@D@2@@1@@Z 0000000010078af0     KeyManager.obj
 0001:00077f40       ??$?0ABUpiecewise_construct_t@std@@V?$tuple@ABV?$basic_string@DU?$char_traits@D@std@@V?$allocator@D@2@@std@@@1@V?$tuple@$$V@1@@?$_List_node_emplace_op2@V?$allocator@U?$_List_node@U?$pair@$$CBV?$basic_string@DU?$char_traits@D@std@@V?$allocator@D@2@@std@@M@std@@PAX@std@@@std@@@std@@QAE@AAV?$allocator@U?$_List_node@U?$pair@$$CBV?$basic_string@DU?$char_traits@D@std@@V?$allocator@D@2@@std@@M@std@@PAX@std@@@1@ABUpiecewise_construct_t@1@$$QAV?$tuple@ABV?$basic_string@DU?$char_traits@D@std@@V?$allocator@D@2@@std@@@1@$$QAV?$tuple@$$V@1@@Z 0000000010078f40     KeyManager.obj
 0001:00078320       ?AddLine@Render@@YAXVVector2D@@0VColor@@M@Z 0000000010079320     LuaAPI.obj
 0001:000783a0       ?AddRect@Render@@YAXUImVec2@@0VColor@@MMH@Z 00000000100793a0     LuaAPI.obj
 0001:00078440       ?AddRectFilled@Render@@YAXUImVec2@@0VColor@@MH@Z 0000000010079440     LuaAPI.obj
 0001:000784d0       ?AddText@Render@@YAXPAUImFont@@MUImVec2@@V?$basic_string@DU?$char_traits@D@std@@V?$allocator@D@2@@std@@VColor@@@Z 00000000100794d0     LuaAPI.obj
 0001:000786f0       ?CalcTextSize@Render@@YA?AVVector2D@@V?$basic_string@DU?$char_traits@D@std@@V?$allocator@D@2@@std@@@Z 00000000100796f0     LuaAPI.obj
 0001:00078850       ?AddBoxOverlay@DebugOverlay@@YAXVVector@@00VQAngle@@VColor@@M@Z 0000000010079850     LuaAPI.obj
 0001:00078980       ?AddSphereOverlay@DebugOverlay@@YAXVVector@@MHHVColor@@M@Z 0000000010079980     LuaAPI.obj
 0001:00078a20       ?AddTriangleOverlay@DebugOverlay@@YAXVVector@@00VColor@@_NM@Z 0000000010079a20     LuaAPI.obj
 0001:00078b10       ?AddLineOverlay@DebugOverlay@@YAXVVector@@0VColor@@_NM@Z 0000000010079b10     LuaAPI.obj
 0001:00078bc0       ?ExecuteClientCmd@EngineClient@@YAXV?$basic_string@DU?$char_traits@D@std@@V?$allocator@D@2@@std@@@Z 0000000010079bc0     LuaAPI.obj
 0001:00078cc0       ?GetPlayerInfo@EngineClient@@YAPAUPlayerInfo_t@@H@Z 0000000010079cc0     LuaAPI.obj
 0001:00078d00       ?GetLevelName@EngineClient@@YA?AV?$basic_string@DU?$char_traits@D@std@@V?$allocator@D@2@@std@@XZ 0000000010079d00     LuaAPI.obj
 0001:00078d80       ?GetLevelNameShort@EngineClient@@YA?AV?$basic_string@DU?$char_traits@D@std@@V?$allocator@D@2@@std@@XZ 0000000010079d80     LuaAPI.obj
 0001:00078e00       ?GetLocalPlayer@EngineClient@@YAHXZ 0000000010079e00     LuaAPI.obj
 0001:00078e20       ?GetNetChannel@EngineClient@@YAPAVINetChannel@@XZ 0000000010079e20     LuaAPI.obj
 0001:00078e40       ?GetScreenSize@EngineClient@@YA?AVVector2D@@XZ 0000000010079e40     LuaAPI.obj
 0001:00078e90       ?GetViewAngles@EngineClient@@YA?AVQAngle@@XZ 0000000010079e90     LuaAPI.obj
 0001:00078ed0       ?IsConnected@EngineClient@@YA_NXZ 0000000010079ed0     LuaAPI.obj
 0001:00078ef0       ?IsInGame@EngineClient@@YA_NXZ 0000000010079ef0     LuaAPI.obj
 0001:00078f10       ?GetLastTimestamp@EngineClient@@YAHXZ 0000000010079f10     LuaAPI.obj
 0001:00078f40       ?NumberOfEntities@EntityList@@YAH_N@Z 0000000010079f40     LuaAPI.obj
 0001:00078f70       ?GetHighestEntityIndex@EntityList@@YAHXZ 0000000010079f70     LuaAPI.obj
 0001:00078f90       ?GetClientEntityFromHandle@EntityList@@YAPAVC_BaseEntity@@K@Z 0000000010079f90     LuaAPI.obj
 0001:00078fb0       ?GetLocalPlayer@EntityList@@YAPAVC_BasePlayer@@XZ 0000000010079fb0     LuaAPI.obj
 0001:00078fc0       ?GetWeapon@EntityList@@YAPAVC_BaseCombatWeapon@@H@Z 0000000010079fc0     LuaAPI.obj
 0001:00078fe0       ?GetPlayerFromHandle@EntityList@@YAPAVC_BasePlayer@@K@Z 0000000010079fe0     LuaAPI.obj
 0001:00079000       ?GetWeaponFromHandle@EntityList@@YAPAVC_BaseCombatWeapon@@K@Z 000000001007a000     LuaAPI.obj
 0001:00079020       ?GetPlayerForUserID@EntityList@@YAPAVC_BasePlayer@@H@Z 000000001007a020     LuaAPI.obj
 0001:00079060       ?GetRealTime@GlobalVars@@YAHXZ 000000001007a060     LuaAPI.obj
 0001:00079070       ?GetFrameCount@GlobalVars@@YAHXZ 000000001007a070     LuaAPI.obj
 0001:00079080       ?GetAbsoluteFrameTime@GlobalVars@@YAMXZ 000000001007a080     LuaAPI.obj
 0001:00079090       ?GetCurTime@GlobalVars@@YAMXZ 000000001007a090     LuaAPI.obj
 0001:000790a0       ?GetFrameTime@GlobalVars@@YAMXZ 000000001007a0a0     LuaAPI.obj
 0001:000790b0       ?GetMaxClients@GlobalVars@@YAHXZ 000000001007a0b0     LuaAPI.obj
 0001:000790c0       ?GetTickCount@GlobalVars@@YAHXZ 000000001007a0c0     LuaAPI.obj
 0001:000790d0       ?GetIntervalPerTick@GlobalVars@@YAMXZ 000000001007a0d0     LuaAPI.obj
 0001:000790e0       ?GetInterpolationAmount@GlobalVars@@YAMXZ 000000001007a0e0     LuaAPI.obj
 0001:000790f0       ?GetSimTicksForThisFrame@GlobalVars@@YAHXZ 000000001007a0f0     LuaAPI.obj
 0001:00079100       ?GetNetworkProtocol@GlobalVars@@YAHXZ 000000001007a100     LuaAPI.obj
 0001:00079110       ?GetSaveData@GlobalVars@@YAPAXXZ 000000001007a110     LuaAPI.obj
 0001:00079120       ?GetClient@GlobalVars@@YA_NXZ 000000001007a120     LuaAPI.obj
 0001:00079130       ?GetRemoteClient@GlobalVars@@YA_NXZ 000000001007a130     LuaAPI.obj
 0001:00079140       ?GetLastOutgoingCommand@ClientState@@YAHXZ 000000001007a140     LuaAPI.obj
 0001:00079150       ?GetChokedCommands@ClientState@@YAHXZ 000000001007a150     LuaAPI.obj
 0001:00079160       ?GetLastCommandAck@ClientState@@YAHXZ 000000001007a160     LuaAPI.obj
 0001:00079170       ?GetCommandAck@ClientState@@YAHXZ 000000001007a170     LuaAPI.obj
 0001:00079180       ?PatternScan@Utils@@YAPAXV?$basic_string@DU?$char_traits@D@std@@V?$allocator@D@2@@std@@0@Z 000000001007a180     LuaAPI.obj
 0001:00079320       ?GetRandomInt@Utils@@YAHHH@Z 000000001007a320     LuaAPI.obj
 0001:00079340       ?GetRandomFloat@Utils@@YAMMM@Z 000000001007a340     LuaAPI.obj
 0001:00079370       ?RandomSeed@Utils@@YAXH@Z  000000001007a370     LuaAPI.obj
 0001:00079380       ?GetUnixTime@Utils@@YAHXZ  000000001007a380     LuaAPI.obj
 0001:000793c0       ?CreateInterface@Utils@@YAPAXV?$basic_string@DU?$char_traits@D@std@@V?$allocator@D@2@@std@@0@Z 000000001007a3c0     LuaAPI.obj
 0001:00079570       ?IsKeyHeld@Utils@@YA_NH@Z  000000001007a570     LuaAPI.obj
 0001:00079580       ?IsKeyToggled@Utils@@YA_NH@Z 000000001007a580     LuaAPI.obj
 0001:00079590       ?GetMousePosition@CheatVars@@YA?AVVector2D@@XZ 000000001007a590     LuaAPI.obj
 0001:000795e0       ?AddCallBack@CheatVars@@YAXUthis_state@sol@@HV?$basic_string@DU?$char_traits@D@std@@V?$allocator@D@2@@std@@V?$basic_protected_function@V?$basic_reference@$0A@@sol@@$0A@V12@@3@@Z 000000001007a5e0     LuaAPI.obj
 0001:000798c0       ?SetBool@CheatVars@@YAXV?$basic_string@DU?$char_traits@D@std@@V?$allocator@D@2@@std@@_N@Z 000000001007a8c0     LuaAPI.obj
 0001:000799c0       ?SetInt@CheatVars@@YAXV?$basic_string@DU?$char_traits@D@std@@V?$allocator@D@2@@std@@H@Z 000000001007a9c0     LuaAPI.obj
 0001:00079ac0       ?SetFloat@CheatVars@@YAXV?$basic_string@DU?$char_traits@D@std@@V?$allocator@D@2@@std@@M@Z 000000001007aac0     LuaAPI.obj
 0001:00079bc0       ?SetColor@CheatVars@@YAXV?$basic_string@DU?$char_traits@D@std@@V?$allocator@D@2@@std@@VColor@@@Z 000000001007abc0     LuaAPI.obj
 0001:00079cc0       ?GetBool@CheatVars@@YA_NV?$basic_string@DU?$char_traits@D@std@@V?$allocator@D@2@@std@@@Z 000000001007acc0     LuaAPI.obj
 0001:00079db0       ?GetInt@CheatVars@@YAHV?$basic_string@DU?$char_traits@D@std@@V?$allocator@D@2@@std@@@Z 000000001007adb0     LuaAPI.obj
 0001:00079ea0       ?GetFloat@CheatVars@@YAMV?$basic_string@DU?$char_traits@D@std@@V?$allocator@D@2@@std@@@Z 000000001007aea0     LuaAPI.obj
 0001:00079fb0       ?GetColor@CheatVars@@YA?AVColor@@V?$basic_string@DU?$char_traits@D@std@@V?$allocator@D@2@@std@@@Z 000000001007afb0     LuaAPI.obj
 0001:0007a0b0       ?FindVar@CvarManager@@YAPAVConVar@@V?$basic_string@DU?$char_traits@D@std@@V?$allocator@D@2@@std@@@Z 000000001007b0b0     LuaAPI.obj
 0001:0007a1a0       ?SetPacketMode@FakeLags@@YAXH@Z 000000001007b1a0     LuaAPI.obj
 0001:0007a1b0       ?SetChokeAmount@FakeLags@@YAXH@Z 000000001007b1b0     LuaAPI.obj
 0001:0007a1c0       ?GetChokedCommands@FakeLags@@YAHXZ 000000001007b1c0     LuaAPI.obj
 0001:0007a1d0       ?PushFontFromFile@FontManager@@YAXV?$basic_string@DU?$char_traits@D@std@@V?$allocator@D@2@@std@@0H@Z 000000001007b1d0     LuaAPI.obj
 0001:0007a410       ?PushFontFromData@FontManager@@YAXV?$basic_string@DU?$char_traits@D@std@@V?$allocator@D@2@@std@@PAXH@Z 000000001007b410     LuaAPI.obj
 0001:0007a5b0       ?GetFont@FontManager@@YAPAUImFont@@V?$basic_string@DU?$char_traits@D@std@@V?$allocator@D@2@@std@@@Z 000000001007b5b0     LuaAPI.obj
 0001:0007a6f0       ?UpdateFonts@FontManager@@YAXXZ 000000001007b6f0     LuaAPI.obj
 0001:0007a700       ?CreateMaterial@MaterialSystem@@YAPAVIMaterial@@V?$basic_string@DU?$char_traits@D@std@@V?$allocator@D@2@@std@@0@Z 000000001007b700     LuaAPI.obj
 0001:0007a8a0       ?FindMaterial@MaterialSystem@@YAPAVIMaterial@@V?$basic_string@DU?$char_traits@D@std@@V?$allocator@D@2@@std@@@Z 000000001007b8a0     LuaAPI.obj
 0001:0007a9a0       ?FirstMaterial@MaterialSystem@@YAGXZ 000000001007b9a0     LuaAPI.obj
 0001:0007a9b0       ?NextMaterial@MaterialSystem@@YAGG@Z 000000001007b9b0     LuaAPI.obj
 0001:0007a9d0       ?GetMaterial@MaterialSystem@@YAPAVIMaterial@@G@Z 000000001007b9d0     LuaAPI.obj
 0001:0007a9f0       ?Instance@C_LuaAPI@@UAEXXZ 000000001007b9f0     LuaAPI.obj
 0001:0007aa10       ?GetCurrentScript@C_LuaAPI@@UAE?AV?$basic_string@DU?$char_traits@D@std@@V?$allocator@D@2@@std@@Uthis_state@sol@@@Z 000000001007ba10     LuaAPI.obj
 0001:0007ac20       ?Load@C_LuaAPI@@UAEXH@Z    000000001007bc20     LuaAPI.obj
 0001:0007b590       ?Unload@C_LuaAPI@@UAEXH@Z  000000001007c590     LuaAPI.obj
 0001:0007b680       ?UnloadAll@C_LuaAPI@@QAEXXZ 000000001007c680     LuaAPI.obj
 0001:0007b6b0       ?InEditManager@C_LuaAPI@@UAEXH_N@Z 000000001007c6b0     LuaAPI.obj
 0001:0007b790       ?lua_panic@@YAXV?$optional@V?$basic_string@DU?$char_traits@D@std@@V?$allocator@D@2@@std@@@sol@@@Z 000000001007c790     LuaAPI.obj
 0001:0007bb00       ?SetupLuaJIT@C_LuaAPI@@EAEXXZ 000000001007cb00     LuaAPI.obj
 0001:0007bec0       ?SetupUserTypes@C_LuaAPI@@EAEXXZ 000000001007cec0     LuaAPI.obj
 0001:00082b20       ?SetupLuaTables@C_LuaAPI@@EAEXXZ 0000000010083b20     LuaAPI.obj
 0001:0008b480       ??__Eg_LuaAPI@@YAXXZ       000000001008c480     LuaAPI.obj
 0001:0008b550       ??0C_LuaAPI@@QAE@XZ        000000001008c550     LuaAPI.obj
 0001:0008b8c0       ??__Eg_LuaHookManager@@YAXXZ 000000001008c8c0     LuaAPI.obj
 0001:0008b970       ??__Eg_ChamsSystem@@YAXXZ  000000001008c970     LuaAPI.obj
 0001:0008b9b0       ?b@Color@@QBEHXZ           000000001008c9b0     LuaAPI.obj
 0001:0008b9c0       ?g@Color@@QBEHXZ           000000001008c9c0     LuaAPI.obj
 0001:0008b9d0       ?r@Color@@QBEHXZ           000000001008c9d0     LuaAPI.obj
 0001:0008b9e0       ??0?$basic_protected_function@V?$basic_reference@$0A@@sol@@$0A@V12@@sol@@QAE@ABV01@@Z 000000001008c9e0     LuaAPI.obj
 0001:0008ba80       ??1protected_function_result@sol@@QAE@XZ 000000001008ca80     LuaAPI.obj
 0001:0008bb10       ??$value_or@AAY07$$CBD@?$optional@V?$basic_string@DU?$char_traits@D@std@@V?$allocator@D@2@@std@@@sol@@QGBE?AV?$basic_string@DU?$char_traits@D@std@@V?$allocator@D@2@@std@@AAY07$$CBD@Z 000000001008cb10     LuaAPI.obj
 0001:0008bc10       ??$c_call@P6AXV?$optional@V?$basic_string@DU?$char_traits@D@std@@V?$allocator@D@2@@std@@@sol@@@Z$1?lua_panic@@YAX0@Z@sol@@YAHPAUlua_State@@@Z 000000001008cc10     LuaAPI.obj
 0001:0008bc30       ??0state@sol@@QAE@P6AHPAUlua_State@@@Z@Z 000000001008cc30     LuaAPI.obj
 0001:0008bd60       ??$open_libraries@W4lib@sol@@W412@W412@W412@W412@@state_view@sol@@QAEX$$QAW4lib@1@0000@Z 000000001008cd60     LuaAPI.obj
 0001:0008bef0       ?Cross@Vector@@QAE?AV1@ABV1@@Z 000000001008cef0     LuaAPI.obj
 0001:0008bf50       ?Dot@Vector@@QBEMABV1@@Z   000000001008cf50     LuaAPI.obj
 0001:0008bf90       ?DistTo@Vector@@QBEMABV1@@Z 000000001008cf90     LuaAPI.obj
 0001:0008c010       ?Length2D@Vector@@QBEMXZ   000000001008d010     LuaAPI.obj
 0001:0008c070       ?Length@Vector@@QBEMXZ     000000001008d070     LuaAPI.obj
 0001:0008c0e0       ?Length@QAngle@@QBEMXZ     000000001008d0e0     LuaAPI.obj
 0001:0008c150       ?Normalize@QAngle@@QBEMXZ  000000001008d150     LuaAPI.obj
 0001:0008c1c0       ?FromHSB@Color@@SA?AV1@MMM@Z 000000001008d1c0     LuaAPI.obj
 0001:0008c300       ??_9ConVar@@$BDE@AE        000000001008d300     LuaAPI.obj
 0001:0008c310       ??_9ConVar@@$BDA@AE        000000001008d310     LuaAPI.obj
 0001:0008c320       ?GetString@ConVar@@QBEPBDXZ 000000001008d320     LuaAPI.obj
 0001:0008c340       ??_9IGameEvent@@$BDI@AE    000000001008d340     LuaAPI.obj
 0001:0008c350       ??_9IGameEvent@@$BDA@AE    000000001008d350     LuaAPI.obj
 0001:0008c360       ??_9IGameEvent@@$BCM@AE    000000001008d360     LuaAPI.obj
 0001:0008c370       ??_9IGameEvent@@$BDM@AE    000000001008d370     LuaAPI.obj
 0001:0008c380       ??_9IGameEvent@@$BCA@AE    000000001008d380     LuaAPI.obj
 0001:0008c390       ??_9IGameEvent@@$BBI@AE    000000001008d390     LuaAPI.obj
 0001:0008c3a0       ??_9IGameEvent@@$BBE@AE    000000001008d3a0     LuaAPI.obj
 0001:0008c3b0       ??_9IGameEvent@@$BCE@AE    000000001008d3b0     LuaAPI.obj
 0001:0008c3c0       ??_9IGameEvent@@$B3AE      000000001008d3c0     LuaAPI.obj
 0001:0008c3d0       ??_9IMaterial@@$BHE@AE     000000001008d3d0     LuaAPI.obj
 0001:0008c3e0       ??_9IMaterial@@$BKI@AE     000000001008d3e0     LuaAPI.obj
 0001:0008c3f0       ??_9IMaterial@@$BA@AE      000000001008d3f0     LuaAPI.obj
 0001:0008c400       ??_9IMaterial@@$BGM@AE     000000001008d400     LuaAPI.obj
 0001:0008c410       ??_9IMaterial@@$BHA@AE     000000001008d410     LuaAPI.obj
 0001:0008c420       ??_9INetChannel@@$BDM@AE   000000001008d420     LuaAPI.obj
 0001:0008c430       ??_9INetChannel@@$BDI@AE   000000001008d430     LuaAPI.obj
 0001:0008c440       ??_9INetChannel@@$BDE@AE   000000001008d440     LuaAPI.obj
 0001:0008c450       ??_9INetChannel@@$BDA@AE   000000001008d450     LuaAPI.obj
 0001:0008c460       ??_9INetChannel@@$BCM@AE   000000001008d460     LuaAPI.obj
 0001:0008c470       ??_9INetChannel@@$BCI@AE   000000001008d470     LuaAPI.obj
 0001:0008c480       ??_9INetChannel@@$BCE@AE   000000001008d480     LuaAPI.obj
 0001:0008c490       ??_9INetChannel@@$BCA@AE   000000001008d490     LuaAPI.obj
 0001:0008c4a0       ??_9INetChannel@@$B3AE     000000001008d4a0     LuaAPI.obj
 0001:0008c4b0       ??_9INetChannel@@$BA@AE    000000001008d4b0     LuaAPI.obj
 0001:0008c4c0       ?_Assign_grow@?$_Hash_vec@V?$allocator@V?$_List_unchecked_iterator@V?$_List_val@U?$_List_simple_types@U?$pair@$$CBV?$basic_string@DU?$char_traits@D@std@@V?$allocator@D@2@@std@@VColor@@@std@@@std@@@std@@@std@@@std@@@std@@QAEXIV?$_List_unchecked_iterator@V?$_List_val@U?$_List_simple_types@U?$pair@$$CBV?$basic_string@DU?$char_traits@D@std@@V?$allocator@D@2@@std@@VColor@@@std@@@std@@@std@@@2@@Z 000000001008d4c0     LuaAPI.obj
 0001:0008c7e0       ?default_at_panic@sol@@YAHPAUlua_State@@@Z 000000001008d7e0     LuaAPI.obj
 0001:0008c9f0       ??0?$_Hash@V?$_Umap_traits@H_NV?$_Uhash_compare@HU?$hash@H@std@@U?$equal_to@H@2@@std@@V?$allocator@U?$pair@$$CBH_N@std@@@2@$0A@@std@@@std@@IAE@ABV?$_Uhash_compare@HU?$hash@H@std@@U?$equal_to@H@2@@1@ABV?$allocator@U?$pair@$$CBH_N@std@@@1@@Z 000000001008d9f0     LuaAPI.obj
 0001:0008cb50       ??0?$_Hash@V?$_Umap_traits@HV?$basic_string@DU?$char_traits@D@std@@V?$allocator@D@2@@std@@V?$_Uhash_compare@HU?$hash@H@std@@U?$equal_to@H@2@@2@V?$allocator@U?$pair@$$CBHV?$basic_string@DU?$char_traits@D@std@@V?$allocator@D@2@@std@@@std@@@2@$0A@@std@@@std@@IAE@ABV?$_Uhash_compare@HU?$hash@H@std@@U?$equal_to@H@2@@1@ABV?$allocator@U?$pair@$$CBHV?$basic_string@DU?$char_traits@D@std@@V?$allocator@D@2@@std@@@std@@@1@@Z 000000001008db50     LuaAPI.obj
 0001:0008cc90       ?_Tidy@?$list@U?$pair@$$CBHV?$basic_string@DU?$char_traits@D@std@@V?$allocator@D@2@@std@@@std@@V?$allocator@U?$pair@$$CBHV?$basic_string@DU?$char_traits@D@std@@V?$allocator@D@2@@std@@@std@@@2@@std@@AAEXXZ 000000001008dc90     LuaAPI.obj
 0001:0008cd10       ??0error@sol@@QAE@ABV?$basic_string@DU?$char_traits@D@std@@V?$allocator@D@2@@std@@@Z 000000001008dd10     LuaAPI.obj
 0001:0008ce70       ??0error@sol@@QAE@ABV01@@Z 000000001008de70     LuaAPI.obj
 0001:0008cfc0       ??0runtime_error@std@@QAE@ABV01@@Z 000000001008dfc0     LuaAPI.obj
 0001:0008d000       ??1error@sol@@UAE@XZ       000000001008e000     LuaAPI.obj
 0001:0008d070       ??0error@sol@@QAE@$$QAV?$basic_string@DU?$char_traits@D@std@@V?$allocator@D@2@@std@@@Z 000000001008e070     LuaAPI.obj
 0001:0008d1f0       ??_Gerror@sol@@UAEPAXI@Z   000000001008e1f0     LuaAPI.obj
 0001:0008d270       ?what@error@sol@@UBEPBDXZ  000000001008e270     LuaAPI.obj
 0001:0008d280       ??_Gruntime_error@std@@UAEPAXI@Z 000000001008e280     LuaAPI.obj
 0001:0008d2b0       ?OnSharedChamsDataReceived@C_ChamsSystem@@UAEXVC_SharedChamsData@@H@Z 000000001008e2b0     LuaAPI.obj
 0001:0008d2d0       ??$call@$$V$$ZHAAY01$$CBD@?$table_proxy@AAV?$basic_table_core@$00V?$basic_reference@$0A@@sol@@@sol@@V?$tuple@AAY05$$CBDAAY07$$CBD@std@@@sol@@QAE?A?<decltype-auto>@@$$QAHAAY01$$CBD@Z 000000001008e2d0     LuaAPI.obj
 0001:0008d440       ??$apply@$00ABV?$tuple@AAY05$$CBDAAY07$$CBD@std@@@?$field_getter@V?$tuple@AAY05$$CBDAAY07$$CBD@std@@$00$0A@X@stack@sol@@QAEXU?$integer_sequence@I$0A@$00@std@@PAUlua_State@@ABV?$tuple@AAY05$$CBDAAY07$$CBD@4@H@Z 000000001008e440     LuaAPI.obj
 0001:0008d4f0       ?set_default_state@sol@@YAXPAUlua_State@@P6AH0@Z1P6AH0V?$optional@ABVexception@std@@@1@V?$basic_string_view@DU?$char_traits@D@std@@@std@@@Z@Z 000000001008e4f0     LuaAPI.obj
 0001:0008d680       ?default_exception_handler@detail@sol@@YAHPAUlua_State@@V?$optional@ABVexception@std@@@2@V?$basic_string_view@DU?$char_traits@D@std@@@std@@@Z 000000001008e680     LuaAPI.obj
 0001:0008d6c0       ??$c_call@P6AHPAUlua_State@@@Z$1?default_traceback_error_handler@sol@@YAH0@Z@sol@@YAHPAUlua_State@@@Z 000000001008e6c0     LuaAPI.obj
 0001:0008d6d0       ??$set_default_handler@V?$basic_object@V?$basic_reference@$0A@@sol@@@sol@@@?$basic_protected_function@V?$basic_reference@$0A@@sol@@$0A@V12@@sol@@SAXABV?$basic_object@V?$basic_reference@$0A@@sol@@@1@@Z 000000001008e6d0     LuaAPI.obj
 0001:0008d740       ?c_trampoline@detail@sol@@YAHPAUlua_State@@P6AH0@Z@Z 000000001008e740     LuaAPI.obj
 0001:0008d760       ??$trampoline@AAP6AHPAUlua_State@@@Z$$V@detail@sol@@YAHPAUlua_State@@AAP6AH0@Z@Z 000000001008e760     LuaAPI.obj
 0001:0008d8a0       ?call_exception_handler@detail@sol@@YAHPAUlua_State@@V?$optional@ABVexception@std@@@2@V?$basic_string_view@DU?$char_traits@D@std@@@std@@@Z 000000001008e8a0     LuaAPI.obj
 0001:0008d940       ?default_traceback_error_handler@sol@@YAHPAUlua_State@@@Z 000000001008e940     LuaAPI.obj
 0001:0008df00       ?no_panic@sol@@YAHPAUlua_State@@HW4type@1@1PBD@Z 000000001008ef00     LuaAPI.obj
 0001:0008df10       ??$move_assign@$0A@@?$basic_reference@$0A@@sol@@AAEX$$QAV01@@Z 000000001008ef10     LuaAPI.obj
 0001:0008e010       ??$_Try_emplace@ABV?$basic_string@DU?$char_traits@D@std@@V?$allocator@D@2@@std@@$$V@?$_Hash@V?$_Umap_traits@V?$basic_string@DU?$char_traits@D@std@@V?$allocator@D@2@@std@@VColor@@V?$_Uhash_compare@V?$basic_string@DU?$char_traits@D@std@@V?$allocator@D@2@@std@@U?$hash@V?$basic_string@DU?$char_traits@D@std@@V?$allocator@D@2@@std@@@2@U?$equal_to@V?$basic_string@DU?$char_traits@D@std@@V?$allocator@D@2@@std@@@2@@2@V?$allocator@U?$pair@$$CBV?$basic_string@DU?$char_traits@D@std@@V?$allocator@D@2@@std@@VColor@@@std@@@2@$0A@@std@@@std@@IAE?AU?$pair@PAU?$_List_node@U?$pair@$$CBV?$basic_string@DU?$char_traits@D@std@@V?$allocator@D@2@@std@@VColor@@@std@@PAX@std@@_N@1@ABV?$basic_string@DU?$char_traits@D@std@@V?$allocator@D@2@@1@@Z 000000001008f010     LuaAPI.obj
 0001:0008e410       ??$construct@U?$pair@$$CBV?$basic_string@DU?$char_traits@D@std@@V?$allocator@D@2@@std@@VColor@@@std@@ABUpiecewise_construct_t@2@V?$tuple@ABV?$basic_string@DU?$char_traits@D@std@@V?$allocator@D@2@@std@@@2@V?$tuple@$$V@2@@?$_Default_allocator_traits@V?$allocator@U?$_List_node@U?$pair@$$CBV?$basic_string@DU?$char_traits@D@std@@V?$allocator@D@2@@std@@VColor@@@std@@PAX@std@@@std@@@std@@SAXAAV?$allocator@U?$_List_node@U?$pair@$$CBV?$basic_string@DU?$char_traits@D@std@@V?$allocator@D@2@@std@@VColor@@@std@@PAX@std@@@1@QAU?$pair@$$CBV?$basic_string@DU?$char_traits@D@std@@V?$allocator@D@2@@std@@VColor@@@1@ABUpiecewise_construct_t@1@$$QAV?$tuple@ABV?$basic_string@DU?$char_traits@D@std@@V?$allocator@D@2@@std@@@1@$$QAV?$tuple@$$V@1@@Z 000000001008f410     LuaAPI.obj
 0001:0008e460       ??$?0V?$tuple@ABV?$basic_string@DU?$char_traits@D@std@@V?$allocator@D@2@@std@@@std@@V?$tuple@$$V@1@$0A@$$Z$S@?$pair@$$CBV?$basic_string@DU?$char_traits@D@std@@V?$allocator@D@2@@std@@VColor@@@std@@QAE@AAV?$tuple@ABV?$basic_string@DU?$char_traits@D@std@@V?$allocator@D@2@@std@@@1@AAV?$tuple@$$V@1@U?$integer_sequence@I$0A@@1@U?$integer_sequence@I$S@1@@Z 000000001008f460     LuaAPI.obj
 0001:0008e5b0       ?_Forced_rehash@?$_Hash@V?$_Umap_traits@V?$basic_string@DU?$char_traits@D@std@@V?$allocator@D@2@@std@@VColor@@V?$_Uhash_compare@V?$basic_string@DU?$char_traits@D@std@@V?$allocator@D@2@@std@@U?$hash@V?$basic_string@DU?$char_traits@D@std@@V?$allocator@D@2@@std@@@2@U?$equal_to@V?$basic_string@DU?$char_traits@D@std@@V?$allocator@D@2@@std@@@2@@2@V?$allocator@U?$pair@$$CBV?$basic_string@DU?$char_traits@D@std@@V?$allocator@D@2@@std@@VColor@@@std@@@2@$0A@@std@@@std@@IAEXI@Z 000000001008f5b0     LuaAPI.obj
 0001:0008e850       ??1_Clear_guard@?$_Hash@V?$_Umap_traits@V?$basic_string@DU?$char_traits@D@std@@V?$allocator@D@2@@std@@VColor@@V?$_Uhash_compare@V?$basic_string@DU?$char_traits@D@std@@V?$allocator@D@2@@std@@U?$hash@V?$basic_string@DU?$char_traits@D@std@@V?$allocator@D@2@@std@@@2@U?$equal_to@V?$basic_string@DU?$char_traits@D@std@@V?$allocator@D@2@@std@@@2@@2@V?$allocator@U?$pair@$$CBV?$basic_string@DU?$char_traits@D@std@@V?$allocator@D@2@@std@@VColor@@@std@@@2@$0A@@std@@@std@@QAE@XZ 000000001008f850     LuaAPI.obj
 0001:0008ea40       ?_Unchecked_erase@?$_Hash@V?$_Umap_traits@V?$basic_string@DU?$char_traits@D@std@@V?$allocator@D@2@@std@@VColor@@V?$_Uhash_compare@V?$basic_string@DU?$char_traits@D@std@@V?$allocator@D@2@@std@@U?$hash@V?$basic_string@DU?$char_traits@D@std@@V?$allocator@D@2@@std@@@2@U?$equal_to@V?$basic_string@DU?$char_traits@D@std@@V?$allocator@D@2@@std@@@2@@2@V?$allocator@U?$pair@$$CBV?$basic_string@DU?$char_traits@D@std@@V?$allocator@D@2@@std@@VColor@@@std@@@2@$0A@@std@@@std@@AAEPAU?$_List_node@U?$pair@$$CBV?$basic_string@DU?$char_traits@D@std@@V?$allocator@D@2@@std@@VColor@@@std@@PAX@2@PAU32@QAU32@@Z 000000001008fa40     LuaAPI.obj
 0001:0008ed80       ??$traverse_get@V?$basic_string@DU?$char_traits@D@std@@V?$allocator@D@2@@std@@AAY06$$CBD@?$basic_table_core@$0A@V?$basic_reference@$0A@@sol@@@sol@@QBE?A?<decltype-auto>@@AAY06$$CBD@Z 000000001008fd80     LuaAPI.obj
 0001:0008eef0       ??$_Reallocate_grow_by@V<lambda_1>@?0??replace@?$basic_string@DU?$char_traits@D@std@@V?$allocator@D@2@@std@@QAEAAV34@IIQBDI@Z@IIPBDI@?$basic_string@DU?$char_traits@D@std@@V?$allocator@D@2@@std@@AAEAAV01@IV<lambda_1>@?0??replace@01@QAEAAV01@IIQBDI@Z@IIPBDI@Z 000000001008fef0     LuaAPI.obj
 0001:0008f0a0       ?do_string@state_view@sol@@QAE?AUprotected_function_result@2@ABV?$basic_string_view@DU?$char_traits@D@std@@@std@@ABV?$basic_string@DU?$char_traits@D@std@@V?$allocator@D@2@@5@W4load_mode@2@@Z 00000000100900a0     LuaAPI.obj
 0001:0008f4b0       ?to_string@sol@@YAABV?$basic_string@DU?$char_traits@D@std@@V?$allocator@D@2@@std@@W4load_mode@1@@Z 00000000100904b0     LuaAPI.obj
 0001:0008f780       ??1?$array@V?$basic_string@DU?$char_traits@D@std@@V?$allocator@D@2@@std@@$02@std@@QAE@XZ 0000000010090780     LuaAPI.obj
 0001:0008f870       ??$call@$$V$$Z$$V@?$basic_protected_function@Vstack_reference@sol@@$00V?$basic_reference@$0A@@2@@sol@@QBE?A?<decltype-auto>@@XZ 0000000010090870     LuaAPI.obj
 0001:0008f9c0       ??$c_call_raw@P6AXV?$optional@V?$basic_string@DU?$char_traits@D@std@@V?$allocator@D@2@@std@@@sol@@@Z$1?lua_panic@@YAX0@Z@function_detail@sol@@YAHU?$integral_constant@_N$0A@@std@@PAUlua_State@@@Z 00000000100909c0     LuaAPI.obj
 0001:0008fbd0       ?get@?$qualified_getter@V?$optional@V?$basic_string@DU?$char_traits@D@std@@V?$allocator@D@2@@std@@@sol@@X@stack@sol@@SA?AV?$optional@V?$basic_string@DU?$char_traits@D@std@@V?$allocator@D@2@@std@@@3@PAUlua_State@@HAAUrecord@23@@Z 0000000010090bd0     LuaAPI.obj
 0001:0008fcb0       ?call@?$upvalue_free_function@P6AXXZ$0A@@function_detail@sol@@SAHPAUlua_State@@@Z 0000000010090cb0     LuaAPI.obj
 0001:0008fcc0       ??$static_trampoline@$1?real_call@?$upvalue_free_function@P6AXXZ$0A@@function_detail@sol@@SAHPAUlua_State@@@Z@detail@sol@@YAHPAUlua_State@@@Z 0000000010090cc0     LuaAPI.obj
 0001:0008fe10       ?lua_cfunction_trampoline@detail@sol@@YAHPAUlua_State@@P6AH0@Z@Z 0000000010090e10     LuaAPI.obj
 0001:0008ff50       ??$new_usertype@VVector@@ABV?$basic_string@DU?$char_traits@D@std@@V?$allocator@D@2@@std@@U?$constructor_list@$$A6A?AVVector@@XZ$$A6A?AV1@MMM@Z$$A6A?AV1@HHH@Z@sol@@V23@PQ1@MV23@PQ1@MV23@PQ1@MV23@P81@BEMXZV23@P81@BEMXZV23@P81@BEMABV1@@ZV23@P81@BEM0@ZV23@P81@AE?AV1@0@ZX@?$basic_table_core@$00V?$basic_reference@$0A@@sol@@@sol@@QAE?AV?$basic_usertype@VVector@@V?$basic_reference@$0A@@sol@@@1@ABV?$basic_string@DU?$char_traits@D@std@@V?$allocator@D@2@@std@@$$QAU?$constructor_list@$$A6A?AVVector@@XZ$$A6A?AV1@MMM@Z$$A6A?AV1@HHH@Z@1@$$QAV34@$$QAPQVector@@M23232$$QAP86@BEMXZ242$$QAP86@BEMABV6@@Z262$$QAP86@AE?AV6@5@Z@Z 0000000010090f50     LuaAPI.obj
 0001:00090090       ??$new_usertype@VVector@@ABV?$basic_string@DU?$char_traits@D@std@@V?$allocator@D@2@@std@@@?$basic_table_core@$00V?$basic_reference@$0A@@sol@@@sol@@QAE?AV?$basic_usertype@VVector@@V?$basic_reference@$0A@@sol@@@1@ABV?$basic_string@DU?$char_traits@D@std@@V?$allocator@D@2@@std@@Uautomagic_enrollments@1@@Z 0000000010091090     LuaAPI.obj
 0001:000901a0       ??$set@W4meta_function@sol@@U?$constructor_list@$$A6A?AVVector@@XZ$$A6A?AV1@MMM@Z$$A6A?AV1@HHH@Z@2@@?$basic_usertype@VVector@@V?$basic_reference@$0A@@sol@@@sol@@QAEX$$QAW4meta_function@1@$$QAU?$constructor_list@$$A6A?AVVector@@XZ$$A6A?AV1@MMM@Z$$A6A?AV1@HHH@Z@1@@Z 00000000100911a0     LuaAPI.obj
 0001:00090240       ??$register_usertype@VVector@@@u_detail@sol@@YAHPAUlua_State@@Uautomagic_enrollments@1@@Z 0000000010091240     LuaAPI.obj
 0001:00090680       ??$delete_usertype_storage@VVector@@@u_detail@sol@@YAXPAUlua_State@@@Z 0000000010091680     LuaAPI.obj
 0001:00090710       ??$create_usertype_storage@VVector@@@u_detail@sol@@YAAAU?$usertype_storage@VVector@@@01@PAUlua_State@@@Z 0000000010091710     LuaAPI.obj
 0001:00090810       ?gc_table@?$usertype_traits@VVector@@@sol@@SAABV?$basic_string@DU?$char_traits@D@std@@V?$allocator@D@2@@std@@XZ 0000000010091810     LuaAPI.obj
 0001:00090c00       ?metatable@?$usertype_traits@$$CBVVector@@@sol@@SAABV?$basic_string@DU?$char_traits@D@std@@V?$allocator@D@2@@std@@XZ 0000000010091c00     LuaAPI.obj
 0001:00090f80       ?metatable@?$usertype_traits@PBVVector@@@sol@@SAABV?$basic_string@DU?$char_traits@D@std@@V?$allocator@D@2@@std@@XZ 0000000010091f80     LuaAPI.obj
 0001:00091300       ?metatable@?$usertype_traits@PAVVector@@@sol@@SAABV?$basic_string@DU?$char_traits@D@std@@V?$allocator@D@2@@std@@XZ 0000000010092300     LuaAPI.obj
 0001:00091680       ?metatable@?$usertype_traits@U?$unique_usertype@VVector@@@detail@sol@@@sol@@SAABV?$basic_string@DU?$char_traits@D@std@@V?$allocator@D@2@@std@@XZ 0000000010092680     LuaAPI.obj
 0001:00091a00       ?metatable@?$usertype_traits@VVector@@@sol@@SAABV?$basic_string@DU?$char_traits@D@std@@V?$allocator@D@2@@std@@XZ 0000000010092a00     LuaAPI.obj
 0001:00091d80       ??$is_check@VVector@@@detail@sol@@YAHPAUlua_State@@@Z 0000000010092d80     LuaAPI.obj
 0001:00091e00       ?clear@usertype_storage_base@u_detail@sol@@QAEXXZ 0000000010092e00     LuaAPI.obj
 0001:00092500       ?clear@stack@sol@@YAXAAV?$basic_reference@$0A@@2@@Z 0000000010093500     LuaAPI.obj
 0001:000925c0       ?_Unchecked_erase@?$_Hash@V?$_Umap_traits@V?$basic_string_view@DU?$char_traits@D@std@@@std@@Uindex_call_storage@u_detail@sol@@V?$_Uhash_compare@V?$basic_string_view@DU?$char_traits@D@std@@@std@@U?$hash@V?$basic_string_view@DU?$char_traits@D@std@@@std@@@2@U?$equal_to@V?$basic_string_view@DU?$char_traits@D@std@@@std@@@2@@2@V?$allocator@U?$pair@$$CBV?$basic_string_view@DU?$char_traits@D@std@@@std@@Uindex_call_storage@u_detail@sol@@@std@@@2@$0A@@std@@@std@@AAEPAU?$_List_node@U?$pair@$$CBV?$basic_string_view@DU?$char_traits@D@std@@@std@@Uindex_call_storage@u_detail@sol@@@std@@PAX@2@PAU32@QAU32@@Z 00000000100935c0     LuaAPI.obj
 0001:00092840       ?clear@?$list@U?$pair@$$CBV?$basic_reference@$0A@@sol@@V12@@std@@V?$allocator@U?$pair@$$CBV?$basic_reference@$0A@@sol@@V12@@std@@@2@@std@@QAEXXZ 0000000010093840     LuaAPI.obj
 0001:000928d0       ??$destruct_usertype_storage@VVector@@@u_detail@sol@@YAHPAUlua_State@@@Z 00000000100938d0     LuaAPI.obj
 0001:000928f0       ?user_gc_metatable@?$usertype_traits@U?$usertype_storage@VVector@@@u_detail@sol@@@sol@@SAABV?$basic_string@DU?$char_traits@D@std@@V?$allocator@D@2@@std@@XZ 00000000100938f0     LuaAPI.obj
 0001:00092ce0       ??$ctti_get_type_name@U?$usertype_storage@VVector@@@u_detail@sol@@@detail@sol@@YA?AV?$basic_string@DU?$char_traits@D@std@@V?$allocator@D@2@@std@@XZ 0000000010093ce0     LuaAPI.obj
 0001:00092d70       ?ctti_get_type_name_from_sig@detail@sol@@YA?AV?$basic_string@DU?$char_traits@D@std@@V?$allocator@D@2@@std@@V34@@Z 0000000010093d70     LuaAPI.obj
 0001:000934b0       ??$user_allocate@U?$usertype_storage@VVector@@@u_detail@sol@@@detail@sol@@YAPAU?$usertype_storage@VVector@@@u_detail@1@PAUlua_State@@@Z 00000000100944b0     LuaAPI.obj
 0001:000936d0       ??0usertype_storage_base@u_detail@sol@@QAE@PAUlua_State@@@Z 00000000100946d0     LuaAPI.obj
 0001:00093a50       ?index_target_fail@u_detail@sol@@YAHPAUlua_State@@PAX@Z 0000000010094a50     LuaAPI.obj
 0001:00093ab0       ?new_index_target_fail@u_detail@sol@@YAHPAUlua_State@@PAX@Z 0000000010094ab0     LuaAPI.obj
 0001:00093ad0       ?new_index_target_set@usertype_storage_base@u_detail@sol@@SAHPAUlua_State@@PAX@Z 0000000010094ad0     LuaAPI.obj
 0001:00093c00       ??0?$_Hash@V?$_Umap_traits@V?$basic_string_view@DU?$char_traits@D@std@@@std@@Uindex_call_storage@u_detail@sol@@V?$_Uhash_compare@V?$basic_string_view@DU?$char_traits@D@std@@@std@@U?$hash@V?$basic_string_view@DU?$char_traits@D@std@@@std@@@2@U?$equal_to@V?$basic_string_view@DU?$char_traits@D@std@@@std@@@2@@2@V?$allocator@U?$pair@$$CBV?$basic_string_view@DU?$char_traits@D@std@@@std@@Uindex_call_storage@u_detail@sol@@@std@@@2@$0A@@std@@@std@@IAE@ABV?$_Uhash_compare@V?$basic_string_view@DU?$char_traits@D@std@@@std@@U?$hash@V?$basic_string_view@DU?$char_traits@D@std@@@std@@@2@U?$equal_to@V?$basic_string_view@DU?$char_traits@D@std@@@std@@@2@@1@ABV?$allocator@U?$pair@$$CBV?$basic_string_view@DU?$char_traits@D@std@@@std@@Uindex_call_storage@u_detail@sol@@@std@@@1@@Z 0000000010094c00     LuaAPI.obj
 0001:00093d60       ?_Assign_grow@?$_Hash_vec@V?$allocator@V?$_List_unchecked_iterator@V?$_List_val@U?$_List_simple_types@U?$pair@$$CBV?$basic_string_view@DU?$char_traits@D@std@@@std@@Uindex_call_storage@u_detail@sol@@@std@@@std@@@std@@@std@@@std@@@std@@QAEXIV?$_List_unchecked_iterator@V?$_List_val@U?$_List_simple_types@U?$pair@$$CBV?$basic_string_view@DU?$char_traits@D@std@@@std@@Uindex_call_storage@u_detail@sol@@@std@@@std@@@std@@@2@@Z 0000000010094d60     LuaAPI.obj
 0001:00094080       ??0?$_Hash@V?$_Umap_traits@V?$basic_reference@$0A@@sol@@V12@V?$_Uhash_compare@V?$basic_reference@$0A@@sol@@Ureference_hash@2@Ureference_equals@2@@std@@V?$allocator@U?$pair@$$CBV?$basic_reference@$0A@@sol@@V12@@std@@@4@$0A@@std@@@std@@IAE@ABV?$_Uhash_compare@V?$basic_reference@$0A@@sol@@Ureference_hash@2@Ureference_equals@2@@1@ABV?$allocator@U?$pair@$$CBV?$basic_reference@$0A@@sol@@V12@@std@@@1@@Z 0000000010095080     LuaAPI.obj
 0001:000941c0       ?_Assign_grow@?$_Hash_vec@V?$allocator@V?$_List_unchecked_iterator@V?$_List_val@U?$_List_simple_types@U?$pair@$$CBV?$basic_reference@$0A@@sol@@V12@@std@@@std@@@std@@@std@@@std@@@std@@QAEXIV?$_List_unchecked_iterator@V?$_List_val@U?$_List_simple_types@U?$pair@$$CBV?$basic_reference@$0A@@sol@@V12@@std@@@std@@@std@@@2@@Z 00000000100951c0     LuaAPI.obj
 0001:000944e0       ?_Tidy@?$list@U?$pair@$$CBV?$basic_reference@$0A@@sol@@V12@@std@@V?$allocator@U?$pair@$$CBV?$basic_reference@$0A@@sol@@V12@@std@@@2@@std@@AAEXXZ 00000000100954e0     LuaAPI.obj
 0001:00094570       ??$set@XV?$basic_reference@$0A@@sol@@V12@@usertype_storage_base@u_detail@sol@@QAEXPAUlua_State@@$$QAV?$basic_reference@$0A@@2@1@Z 0000000010095570     LuaAPI.obj
 0001:00094910       ??$set@XAAV?$basic_string@DU?$char_traits@D@std@@V?$allocator@D@2@@std@@V?$basic_reference@$0A@@sol@@@usertype_storage_base@u_detail@sol@@QAEXPAUlua_State@@AAV?$basic_string@DU?$char_traits@D@std@@V?$allocator@D@2@@std@@$$QAV?$basic_reference@$0A@@2@@Z 0000000010095910     LuaAPI.obj
 0001:000951b0       ??$call_with_@$00$00@?$binding@V?$basic_string@DU?$char_traits@D@std@@V?$allocator@D@2@@std@@V?$basic_reference@$0A@@sol@@X@u_detail@sol@@SAHPAUlua_State@@PAX@Z 00000000100961b0     LuaAPI.obj
 0001:00095210       ??$index_call_with_@$00$00@?$binding@V?$basic_string@DU?$char_traits@D@std@@V?$allocator@D@2@@std@@V?$basic_reference@$0A@@sol@@X@u_detail@sol@@SAHPAUlua_State@@PAX@Z 0000000010096210     LuaAPI.obj
 0001:00095270       ??$call_with_@$0A@$00@?$binding@V?$basic_string@DU?$char_traits@D@std@@V?$allocator@D@2@@std@@V?$basic_reference@$0A@@sol@@X@u_detail@sol@@SAHPAUlua_State@@PAX@Z 0000000010096270     LuaAPI.obj
 0001:00095320       ??$index_call_with_@$0A@$00@?$binding@V?$basic_string@DU?$char_traits@D@std@@V?$allocator@D@2@@std@@V?$basic_reference@$0A@@sol@@X@u_detail@sol@@SAHPAUlua_State@@PAX@Z 0000000010096320     LuaAPI.obj
 0001:000953d0       ??$index_call@$0A@@?$usertype_storage@X@u_detail@sol@@SAHPAUlua_State@@@Z 00000000100963d0     LuaAPI.obj
 0001:000953e0       ??$index_call@$00@?$usertype_storage@X@u_detail@sol@@SAHPAUlua_State@@@Z 00000000100963e0     LuaAPI.obj
 0001:000953f0       ??$meta_index_call@$0A@@?$usertype_storage@X@u_detail@sol@@SAHPAUlua_State@@@Z 00000000100963f0     LuaAPI.obj
 0001:00095400       ??$meta_index_call@$00@?$usertype_storage@X@u_detail@sol@@SAHPAUlua_State@@@Z 0000000010096400     LuaAPI.obj
 0001:00095410       ?change_indexing@usertype_storage_base@u_detail@sol@@QAEXPAUlua_State@@W4submetatable_type@23@PAXAAVstack_reference@3@P6AH0@Z444@Z 0000000010096410     LuaAPI.obj
 0001:00095640       ?data@?$binding@V?$basic_string@DU?$char_traits@D@std@@V?$allocator@D@2@@std@@V?$basic_reference@$0A@@sol@@X@u_detail@sol@@UAEPAXXZ 0000000010096640     LuaAPI.obj
 0001:00095650       ??_G?$binding@V?$basic_string@DU?$char_traits@D@std@@V?$allocator@D@2@@std@@V?$basic_reference@$0A@@sol@@X@u_detail@sol@@UAEPAXI@Z 0000000010096650     LuaAPI.obj
 0001:00095690       ??$_Emplace_reallocate@V?$unique_ptr@Ubinding_base@u_detail@sol@@U?$default_delete@Ubinding_base@u_detail@sol@@@std@@@std@@@?$vector@V?$unique_ptr@Ubinding_base@u_detail@sol@@U?$default_delete@Ubinding_base@u_detail@sol@@@std@@@std@@V?$allocator@V?$unique_ptr@Ubinding_base@u_detail@sol@@U?$default_delete@Ubinding_base@u_detail@sol@@@std@@@std@@@2@@std@@QAEPAV?$unique_ptr@Ubinding_base@u_detail@sol@@U?$default_delete@Ubinding_base@u_detail@sol@@@std@@@1@QAV21@$$QAV21@@Z 0000000010096690     LuaAPI.obj
 0001:00095bd0       ?meta_function_names@sol@@YAABV?$array@V?$basic_string@DU?$char_traits@D@std@@V?$allocator@D@2@@std@@$0CF@@std@@XZ 0000000010096bd0     LuaAPI.obj
 0001:00097130       ??$static_trampoline@$1??$index_call_@$0A@$0A@@?$usertype_storage@X@u_detail@sol@@SAHPAUlua_State@@@Z@detail@sol@@YAHPAUlua_State@@@Z 0000000010098130     LuaAPI.obj
 0001:00097290       ??$self_index_call@$0A@$0A@$0A@$$V@usertype_storage_base@u_detail@sol@@SAHU?$types@$$V@2@PAUlua_State@@AAU012@@Z 0000000010098290     LuaAPI.obj
 0001:00097540       ??$find@X@?$_Hash@V?$_Umap_traits@V?$basic_reference@$0A@@sol@@V12@V?$_Uhash_compare@V?$basic_reference@$0A@@sol@@Ureference_hash@2@Ureference_equals@2@@std@@V?$allocator@U?$pair@$$CBV?$basic_reference@$0A@@sol@@V12@@std@@@4@$0A@@std@@@std@@QAE?AV?$_List_iterator@V?$_List_val@U?$_List_simple_types@U?$pair@$$CBV?$basic_reference@$0A@@sol@@V12@@std@@@std@@@std@@@1@ABV?$basic_reference@$0A@@sol@@@Z 0000000010098540     LuaAPI.obj
 0001:00097600       ??$?8$0A@$0A@@sol@@YA_NABV?$basic_reference@$0A@@0@0@Z 0000000010098600     LuaAPI.obj
 0001:000976e0       ??$static_trampoline@$1??$index_call_@$00$0A@@?$usertype_storage@X@u_detail@sol@@SAHPAUlua_State@@@Z@detail@sol@@YAHPAUlua_State@@@Z 00000000100986e0     LuaAPI.obj
 0001:00097840       ??$self_index_call@$00$0A@$0A@$$V@usertype_storage_base@u_detail@sol@@SAHU?$types@$$V@2@PAUlua_State@@AAU012@@Z 0000000010098840     LuaAPI.obj
 0001:00097af0       ??$static_trampoline@$1??$index_call_@$0A@$00@?$usertype_storage@X@u_detail@sol@@SAHPAUlua_State@@@Z@detail@sol@@YAHPAUlua_State@@@Z 0000000010098af0     LuaAPI.obj
 0001:00097c50       ??$self_index_call@$0A@$0A@$00$$V@usertype_storage_base@u_detail@sol@@SAHU?$types@$$V@2@PAUlua_State@@AAU012@@Z 0000000010098c50     LuaAPI.obj
 0001:00097f00       ??$static_trampoline@$1??$index_call_@$00$00@?$usertype_storage@X@u_detail@sol@@SAHPAUlua_State@@@Z@detail@sol@@YAHPAUlua_State@@@Z 0000000010098f00     LuaAPI.obj
 0001:00098060       ??$self_index_call@$00$0A@$00$$V@usertype_storage_base@u_detail@sol@@SAHU?$types@$$V@2@PAUlua_State@@AAU012@@Z 0000000010099060     LuaAPI.obj
 0001:00098310       ??$set@W4meta_function@sol@@U?$closure@$$TAAPAXAAPAX$$TABH@2@@?$field_setter@W4meta_function@sol@@$0A@$00X@stack@sol@@QAEXPAUlua_State@@$$QAW4meta_function@2@$$QAU?$closure@$$TAAPAXAAPAX$$TABH@2@H@Z 0000000010099310     LuaAPI.obj
 0001:000983e0       ??Rstring_for_each_metatable_func@u_detail@sol@@QAEXPAUlua_State@@W4submetatable_type@12@AAV?$basic_reference@$0A@@2@@Z 00000000100993e0     LuaAPI.obj
 0001:000985b0       ??$set@AAV?$basic_string@DU?$char_traits@D@std@@V?$allocator@D@2@@std@@AAV?$basic_reference@$0A@@sol@@@?$field_setter@V?$basic_string@DU?$char_traits@D@std@@V?$allocator@D@2@@std@@$0A@$00X@stack@sol@@QAEXPAUlua_State@@AAV?$basic_string@DU?$char_traits@D@std@@V?$allocator@D@2@@std@@AAV?$basic_reference@$0A@@2@H@Z 00000000100995b0     LuaAPI.obj
 0001:00098650       ??$set@AAV?$basic_string@DU?$char_traits@D@std@@V?$allocator@D@2@@std@@U?$closure@$$TAAPAX@sol@@@?$field_setter@V?$basic_string@DU?$char_traits@D@std@@V?$allocator@D@2@@std@@$0A@$00X@stack@sol@@QAEXPAUlua_State@@AAV?$basic_string@DU?$char_traits@D@std@@V?$allocator@D@2@@std@@$$QAU?$closure@$$TAAPAX@2@H@Z 0000000010099650     LuaAPI.obj
 0001:000986d0       ??$_Emplace_reallocate@PAD@?$vector@V?$unique_ptr@$$BY0A@DU?$default_delete@$$BY0A@D@std@@@std@@V?$allocator@V?$unique_ptr@$$BY0A@DU?$default_delete@$$BY0A@D@std@@@std@@@2@@std@@QAEPAV?$unique_ptr@$$BY0A@DU?$default_delete@$$BY0A@D@std@@@1@QAV21@$$QAPAD@Z 00000000100996d0     LuaAPI.obj
 0001:00098c00       ??$_Insert_or_assign@V?$basic_string_view@DU?$char_traits@D@std@@@std@@Uindex_call_storage@u_detail@sol@@@?$unordered_map@V?$basic_string_view@DU?$char_traits@D@std@@@std@@Uindex_call_storage@u_detail@sol@@U?$hash@V?$basic_string_view@DU?$char_traits@D@std@@@std@@@2@U?$equal_to@V?$basic_string_view@DU?$char_traits@D@std@@@std@@@2@V?$allocator@U?$pair@$$CBV?$basic_string_view@DU?$char_traits@D@std@@@std@@Uindex_call_storage@u_detail@sol@@@std@@@2@@std@@AAE?AU?$pair@V?$_List_iterator@V?$_List_val@U?$_List_simple_types@U?$pair@$$CBV?$basic_string_view@DU?$char_traits@D@std@@@std@@Uindex_call_storage@u_detail@sol@@@std@@@std@@@std@@@std@@_N@1@$$QAV?$basic_string_view@DU?$char_traits@D@std@@@1@$$QAUindex_call_storage@u_detail@sol@@@Z 0000000010099c00     LuaAPI.obj
 0001:00098f50       ?_Forced_rehash@?$_Hash@V?$_Umap_traits@V?$basic_string_view@DU?$char_traits@D@std@@@std@@Uindex_call_storage@u_detail@sol@@V?$_Uhash_compare@V?$basic_string_view@DU?$char_traits@D@std@@@std@@U?$hash@V?$basic_string_view@DU?$char_traits@D@std@@@std@@@2@U?$equal_to@V?$basic_string_view@DU?$char_traits@D@std@@@std@@@2@@2@V?$allocator@U?$pair@$$CBV?$basic_string_view@DU?$char_traits@D@std@@@std@@Uindex_call_storage@u_detail@sol@@@std@@@2@$0A@@std@@@std@@IAEXI@Z 0000000010099f50     LuaAPI.obj
 0001:000991a0       ??Rlua_reference_func@u_detail@sol@@QAEXPAUlua_State@@W4submetatable_type@12@AAV?$basic_reference@$0A@@2@@Z 000000001009a1a0     LuaAPI.obj
 0001:00099230       ??$set@AAV?$basic_reference@$0A@@sol@@AAV12@@?$field_setter@V?$basic_reference@$0A@@sol@@$0A@$00X@stack@sol@@QAEXPAUlua_State@@AAV?$basic_reference@$0A@@2@1H@Z 000000001009a230     LuaAPI.obj
 0001:000992e0       ??$_Insert_or_assign@V?$basic_reference@$0A@@sol@@V12@@?$unordered_map@V?$basic_reference@$0A@@sol@@V12@Ureference_hash@2@Ureference_equals@2@V?$allocator@U?$pair@$$CBV?$basic_reference@$0A@@sol@@V12@@std@@@std@@@std@@AAE?AU?$pair@V?$_List_iterator@V?$_List_val@U?$_List_simple_types@U?$pair@$$CBV?$basic_reference@$0A@@sol@@V12@@std@@@std@@@std@@@std@@_N@1@$$QAV?$basic_reference@$0A@@sol@@0@Z 000000001009a2e0     LuaAPI.obj
 0001:00099690       ?_Forced_rehash@?$_Hash@V?$_Umap_traits@V?$basic_reference@$0A@@sol@@V12@V?$_Uhash_compare@V?$basic_reference@$0A@@sol@@Ureference_hash@2@Ureference_equals@2@@std@@V?$allocator@U?$pair@$$CBV?$basic_reference@$0A@@sol@@V12@@std@@@4@$0A@@std@@@std@@IAEXI@Z 000000001009a690     LuaAPI.obj
 0001:00099a20       ??$set@W4meta_function@sol@@P6AHPAUlua_State@@@Z@?$field_setter@W4meta_function@sol@@$0A@$0A@X@stack@sol@@QAEXPAUlua_State@@$$QAW4meta_function@2@$$QAP6AH0@ZH@Z 000000001009aa20     LuaAPI.obj
 0001:00099aa0       ??$set@W4submetatable_type@u_detail@sol@@PBD@?$field_setter@W4submetatable_type@u_detail@sol@@$0A@$0A@X@stack@sol@@QAEXPAUlua_State@@$$QAW4submetatable_type@u_detail@2@$$QAPBDH@Z 000000001009aaa0     LuaAPI.obj
 0001:00099b20       ??$ctti_get_type_name@$$CBVVector@@@detail@sol@@YA?AV?$basic_string@DU?$char_traits@D@std@@V?$allocator@D@2@@std@@XZ 000000001009ab20     LuaAPI.obj
 0001:00099bb0       ??$ctti_get_type_name@PBVVector@@@detail@sol@@YA?AV?$basic_string@DU?$char_traits@D@std@@V?$allocator@D@2@@std@@XZ 000000001009abb0     LuaAPI.obj
 0001:00099c40       ??$ctti_get_type_name@PAVVector@@@detail@sol@@YA?AV?$basic_string@DU?$char_traits@D@std@@V?$allocator@D@2@@std@@XZ 000000001009ac40     LuaAPI.obj
 0001:00099cd0       ??$ctti_get_type_name@U?$unique_usertype@VVector@@@detail@sol@@@detail@sol@@YA?AV?$basic_string@DU?$char_traits@D@std@@V?$allocator@D@2@@std@@XZ 000000001009acd0     LuaAPI.obj
 0001:00099d60       ??$ctti_get_type_name@VVector@@@detail@sol@@YA?AV?$basic_string@DU?$char_traits@D@std@@V?$allocator@D@2@@std@@XZ 000000001009ad60     LuaAPI.obj
 0001:00099df0       ??$check@VVector@@P6AHPAUlua_State@@HW4type@sol@@1PBD@_E@?$unqualified_checker@U?$as_value_tag@VVector@@@detail@sol@@$06X@stack@sol@@SA_NU?$types@VVector@@@2@PAUlua_State@@HW4type@2@$$QAP6AH1H22PBD@_EAAUrecord@12@@Z 000000001009adf0     LuaAPI.obj
 0001:0009a0e0       ?qualified_name@?$usertype_traits@VVector@@@sol@@SAABV?$basic_string@DU?$char_traits@D@std@@V?$allocator@D@2@@std@@XZ 000000001009b0e0     LuaAPI.obj
 0001:0009a210       ?metatable@?$usertype_traits@U?$as_container_t@VVector@@@sol@@@sol@@SAABV?$basic_string@DU?$char_traits@D@std@@V?$allocator@D@2@@std@@XZ 000000001009b210     LuaAPI.obj
 0001:0009a590       ??$ctti_get_type_name@U?$as_container_t@VVector@@@sol@@@detail@sol@@YA?AV?$basic_string@DU?$char_traits@D@std@@V?$allocator@D@2@@std@@XZ 000000001009b590     LuaAPI.obj
 0001:0009a620       ??R<lambda_1>@?0???$register_usertype@VVector@@@u_detail@sol@@YAHPAUlua_State@@Uautomagic_enrollments@2@@Z@QBE?A?<auto>@@0W4submetatable_type@12@AAV?$basic_reference@$0A@@2@@Z 000000001009b620     LuaAPI.obj
 0001:0009ac10       ?user_metatable@?$usertype_traits@VVector@@@sol@@SAABV?$basic_string@DU?$char_traits@D@std@@V?$allocator@D@2@@std@@XZ 000000001009bc10     LuaAPI.obj
 0001:0009b000       ??$unique_destruct@VVector@@@detail@sol@@YAHPAUlua_State@@@Z 000000001009c000     LuaAPI.obj
 0001:0009b040       ?type_check@?$inheritance@VVector@@@detail@sol@@SA_NABV?$basic_string_view@DU?$char_traits@D@std@@@std@@@Z 000000001009c040     LuaAPI.obj
 0001:0009b080       ?type_cast@?$inheritance@VVector@@@detail@sol@@SAPAXPAXABV?$basic_string_view@DU?$char_traits@D@std@@@std@@@Z 000000001009c080     LuaAPI.obj
 0001:0009b0c0       ??$insert_default_registrations@VVector@@AAV<lambda_1>@?0???R2?0???$register_usertype@VVector@@@u_detail@sol@@YAHPAUlua_State@@Uautomagic_enrollments@4@@Z@QBE?A?<auto>@@0W4submetatable_type@34@AAV?$basic_reference@$0A@@4@@Z@AAUproperties_enrollment_allowed@detail@4@@detail@sol@@YAXAAV<lambda_1>@?0???R2?0???$register_usertype@VVector@@@u_detail@1@YAHPAUlua_State@@Uautomagic_enrollments@1@@Z@QBE?A?<auto>@@0W4submetatable_type@31@AAV?$basic_reference@$0A@@1@@Z@AAUproperties_enrollment_allowed@01@@Z 000000001009c0c0     LuaAPI.obj
 0001:0009b200       ??$meta_index_call@$0A@@?$usertype_storage@VVector@@@u_detail@sol@@SAHPAUlua_State@@@Z 000000001009c200     LuaAPI.obj
 0001:0009b210       ??$meta_index_call@$00@?$usertype_storage@VVector@@@u_detail@sol@@SAHPAUlua_State@@@Z 000000001009c210     LuaAPI.obj
 0001:0009b220       ??$index_call@$00@?$usertype_storage@VVector@@@u_detail@sol@@SAHPAUlua_State@@@Z 000000001009c220     LuaAPI.obj
 0001:0009b230       ??0?$basic_reference@$0A@@sol@@QAE@PAUlua_State@@ABVstack_reference@1@@Z 000000001009c230     LuaAPI.obj
 0001:0009b2f0       ??$set@W4meta_function@sol@@AAV?$basic_reference@$0A@@2@@?$field_setter@W4meta_function@sol@@$0A@$00X@stack@sol@@QAEXPAUlua_State@@$$QAW4meta_function@2@AAV?$basic_reference@$0A@@2@H@Z 000000001009c2f0     LuaAPI.obj
 0001:0009b3a0       ??$set@W4meta_function@sol@@P6AHPAUlua_State@@@Z@?$field_setter@W4meta_function@sol@@$0A@$00X@stack@sol@@QAEXPAUlua_State@@$$QAW4meta_function@2@$$QAP6AH0@ZH@Z 000000001009c3a0     LuaAPI.obj
 0001:0009b420       ??$usertype_alloc_destruct@VVector@@@detail@sol@@YAHPAUlua_State@@@Z 000000001009c420     LuaAPI.obj
 0001:0009b440       ??$comparsion_operator_wrap@VVector@@U?$equal_to@X@std@@@detail@sol@@YAHPAUlua_State@@@Z 000000001009c440     LuaAPI.obj
 0001:0009b510       ?pairs_call@?$u_c_launch@U?$as_container_t@VVector@@@sol@@@container_detail@sol@@SAHPAUlua_State@@@Z 000000001009c510     LuaAPI.obj
 0001:0009b520       ??$get_using@V?$optional@AAVVector@@@sol@@AAP6AHPAUlua_State@@HW4type@2@1PBD@_E@?$unqualified_check_getter@VVector@@X@stack@sol@@SA?AV?$optional@AAVVector@@@2@PAUlua_State@@HAAP6AH0HW4type@2@1PBD@_EAAUrecord@12@@Z 000000001009c520     LuaAPI.obj
 0001:0009b5d0       ??$check@VVector@@AAP6AHPAUlua_State@@HW4type@sol@@1PBD@_E@?$unqualified_checker@U?$as_value_tag@VVector@@@detail@sol@@$06X@stack@sol@@SA_NU?$types@VVector@@@2@PAUlua_State@@HW4type@2@AAP6AH1H22PBD@_EAAUrecord@12@@Z 000000001009c5d0     LuaAPI.obj
 0001:0009b8c0       ?get_no_lua_nil_from@?$unqualified_getter@U?$as_value_tag@VVector@@@detail@sol@@X@stack@sol@@SAPAVVector@@PAUlua_State@@PAXHAAUrecord@23@@Z 000000001009c8c0     LuaAPI.obj
 0001:0009b960       ??$set@AAW4meta_function@sol@@AAP6AHPAUlua_State@@@Z@?$field_setter@W4meta_function@sol@@$0A@$00X@stack@sol@@QAEXPAUlua_State@@AAW4meta_function@2@AAP6AH0@ZH@Z 000000001009c960     LuaAPI.obj
 0001:0009b9e0       ??$static_trampoline@$1?real_pairs_call@?$u_c_launch@U?$as_container_t@VVector@@@sol@@@container_detail@sol@@SAHPAUlua_State@@@Z@detail@sol@@YAHPAUlua_State@@@Z 000000001009c9e0     LuaAPI.obj
 0001:0009bbb0       ??$set@W4meta_function@sol@@AAPAX@?$field_setter@W4meta_function@sol@@$0A@$00X@stack@sol@@QAEXPAUlua_State@@$$QAW4meta_function@2@AAPAXH@Z 000000001009cbb0     LuaAPI.obj
 0001:0009bc20       ??$static_trampoline@$1??$index_call_@$0A@$00@?$usertype_storage@VVector@@@u_detail@sol@@SAHPAUlua_State@@@Z@detail@sol@@YAHPAUlua_State@@@Z 000000001009cc20     LuaAPI.obj
 0001:0009bd80       ??$static_trampoline@$1??$index_call_@$00$00@?$usertype_storage@VVector@@@u_detail@sol@@SAHPAUlua_State@@@Z@detail@sol@@YAHPAUlua_State@@@Z 000000001009cd80     LuaAPI.obj
 0001:0009bee0       ??$set@W4meta_function@sol@@AAVstack_reference@2@@?$field_setter@W4meta_function@sol@@$0A@$00X@stack@sol@@QAEXPAUlua_State@@$$QAW4meta_function@2@AAVstack_reference@2@H@Z 000000001009cee0     LuaAPI.obj
 0001:0009bf50       ??$static_trampoline@$1??$index_call_@$00$0A@@?$usertype_storage@VVector@@@u_detail@sol@@SAHPAUlua_State@@@Z@detail@sol@@YAHPAUlua_State@@@Z 000000001009cf50     LuaAPI.obj
 0001:0009c0b0       ??$set@VVector@@W4meta_function@sol@@U?$constructor_list@$$A6A?AVVector@@XZ@3@@usertype_storage_base@u_detail@sol@@QAEXPAUlua_State@@$$QAW4meta_function@2@$$QAU?$constructor_list@$$A6A?AVVector@@XZ@2@@Z 000000001009d0b0     LuaAPI.obj
 0001:0009c930       ??$call_with_@$00$0A@@?$binding@W4meta_function@sol@@U?$constructor_list@$$A6A?AVVector@@XZ@2@VVector@@@u_detail@sol@@SAHPAUlua_State@@PAX@Z 000000001009d930     LuaAPI.obj
 0001:0009c940       ??$index_call_with_@$00$0A@@?$binding@W4meta_function@sol@@U?$constructor_list@$$A6A?AVVector@@XZ@2@VVector@@@u_detail@sol@@SAHPAUlua_State@@PAX@Z 000000001009d940     LuaAPI.obj
 0001:0009c980       ??$call_with_@$0A@$0A@@?$binding@W4meta_function@sol@@U?$constructor_list@$$A6A?AVVector@@XZ@2@VVector@@@u_detail@sol@@SAHPAUlua_State@@PAX@Z 000000001009d980     LuaAPI.obj
 0001:0009c990       ??$index_call_with_@$0A@$0A@@?$binding@W4meta_function@sol@@U?$constructor_list@$$A6A?AVVector@@XZ@2@VVector@@@u_detail@sol@@SAHPAUlua_State@@PAX@Z 000000001009d990     LuaAPI.obj
 0001:0009c9d0       ??$call@$0A@$0A@@?$binding@W4meta_function@sol@@U?$constructor_list@$$A6A?AVVector@@XZ@2@VVector@@@u_detail@sol@@SAHPAUlua_State@@@Z 000000001009d9d0     LuaAPI.obj
 0001:0009c9e0       ??$index_call@$0A@@?$usertype_storage@VVector@@@u_detail@sol@@SAHPAUlua_State@@@Z 000000001009d9e0     LuaAPI.obj
 0001:0009c9f0       ?data@?$binding@W4meta_function@sol@@U?$constructor_list@$$A6A?AVVector@@XZ@2@VVector@@@u_detail@sol@@UAEPAXXZ 000000001009d9f0     LuaAPI.obj
 0001:0009ca00       ??_G?$binding@W4meta_function@sol@@U?$constructor_list@$$A6A?AVVector@@XZ@2@VVector@@@u_detail@sol@@UAEPAXI@Z 000000001009da00     LuaAPI.obj
 0001:0009ca20       ?call@?$lua_call_wrapper@VVector@@U?$constructor_list@$$A6A?AVVector@@XZ@sol@@$00$0A@$0A@$0A@$00X@call_detail@sol@@SAHPAUlua_State@@AAU?$constructor_list@$$A6A?AVVector@@XZ@3@@Z 000000001009da20     LuaAPI.obj
 0001:0009cbf0       ??$usertype_allocate@VVector@@@detail@sol@@YAPAVVector@@PAUlua_State@@@Z 000000001009dbf0     LuaAPI.obj
 0001:0009ced0       ??$set_undefined_methods_on@VVector@@@stack_detail@stack@sol@@YAXVstack_reference@2@@Z 000000001009ded0     LuaAPI.obj
 0001:0009d180       ??Rundefined_metatable@stack_detail@stack@sol@@QBEXXZ 000000001009e180     LuaAPI.obj
 0001:0009d1f0       ??$call@$00$0A@@?$binding@W4meta_function@sol@@U?$constructor_list@$$A6A?AVVector@@XZ@2@VVector@@@u_detail@sol@@SAHPAUlua_State@@@Z 000000001009e1f0     LuaAPI.obj
 0001:0009d200       ??$static_trampoline@$1??$call_@$00$0A@@?$binding@W4meta_function@sol@@U?$constructor_list@$$A6A?AVVector@@XZ@2@VVector@@@u_detail@sol@@SAHPAUlua_State@@@Z@detail@sol@@YAHPAUlua_State@@@Z 000000001009e200     LuaAPI.obj
 0001:0009d350       ?call@?$lua_call_wrapper@VVector@@U?$constructor_list@$$A6A?AVVector@@XZ@sol@@$0A@$0A@$0A@$0A@$00X@call_detail@sol@@SAHPAUlua_State@@AAU?$constructor_list@$$A6A?AVVector@@XZ@3@@Z 000000001009e350     LuaAPI.obj
 0001:0009d520       ??$static_trampoline@$1??$call_@$0A@$0A@@?$binding@W4meta_function@sol@@U?$constructor_list@$$A6A?AVVector@@XZ@2@VVector@@@u_detail@sol@@SAHPAUlua_State@@@Z@detail@sol@@YAHPAUlua_State@@@Z 000000001009e520     LuaAPI.obj
 0001:0009d670       ??$static_trampoline@$1??$index_call_@$0A@$0A@@?$usertype_storage@VVector@@@u_detail@sol@@SAHPAUlua_State@@@Z@detail@sol@@YAHPAUlua_State@@@Z 000000001009e670     LuaAPI.obj
 0001:0009d7d0       ??$traverse_set_deep@$00$0A@$0A@ABV?$basic_string@DU?$char_traits@D@std@@V?$allocator@D@2@@std@@AAV?$basic_usertype@VVector@@V?$basic_reference@$0A@@sol@@@sol@@@?$basic_table_core@$00V?$basic_reference@$0A@@sol@@@sol@@ABEXHABV?$basic_string@DU?$char_traits@D@std@@V?$allocator@D@2@@std@@AAV?$basic_usertype@VVector@@V?$basic_reference@$0A@@sol@@@1@@Z 000000001009e7d0     LuaAPI.obj
 0001:0009d850       ??$set@VVector@@W4meta_function@sol@@U?$constructor_list@$$A6A?AVVector@@XZ$$A6A?AV1@MMM@Z$$A6A?AV1@HHH@Z@3@@usertype_storage_base@u_detail@sol@@QAEXPAUlua_State@@$$QAW4meta_function@2@$$QAU?$constructor_list@$$A6A?AVVector@@XZ$$A6A?AV1@MMM@Z$$A6A?AV1@HHH@Z@2@@Z 000000001009e850     LuaAPI.obj
 0001:0009e0d0       ??$call_with_@$00$0A@@?$binding@W4meta_function@sol@@U?$constructor_list@$$A6A?AVVector@@XZ$$A6A?AV1@MMM@Z$$A6A?AV1@HHH@Z@2@VVector@@@u_detail@sol@@SAHPAUlua_State@@PAX@Z 000000001009f0d0     LuaAPI.obj
 0001:0009e0e0       ??$index_call_with_@$00$0A@@?$binding@W4meta_function@sol@@U?$constructor_list@$$A6A?AVVector@@XZ$$A6A?AV1@MMM@Z$$A6A?AV1@HHH@Z@2@VVector@@@u_detail@sol@@SAHPAUlua_State@@PAX@Z 000000001009f0e0     LuaAPI.obj
 0001:0009e120       ??$call_with_@$0A@$0A@@?$binding@W4meta_function@sol@@U?$constructor_list@$$A6A?AVVector@@XZ$$A6A?AV1@MMM@Z$$A6A?AV1@HHH@Z@2@VVector@@@u_detail@sol@@SAHPAUlua_State@@PAX@Z 000000001009f120     LuaAPI.obj
 0001:0009e130       ??$index_call_with_@$0A@$0A@@?$binding@W4meta_function@sol@@U?$constructor_list@$$A6A?AVVector@@XZ$$A6A?AV1@MMM@Z$$A6A?AV1@HHH@Z@2@VVector@@@u_detail@sol@@SAHPAUlua_State@@PAX@Z 000000001009f130     LuaAPI.obj
 0001:0009e170       ??$call@$0A@$0A@@?$binding@W4meta_function@sol@@U?$constructor_list@$$A6A?AVVector@@XZ$$A6A?AV1@MMM@Z$$A6A?AV1@HHH@Z@2@VVector@@@u_detail@sol@@SAHPAUlua_State@@@Z 000000001009f170     LuaAPI.obj
 0001:0009e180       ?data@?$binding@W4meta_function@sol@@U?$constructor_list@$$A6A?AVVector@@XZ$$A6A?AV1@MMM@Z$$A6A?AV1@HHH@Z@2@VVector@@@u_detail@sol@@UAEPAXXZ 000000001009f180     LuaAPI.obj
 0001:0009e190       ??_G?$binding@W4meta_function@sol@@U?$constructor_list@$$A6A?AVVector@@XZ$$A6A?AV1@MMM@Z$$A6A?AV1@HHH@Z@2@VVector@@@u_detail@sol@@UAEPAXI@Z 000000001009f190     LuaAPI.obj
 0001:0009e1b0       ?call@?$lua_call_wrapper@VVector@@U?$constructor_list@$$A6A?AVVector@@XZ$$A6A?AV1@MMM@Z$$A6A?AV1@HHH@Z@sol@@$00$0A@$0A@$0A@$00X@call_detail@sol@@SAHPAUlua_State@@AAU?$constructor_list@$$A6A?AVVector@@XZ$$A6A?AV1@MMM@Z$$A6A?AV1@HHH@Z@3@@Z 000000001009f1b0     LuaAPI.obj
 0001:0009e3b0       ??$overload_match_arity@$$A6AXMMM@Z$$A6AXHHH@Z$00$01$$Z$0A@U?$constructor_match@VVector@@$0A@$00@call_detail@sol@@$$V@overload_detail@call_detail@sol@@YAHU?$types@$$A6AXMMM@Z$$A6AXHHH@Z@2@U?$integer_sequence@I$00$01@std@@U?$integer_sequence@I$0A@@5@$$QAU?$constructor_match@VVector@@$0A@$00@12@PAUlua_State@@HH@Z 000000001009f3b0     LuaAPI.obj
 0001:0009e4a0       ??$overload_match_arity@$$A6AXHHH@Z$$V$01$S$$Z$0A@U?$constructor_match@VVector@@$0A@$00@call_detail@sol@@$$V@overload_detail@call_detail@sol@@YAHU?$types@$$A6AXHHH@Z@2@U?$integer_sequence@I$01@std@@U?$integer_sequence@I$0A@@5@$$QAU?$constructor_match@VVector@@$0A@$00@12@PAUlua_State@@HH@Z 000000001009f4a0     LuaAPI.obj
 0001:0009e580       ??$call@$00$0A@@?$binding@W4meta_function@sol@@U?$constructor_list@$$A6A?AVVector@@XZ$$A6A?AV1@MMM@Z$$A6A?AV1@HHH@Z@2@VVector@@@u_detail@sol@@SAHPAUlua_State@@@Z 000000001009f580     LuaAPI.obj
 0001:0009e590       ??$static_trampoline@$1??$call_@$00$0A@@?$binding@W4meta_function@sol@@U?$constructor_list@$$A6A?AVVector@@XZ$$A6A?AV1@MMM@Z$$A6A?AV1@HHH@Z@2@VVector@@@u_detail@sol@@SAHPAUlua_State@@@Z@detail@sol@@YAHPAUlua_State@@@Z 000000001009f590     LuaAPI.obj
 0001:0009e6e0       ?call@?$lua_call_wrapper@VVector@@U?$constructor_list@$$A6A?AVVector@@XZ$$A6A?AV1@MMM@Z$$A6A?AV1@HHH@Z@sol@@$0A@$0A@$0A@$0A@$00X@call_detail@sol@@SAHPAUlua_State@@AAU?$constructor_list@$$A6A?AVVector@@XZ$$A6A?AV1@MMM@Z$$A6A?AV1@HHH@Z@3@@Z 000000001009f6e0     LuaAPI.obj
 0001:0009e8e0       ??$static_trampoline@$1??$call_@$0A@$0A@@?$binding@W4meta_function@sol@@U?$constructor_list@$$A6A?AVVector@@XZ$$A6A?AV1@MMM@Z$$A6A?AV1@HHH@Z@2@VVector@@@u_detail@sol@@SAHPAUlua_State@@@Z@detail@sol@@YAHPAUlua_State@@@Z 000000001009f8e0     LuaAPI.obj
 0001:0009ea30       ??$traverse_set@W4meta_function@sol@@U?$tagged@VVector@@U?$constructor_list@$$A6A?AVVector@@XZ$$A6A?AV1@MMM@Z$$A6A?AV1@HHH@Z@sol@@@detail@2@@?$basic_table_core@$0A@V?$basic_reference@$0A@@sol@@@sol@@QAEAAV01@$$QAW4meta_function@1@$$QAU?$tagged@VVector@@U?$constructor_list@$$A6A?AVVector@@XZ$$A6A?AV1@MMM@Z$$A6A?AV1@HHH@Z@sol@@@detail@1@@Z 000000001009fa30     LuaAPI.obj
 0001:0009eb40       ??$set@W4meta_function@sol@@U?$tagged@VVector@@U?$constructor_list@$$A6A?AVVector@@XZ$$A6A?AV1@MMM@Z$$A6A?AV1@HHH@Z@sol@@@detail@2@@?$field_setter@W4meta_function@sol@@$0A@$0A@X@stack@sol@@QAEXPAUlua_State@@$$QAW4meta_function@2@$$QAU?$tagged@VVector@@U?$constructor_list@$$A6A?AVVector@@XZ$$A6A?AV1@MMM@Z$$A6A?AV1@HHH@Z@sol@@@detail@2@H@Z 000000001009fb40     LuaAPI.obj
 0001:0009ebb0       ??$construct@VVector@@$0A@$00$$A6A?AV1@XZ$$A6A?AV1@MMM@Z$$A6A?AV1@HHH@Z@call_detail@sol@@YAHPAUlua_State@@@Z 000000001009fbb0     LuaAPI.obj
 0001:0009ebd0       ??$construct_trampolined@VVector@@$0A@$00$$A6A?AV1@XZ$$A6A?AV1@MMM@Z$$A6A?AV1@HHH@Z@call_detail@sol@@YAHPAUlua_State@@@Z 000000001009fbd0     LuaAPI.obj
 0001:0009ee50       ??$set@V?$basic_string@DU?$char_traits@D@std@@V?$allocator@D@2@@std@@PQVector@@M@?$basic_usertype@VVector@@V?$basic_reference@$0A@@sol@@@sol@@QAEX$$QAV?$basic_string@DU?$char_traits@D@std@@V?$allocator@D@2@@std@@$$QAPQVector@@M@Z 000000001009fe50     LuaAPI.obj
 0001:0009eef0       ??$set@V?$basic_string@DU?$char_traits@D@std@@V?$allocator@D@2@@std@@P8Vector@@BEMXZ@?$basic_usertype@VVector@@V?$basic_reference@$0A@@sol@@@sol@@QAEX$$QAV?$basic_string@DU?$char_traits@D@std@@V?$allocator@D@2@@std@@$$QAP8Vector@@BEMXZ@Z 000000001009fef0     LuaAPI.obj
 0001:0009ef90       ??$set@V?$basic_string@DU?$char_traits@D@std@@V?$allocator@D@2@@std@@P8Vector@@BEMABV3@@Z@?$basic_usertype@VVector@@V?$basic_reference@$0A@@sol@@@sol@@QAEX$$QAV?$basic_string@DU?$char_traits@D@std@@V?$allocator@D@2@@std@@$$QAP8Vector@@BEMABV4@@Z@Z 000000001009ff90     LuaAPI.obj
 0001:0009f030       ??$set@V?$basic_string@DU?$char_traits@D@std@@V?$allocator@D@2@@std@@P8Vector@@AE?AV3@ABV3@@Z@?$basic_usertype@VVector@@V?$basic_reference@$0A@@sol@@@sol@@QAEX$$QAV?$basic_string@DU?$char_traits@D@std@@V?$allocator@D@2@@std@@$$QAP8Vector@@AE?AV4@ABV4@@Z@Z 00000000100a0030     LuaAPI.obj
 0001:0009f0d0       ??$set@VVector@@V?$basic_string@DU?$char_traits@D@std@@V?$allocator@D@2@@std@@PQ1@M@usertype_storage_base@u_detail@sol@@QAEXPAUlua_State@@$$QAV?$basic_string@DU?$char_traits@D@std@@V?$allocator@D@2@@std@@$$QAPQVector@@M@Z 00000000100a00d0     LuaAPI.obj
 0001:0009f950       ??$call_with_@$00$00@?$binding@V?$basic_string@DU?$char_traits@D@std@@V?$allocator@D@2@@std@@PQVector@@MV3@@u_detail@sol@@SAHPAUlua_State@@PAX@Z 00000000100a0950     LuaAPI.obj
 0001:0009f9d0       ??$index_call_with_@$00$00@?$binding@V?$basic_string@DU?$char_traits@D@std@@V?$allocator@D@2@@std@@PQVector@@MV3@@u_detail@sol@@SAHPAUlua_State@@PAX@Z 00000000100a09d0     LuaAPI.obj
 0001:0009fa50       ??$call_with_@$0A@$00@?$binding@V?$basic_string@DU?$char_traits@D@std@@V?$allocator@D@2@@std@@PQVector@@MV3@@u_detail@sol@@SAHPAUlua_State@@PAX@Z 00000000100a0a50     LuaAPI.obj
 0001:0009fac0       ??$index_call_with_@$0A@$00@?$binding@V?$basic_string@DU?$char_traits@D@std@@V?$allocator@D@2@@std@@PQVector@@MV3@@u_detail@sol@@SAHPAUlua_State@@PAX@Z 00000000100a0ac0     LuaAPI.obj
 0001:0009fb30       ??$call@$0A@$00@?$binding@V?$basic_string@DU?$char_traits@D@std@@V?$allocator@D@2@@std@@PQVector@@MV3@@u_detail@sol@@SAHPAUlua_State@@@Z 00000000100a0b30     LuaAPI.obj
 0001:0009fb40       ?data@?$binding@V?$basic_string@DU?$char_traits@D@std@@V?$allocator@D@2@@std@@PQVector@@MV3@@u_detail@sol@@UAEPAXXZ 00000000100a0b40     LuaAPI.obj
 0001:0009fb50       ??_G?$binding@V?$basic_string@DU?$char_traits@D@std@@V?$allocator@D@2@@std@@PQVector@@MV3@@u_detail@sol@@UAEPAXI@Z 00000000100a0b50     LuaAPI.obj
 0001:0009fb70       ??$static_trampoline@$1??$call_@$0A@$00@?$binding@V?$basic_string@DU?$char_traits@D@std@@V?$allocator@D@2@@std@@PQVector@@MV3@@u_detail@sol@@SAHPAUlua_State@@@Z@detail@sol@@YAHPAUlua_State@@@Z 00000000100a0b70     LuaAPI.obj
 0001:0009fd10       ??$traverse_set@V?$basic_string@DU?$char_traits@D@std@@V?$allocator@D@2@@std@@PQVector@@M@?$basic_table_core@$0A@V?$basic_reference@$0A@@sol@@@sol@@QAEAAV01@$$QAV?$basic_string@DU?$char_traits@D@std@@V?$allocator@D@2@@std@@$$QAPQVector@@M@Z 00000000100a0d10     LuaAPI.obj
 0001:0009fdd0       ?call@?$upvalue_this_member_variable@VVector@@PQ1@M$0A@@function_detail@sol@@SAHPAUlua_State@@@Z 00000000100a0dd0     LuaAPI.obj
 0001:0009fdf0       ?real_call@?$upvalue_this_member_variable@VVector@@PQ1@M$0A@@function_detail@sol@@SAHPAUlua_State@@@Z 00000000100a0df0     LuaAPI.obj
 0001:0009fef0       ??$set@VVector@@V?$basic_string@DU?$char_traits@D@std@@V?$allocator@D@2@@std@@P81@BEMXZ@usertype_storage_base@u_detail@sol@@QAEXPAUlua_State@@$$QAV?$basic_string@DU?$char_traits@D@std@@V?$allocator@D@2@@std@@$$QAP8Vector@@BEMXZ@Z 00000000100a0ef0     LuaAPI.obj
 0001:000a0760       ??$call_with_@$00$0A@@?$binding@V?$basic_string@DU?$char_traits@D@std@@V?$allocator@D@2@@std@@P8Vector@@BEMXZV3@@u_detail@sol@@SAHPAUlua_State@@PAX@Z 00000000100a1760     LuaAPI.obj
 0001:000a07d0       ??$index_call_with_@$00$0A@@?$binding@V?$basic_string@DU?$char_traits@D@std@@V?$allocator@D@2@@std@@P8Vector@@BEMXZV3@@u_detail@sol@@SAHPAUlua_State@@PAX@Z 00000000100a17d0     LuaAPI.obj
 0001:000a0810       ??$call_with_@$0A@$0A@@?$binding@V?$basic_string@DU?$char_traits@D@std@@V?$allocator@D@2@@std@@P8Vector@@BEMXZV3@@u_detail@sol@@SAHPAUlua_State@@PAX@Z 00000000100a1810     LuaAPI.obj
 0001:000a0880       ??$index_call_with_@$0A@$0A@@?$binding@V?$basic_string@DU?$char_traits@D@std@@V?$allocator@D@2@@std@@P8Vector@@BEMXZV3@@u_detail@sol@@SAHPAUlua_State@@PAX@Z 00000000100a1880     LuaAPI.obj
 0001:000a08c0       ??$call@$0A@$0A@@?$binding@V?$basic_string@DU?$char_traits@D@std@@V?$allocator@D@2@@std@@P8Vector@@BEMXZV3@@u_detail@sol@@SAHPAUlua_State@@@Z 00000000100a18c0     LuaAPI.obj
 0001:000a08d0       ?data@?$binding@V?$basic_string@DU?$char_traits@D@std@@V?$allocator@D@2@@std@@P8Vector@@BEMXZV3@@u_detail@sol@@UAEPAXXZ 00000000100a18d0     LuaAPI.obj
 0001:000a08e0       ??_G?$binding@V?$basic_string@DU?$char_traits@D@std@@V?$allocator@D@2@@std@@P8Vector@@BEMXZV3@@u_detail@sol@@UAEPAXI@Z 00000000100a18e0     LuaAPI.obj
 0001:000a0900       ??$call@$00$0A@@?$binding@V?$basic_string@DU?$char_traits@D@std@@V?$allocator@D@2@@std@@P8Vector@@BEMXZV3@@u_detail@sol@@SAHPAUlua_State@@@Z 00000000100a1900     LuaAPI.obj
 0001:000a0910       ??$static_trampoline@$1??$call_@$00$0A@@?$binding@V?$basic_string@DU?$char_traits@D@std@@V?$allocator@D@2@@std@@P8Vector@@BEMXZV3@@u_detail@sol@@SAHPAUlua_State@@@Z@detail@sol@@YAHPAUlua_State@@@Z 00000000100a1910     LuaAPI.obj
 0001:000a0ad0       ??$static_trampoline@$1??$call_@$0A@$0A@@?$binding@V?$basic_string@DU?$char_traits@D@std@@V?$allocator@D@2@@std@@P8Vector@@BEMXZV3@@u_detail@sol@@SAHPAUlua_State@@@Z@detail@sol@@YAHPAUlua_State@@@Z 00000000100a1ad0     LuaAPI.obj
 0001:000a0c90       ??$traverse_set@V?$basic_string@DU?$char_traits@D@std@@V?$allocator@D@2@@std@@P8Vector@@BEMXZ@?$basic_table_core@$0A@V?$basic_reference@$0A@@sol@@@sol@@QAEAAV01@$$QAV?$basic_string@DU?$char_traits@D@std@@V?$allocator@D@2@@std@@$$QAP8Vector@@BEMXZ@Z 00000000100a1c90     LuaAPI.obj
 0001:000a0de0       ?call@?$upvalue_this_member_function@VVector@@P81@BEMXZ$0A@@function_detail@sol@@SAHPAUlua_State@@@Z 00000000100a1de0     LuaAPI.obj
 0001:000a0df0       ??$static_trampoline@$1?real_call@?$upvalue_this_member_function@VVector@@P81@BEMXZ$0A@@function_detail@sol@@SAHPAUlua_State@@@Z@detail@sol@@YAHPAUlua_State@@@Z 00000000100a1df0     LuaAPI.obj
 0001:000a0fb0       ?user_gc_metatable@?$usertype_traits@P8Vector@@BEMXZ@sol@@SAABV?$basic_string@DU?$char_traits@D@std@@V?$allocator@D@2@@std@@XZ 00000000100a1fb0     LuaAPI.obj
 0001:000a13a0       ??$push_with@$00ABQBDP8Vector@@BEMXZ@?$unqualified_pusher@U?$user@P8Vector@@BEMXZ@sol@@X@stack@sol@@SAHPAUlua_State@@ABQBD$$QAP8Vector@@BEMXZ@Z 00000000100a23a0     LuaAPI.obj
 0001:000a1430       ??$ctti_get_type_name@P8Vector@@BEMXZ@detail@sol@@YA?AV?$basic_string@DU?$char_traits@D@std@@V?$allocator@D@2@@std@@XZ 00000000100a2430     LuaAPI.obj
 0001:000a14c0       ??$user_allocate@P8Vector@@BEMXZ@detail@sol@@YAPAP8Vector@@BEMXZPAUlua_State@@@Z 00000000100a24c0     LuaAPI.obj
 0001:000a16d0       ??$user_alloc_destruct@P8Vector@@BEMXZ@detail@sol@@YAHPAUlua_State@@@Z 00000000100a26d0     LuaAPI.obj
 0001:000a16f0       ??$set@VVector@@V?$basic_string@DU?$char_traits@D@std@@V?$allocator@D@2@@std@@P81@BEMABV1@@Z@usertype_storage_base@u_detail@sol@@QAEXPAUlua_State@@$$QAV?$basic_string@DU?$char_traits@D@std@@V?$allocator@D@2@@std@@$$QAP8Vector@@BEMABV6@@Z@Z 00000000100a26f0     LuaAPI.obj
 0001:000a1f60       ??$call_with_@$00$0A@@?$binding@V?$basic_string@DU?$char_traits@D@std@@V?$allocator@D@2@@std@@P8Vector@@BEMABV3@@ZV3@@u_detail@sol@@SAHPAUlua_State@@PAX@Z 00000000100a2f60     LuaAPI.obj
 0001:000a2010       ??$index_call_with_@$00$0A@@?$binding@V?$basic_string@DU?$char_traits@D@std@@V?$allocator@D@2@@std@@P8Vector@@BEMABV3@@ZV3@@u_detail@sol@@SAHPAUlua_State@@PAX@Z 00000000100a3010     LuaAPI.obj
 0001:000a2050       ??$call_with_@$0A@$0A@@?$binding@V?$basic_string@DU?$char_traits@D@std@@V?$allocator@D@2@@std@@P8Vector@@BEMABV3@@ZV3@@u_detail@sol@@SAHPAUlua_State@@PAX@Z 00000000100a3050     LuaAPI.obj
 0001:000a2100       ??$index_call_with_@$0A@$0A@@?$binding@V?$basic_string@DU?$char_traits@D@std@@V?$allocator@D@2@@std@@P8Vector@@BEMABV3@@ZV3@@u_detail@sol@@SAHPAUlua_State@@PAX@Z 00000000100a3100     LuaAPI.obj
 0001:000a2140       ??$call@$0A@$0A@@?$binding@V?$basic_string@DU?$char_traits@D@std@@V?$allocator@D@2@@std@@P8Vector@@BEMABV3@@ZV3@@u_detail@sol@@SAHPAUlua_State@@@Z 00000000100a3140     LuaAPI.obj
 0001:000a2150       ?data@?$binding@V?$basic_string@DU?$char_traits@D@std@@V?$allocator@D@2@@std@@P8Vector@@BEMABV3@@ZV3@@u_detail@sol@@UAEPAXXZ 00000000100a3150     LuaAPI.obj
 0001:000a2160       ??_G?$binding@V?$basic_string@DU?$char_traits@D@std@@V?$allocator@D@2@@std@@P8Vector@@BEMABV3@@ZV3@@u_detail@sol@@UAEPAXI@Z 00000000100a3160     LuaAPI.obj
 0001:000a2180       ??$call@$00$0A@@?$binding@V?$basic_string@DU?$char_traits@D@std@@V?$allocator@D@2@@std@@P8Vector@@BEMABV3@@ZV3@@u_detail@sol@@SAHPAUlua_State@@@Z 00000000100a3180     LuaAPI.obj
 0001:000a2190       ??$static_trampoline@$1??$call_@$00$0A@@?$binding@V?$basic_string@DU?$char_traits@D@std@@V?$allocator@D@2@@std@@P8Vector@@BEMABV3@@ZV3@@u_detail@sol@@SAHPAUlua_State@@@Z@detail@sol@@YAHPAUlua_State@@@Z 00000000100a3190     LuaAPI.obj
 0001:000a2390       ??$static_trampoline@$1??$call_@$0A@$0A@@?$binding@V?$basic_string@DU?$char_traits@D@std@@V?$allocator@D@2@@std@@P8Vector@@BEMABV3@@ZV3@@u_detail@sol@@SAHPAUlua_State@@@Z@detail@sol@@YAHPAUlua_State@@@Z 00000000100a3390     LuaAPI.obj
 0001:000a2590       ??$traverse_set@V?$basic_string@DU?$char_traits@D@std@@V?$allocator@D@2@@std@@P8Vector@@BEMABV3@@Z@?$basic_table_core@$0A@V?$basic_reference@$0A@@sol@@@sol@@QAEAAV01@$$QAV?$basic_string@DU?$char_traits@D@std@@V?$allocator@D@2@@std@@$$QAP8Vector@@BEMABV4@@Z@Z 00000000100a3590     LuaAPI.obj
 0001:000a26e0       ?call@?$upvalue_this_member_function@VVector@@P81@BEMABV1@@Z$0A@@function_detail@sol@@SAHPAUlua_State@@@Z 00000000100a36e0     LuaAPI.obj
 0001:000a26f0       ??$static_trampoline@$1?real_call@?$upvalue_this_member_function@VVector@@P81@BEMABV1@@Z$0A@@function_detail@sol@@SAHPAUlua_State@@@Z@detail@sol@@YAHPAUlua_State@@@Z 00000000100a36f0     LuaAPI.obj
 0001:000a28f0       ?user_gc_metatable@?$usertype_traits@P8Vector@@BEMABV1@@Z@sol@@SAABV?$basic_string@DU?$char_traits@D@std@@V?$allocator@D@2@@std@@XZ 00000000100a38f0     LuaAPI.obj
 0001:000a2ce0       ??$push_with@$00ABQBDP8Vector@@BEMABV1@@Z@?$unqualified_pusher@U?$user@P8Vector@@BEMABV1@@Z@sol@@X@stack@sol@@SAHPAUlua_State@@ABQBD$$QAP8Vector@@BEMABV4@@Z@Z 00000000100a3ce0     LuaAPI.obj
 0001:000a2d70       ??$ctti_get_type_name@P8Vector@@BEMABV1@@Z@detail@sol@@YA?AV?$basic_string@DU?$char_traits@D@std@@V?$allocator@D@2@@std@@XZ 00000000100a3d70     LuaAPI.obj
 0001:000a2e00       ??$user_allocate@P8Vector@@BEMABV1@@Z@detail@sol@@YAPAP8Vector@@BEMABV2@@ZPAUlua_State@@@Z 00000000100a3e00     LuaAPI.obj
 0001:000a3010       ??$user_alloc_destruct@P8Vector@@BEMABV1@@Z@detail@sol@@YAHPAUlua_State@@@Z 00000000100a4010     LuaAPI.obj
 0001:000a3030       ??$set@VVector@@V?$basic_string@DU?$char_traits@D@std@@V?$allocator@D@2@@std@@P81@AE?AV1@ABV1@@Z@usertype_storage_base@u_detail@sol@@QAEXPAUlua_State@@$$QAV?$basic_string@DU?$char_traits@D@std@@V?$allocator@D@2@@std@@$$QAP8Vector@@AE?AV6@ABV6@@Z@Z 00000000100a4030     LuaAPI.obj
 0001:000a38a0       ??$call_with_@$00$0A@@?$binding@V?$basic_string@DU?$char_traits@D@std@@V?$allocator@D@2@@std@@P8Vector@@AE?AV3@ABV3@@ZV3@@u_detail@sol@@SAHPAUlua_State@@PAX@Z 00000000100a48a0     LuaAPI.obj
 0001:000a3980       ??$index_call_with_@$00$0A@@?$binding@V?$basic_string@DU?$char_traits@D@std@@V?$allocator@D@2@@std@@P8Vector@@AE?AV3@ABV3@@ZV3@@u_detail@sol@@SAHPAUlua_State@@PAX@Z 00000000100a4980     LuaAPI.obj
 0001:000a39c0       ??$call_with_@$0A@$0A@@?$binding@V?$basic_string@DU?$char_traits@D@std@@V?$allocator@D@2@@std@@P8Vector@@AE?AV3@ABV3@@ZV3@@u_detail@sol@@SAHPAUlua_State@@PAX@Z 00000000100a49c0     LuaAPI.obj
 0001:000a3aa0       ??$index_call_with_@$0A@$0A@@?$binding@V?$basic_string@DU?$char_traits@D@std@@V?$allocator@D@2@@std@@P8Vector@@AE?AV3@ABV3@@ZV3@@u_detail@sol@@SAHPAUlua_State@@PAX@Z 00000000100a4aa0     LuaAPI.obj
 0001:000a3ae0       ??$call@$0A@$0A@@?$binding@V?$basic_string@DU?$char_traits@D@std@@V?$allocator@D@2@@std@@P8Vector@@AE?AV3@ABV3@@ZV3@@u_detail@sol@@SAHPAUlua_State@@@Z 00000000100a4ae0     LuaAPI.obj
 0001:000a3af0       ?data@?$binding@V?$basic_string@DU?$char_traits@D@std@@V?$allocator@D@2@@std@@P8Vector@@AE?AV3@ABV3@@ZV3@@u_detail@sol@@UAEPAXXZ 00000000100a4af0     LuaAPI.obj
 0001:000a3b00       ??_G?$binding@V?$basic_string@DU?$char_traits@D@std@@V?$allocator@D@2@@std@@P8Vector@@AE?AV3@ABV3@@ZV3@@u_detail@sol@@UAEPAXI@Z 00000000100a4b00     LuaAPI.obj
 0001:000a3b20       ??$call@$00$0A@@?$binding@V?$basic_string@DU?$char_traits@D@std@@V?$allocator@D@2@@std@@P8Vector@@AE?AV3@ABV3@@ZV3@@u_detail@sol@@SAHPAUlua_State@@@Z 00000000100a4b20     LuaAPI.obj
 0001:000a3b30       ??$static_trampoline@$1??$call_@$00$0A@@?$binding@V?$basic_string@DU?$char_traits@D@std@@V?$allocator@D@2@@std@@P8Vector@@AE?AV3@ABV3@@ZV3@@u_detail@sol@@SAHPAUlua_State@@@Z@detail@sol@@YAHPAUlua_State@@@Z 00000000100a4b30     LuaAPI.obj
 0001:000a3d40       ??$static_trampoline@$1??$call_@$0A@$0A@@?$binding@V?$basic_string@DU?$char_traits@D@std@@V?$allocator@D@2@@std@@P8Vector@@AE?AV3@ABV3@@ZV3@@u_detail@sol@@SAHPAUlua_State@@@Z@detail@sol@@YAHPAUlua_State@@@Z 00000000100a4d40     LuaAPI.obj
 0001:000a3f50       ??$traverse_set@V?$basic_string@DU?$char_traits@D@std@@V?$allocator@D@2@@std@@P8Vector@@AE?AV3@ABV3@@Z@?$basic_table_core@$0A@V?$basic_reference@$0A@@sol@@@sol@@QAEAAV01@$$QAV?$basic_string@DU?$char_traits@D@std@@V?$allocator@D@2@@std@@$$QAP8Vector@@AE?AV4@ABV4@@Z@Z 00000000100a4f50     LuaAPI.obj
 0001:000a40a0       ?call@?$upvalue_this_member_function@VVector@@P81@AE?AV1@ABV1@@Z$0A@@function_detail@sol@@SAHPAUlua_State@@@Z 00000000100a50a0     LuaAPI.obj
 0001:000a40b0       ??$static_trampoline@$1?real_call@?$upvalue_this_member_function@VVector@@P81@AE?AV1@ABV1@@Z$0A@@function_detail@sol@@SAHPAUlua_State@@@Z@detail@sol@@YAHPAUlua_State@@@Z 00000000100a50b0     LuaAPI.obj
 0001:000a42d0       ?user_gc_metatable@?$usertype_traits@P8Vector@@AE?AV1@ABV1@@Z@sol@@SAABV?$basic_string@DU?$char_traits@D@std@@V?$allocator@D@2@@std@@XZ 00000000100a52d0     LuaAPI.obj
 0001:000a46c0       ??$push_with@$00ABQBDP8Vector@@AE?AV1@ABV1@@Z@?$unqualified_pusher@U?$user@P8Vector@@AE?AV1@ABV1@@Z@sol@@X@stack@sol@@SAHPAUlua_State@@ABQBD$$QAP8Vector@@AE?AV4@ABV4@@Z@Z 00000000100a56c0     LuaAPI.obj
 0001:000a4750       ??$ctti_get_type_name@P8Vector@@AE?AV1@ABV1@@Z@detail@sol@@YA?AV?$basic_string@DU?$char_traits@D@std@@V?$allocator@D@2@@std@@XZ 00000000100a5750     LuaAPI.obj
 0001:000a47e0       ??$user_allocate@P8Vector@@AE?AV1@ABV1@@Z@detail@sol@@YAPAP8Vector@@AE?AV2@ABV2@@ZPAUlua_State@@@Z 00000000100a57e0     LuaAPI.obj
 0001:000a49f0       ??$user_alloc_destruct@P8Vector@@AE?AV1@ABV1@@Z@detail@sol@@YAHPAUlua_State@@@Z 00000000100a59f0     LuaAPI.obj
 0001:000a4a10       ??$new_usertype@VVector2D@@ABV?$basic_string@DU?$char_traits@D@std@@V?$allocator@D@2@@std@@U?$constructor_list@$$A6A?AVVector2D@@XZ$$A6A?AV1@HH@Z$$A6A?AVVector@@MM@Z@sol@@V23@PQ1@MV23@PQ1@MV23@P81@BEMXZX@?$basic_table_core@$00V?$basic_reference@$0A@@sol@@@sol@@QAE?AV?$basic_usertype@VVector2D@@V?$basic_reference@$0A@@sol@@@1@ABV?$basic_string@DU?$char_traits@D@std@@V?$allocator@D@2@@std@@$$QAU?$constructor_list@$$A6A?AVVector2D@@XZ$$A6A?AV1@HH@Z$$A6A?AVVector@@MM@Z@1@$$QAV34@$$QAPQVector2D@@M232$$QAP86@BEMXZ@Z 00000000100a5a10     LuaAPI.obj
 0001:000a4b10       ??$new_usertype@VVector2D@@ABV?$basic_string@DU?$char_traits@D@std@@V?$allocator@D@2@@std@@@?$basic_table_core@$00V?$basic_reference@$0A@@sol@@@sol@@QAE?AV?$basic_usertype@VVector2D@@V?$basic_reference@$0A@@sol@@@1@ABV?$basic_string@DU?$char_traits@D@std@@V?$allocator@D@2@@std@@Uautomagic_enrollments@1@@Z 00000000100a5b10     LuaAPI.obj
 0001:000a4c20       ??$set@W4meta_function@sol@@U?$constructor_list@$$A6A?AVVector2D@@XZ$$A6A?AV1@HH@Z$$A6A?AVVector@@MM@Z@2@@?$basic_usertype@VVector2D@@V?$basic_reference@$0A@@sol@@@sol@@QAEX$$QAW4meta_function@1@$$QAU?$constructor_list@$$A6A?AVVector2D@@XZ$$A6A?AV1@HH@Z$$A6A?AVVector@@MM@Z@1@@Z 00000000100a5c20     LuaAPI.obj
 0001:000a4cc0       ??$register_usertype@VVector2D@@@u_detail@sol@@YAHPAUlua_State@@Uautomagic_enrollments@1@@Z 00000000100a5cc0     LuaAPI.obj
 0001:000a5100       ??$delete_usertype_storage@VVector2D@@@u_detail@sol@@YAXPAUlua_State@@@Z 00000000100a6100     LuaAPI.obj
 0001:000a5190       ??$create_usertype_storage@VVector2D@@@u_detail@sol@@YAAAU?$usertype_storage@VVector2D@@@01@PAUlua_State@@@Z 00000000100a6190     LuaAPI.obj
 0001:000a5290       ?gc_table@?$usertype_traits@VVector2D@@@sol@@SAABV?$basic_string@DU?$char_traits@D@std@@V?$allocator@D@2@@std@@XZ 00000000100a6290     LuaAPI.obj
 0001:000a5680       ?metatable@?$usertype_traits@$$CBVVector2D@@@sol@@SAABV?$basic_string@DU?$char_traits@D@std@@V?$allocator@D@2@@std@@XZ 00000000100a6680     LuaAPI.obj
 0001:000a5a00       ?metatable@?$usertype_traits@PBVVector2D@@@sol@@SAABV?$basic_string@DU?$char_traits@D@std@@V?$allocator@D@2@@std@@XZ 00000000100a6a00     LuaAPI.obj
 0001:000a5d80       ?metatable@?$usertype_traits@PAVVector2D@@@sol@@SAABV?$basic_string@DU?$char_traits@D@std@@V?$allocator@D@2@@std@@XZ 00000000100a6d80     LuaAPI.obj
 0001:000a6100       ?metatable@?$usertype_traits@U?$unique_usertype@VVector2D@@@detail@sol@@@sol@@SAABV?$basic_string@DU?$char_traits@D@std@@V?$allocator@D@2@@std@@XZ 00000000100a7100     LuaAPI.obj
 0001:000a6480       ?metatable@?$usertype_traits@VVector2D@@@sol@@SAABV?$basic_string@DU?$char_traits@D@std@@V?$allocator@D@2@@std@@XZ 00000000100a7480     LuaAPI.obj
 0001:000a6800       ??$is_check@VVector2D@@@detail@sol@@YAHPAUlua_State@@@Z 00000000100a7800     LuaAPI.obj
 0001:000a6880       ??$destruct_usertype_storage@VVector2D@@@u_detail@sol@@YAHPAUlua_State@@@Z 00000000100a7880     LuaAPI.obj
 0001:000a68a0       ?user_gc_metatable@?$usertype_traits@U?$usertype_storage@VVector2D@@@u_detail@sol@@@sol@@SAABV?$basic_string@DU?$char_traits@D@std@@V?$allocator@D@2@@std@@XZ 00000000100a78a0     LuaAPI.obj
 0001:000a6c90       ??$ctti_get_type_name@U?$usertype_storage@VVector2D@@@u_detail@sol@@@detail@sol@@YA?AV?$basic_string@DU?$char_traits@D@std@@V?$allocator@D@2@@std@@XZ 00000000100a7c90     LuaAPI.obj
 0001:000a6d20       ??$user_allocate@U?$usertype_storage@VVector2D@@@u_detail@sol@@@detail@sol@@YAPAU?$usertype_storage@VVector2D@@@u_detail@1@PAUlua_State@@@Z 00000000100a7d20     LuaAPI.obj
 0001:000a6f40       ??$ctti_get_type_name@$$CBVVector2D@@@detail@sol@@YA?AV?$basic_string@DU?$char_traits@D@std@@V?$allocator@D@2@@std@@XZ 00000000100a7f40     LuaAPI.obj
 0001:000a6fd0       ??$ctti_get_type_name@PBVVector2D@@@detail@sol@@YA?AV?$basic_string@DU?$char_traits@D@std@@V?$allocator@D@2@@std@@XZ 00000000100a7fd0     LuaAPI.obj
 0001:000a7060       ??$ctti_get_type_name@PAVVector2D@@@detail@sol@@YA?AV?$basic_string@DU?$char_traits@D@std@@V?$allocator@D@2@@std@@XZ 00000000100a8060     LuaAPI.obj
 0001:000a70f0       ??$ctti_get_type_name@U?$unique_usertype@VVector2D@@@detail@sol@@@detail@sol@@YA?AV?$basic_string@DU?$char_traits@D@std@@V?$allocator@D@2@@std@@XZ 00000000100a80f0     LuaAPI.obj
 0001:000a7180       ??$ctti_get_type_name@VVector2D@@@detail@sol@@YA?AV?$basic_string@DU?$char_traits@D@std@@V?$allocator@D@2@@std@@XZ 00000000100a8180     LuaAPI.obj
 0001:000a7210       ??$check@VVector2D@@P6AHPAUlua_State@@HW4type@sol@@1PBD@_E@?$unqualified_checker@U?$as_value_tag@VVector2D@@@detail@sol@@$06X@stack@sol@@SA_NU?$types@VVector2D@@@2@PAUlua_State@@HW4type@2@$$QAP6AH1H22PBD@_EAAUrecord@12@@Z 00000000100a8210     LuaAPI.obj
 0001:000a7500       ?qualified_name@?$usertype_traits@VVector2D@@@sol@@SAABV?$basic_string@DU?$char_traits@D@std@@V?$allocator@D@2@@std@@XZ 00000000100a8500     LuaAPI.obj
 0001:000a7630       ?metatable@?$usertype_traits@U?$as_container_t@VVector2D@@@sol@@@sol@@SAABV?$basic_string@DU?$char_traits@D@std@@V?$allocator@D@2@@std@@XZ 00000000100a8630     LuaAPI.obj
 0001:000a79b0       ??$ctti_get_type_name@U?$as_container_t@VVector2D@@@sol@@@detail@sol@@YA?AV?$basic_string@DU?$char_traits@D@std@@V?$allocator@D@2@@std@@XZ 00000000100a89b0     LuaAPI.obj
 0001:000a7a40       ??R<lambda_1>@?0???$register_usertype@VVector2D@@@u_detail@sol@@YAHPAUlua_State@@Uautomagic_enrollments@2@@Z@QBE?A?<auto>@@0W4submetatable_type@12@AAV?$basic_reference@$0A@@2@@Z 00000000100a8a40     LuaAPI.obj
 0001:000a8030       ?user_metatable@?$usertype_traits@VVector2D@@@sol@@SAABV?$basic_string@DU?$char_traits@D@std@@V?$allocator@D@2@@std@@XZ 00000000100a9030     LuaAPI.obj
 0001:000a8420       ??$unique_destruct@VVector2D@@@detail@sol@@YAHPAUlua_State@@@Z 00000000100a9420     LuaAPI.obj
 0001:000a8460       ?type_check@?$inheritance@VVector2D@@@detail@sol@@SA_NABV?$basic_string_view@DU?$char_traits@D@std@@@std@@@Z 00000000100a9460     LuaAPI.obj
 0001:000a84a0       ?type_cast@?$inheritance@VVector2D@@@detail@sol@@SAPAXPAXABV?$basic_string_view@DU?$char_traits@D@std@@@std@@@Z 00000000100a94a0     LuaAPI.obj
 0001:000a84e0       ??$insert_default_registrations@VVector2D@@AAV<lambda_1>@?0???R2?0???$register_usertype@VVector2D@@@u_detail@sol@@YAHPAUlua_State@@Uautomagic_enrollments@4@@Z@QBE?A?<auto>@@0W4submetatable_type@34@AAV?$basic_reference@$0A@@4@@Z@AAUproperties_enrollment_allowed@detail@4@@detail@sol@@YAXAAV<lambda_1>@?0???R2?0???$register_usertype@VVector2D@@@u_detail@1@YAHPAUlua_State@@Uautomagic_enrollments@1@@Z@QBE?A?<auto>@@0W4submetatable_type@31@AAV?$basic_reference@$0A@@1@@Z@AAUproperties_enrollment_allowed@01@@Z 00000000100a94e0     LuaAPI.obj
 0001:000a8620       ??$meta_index_call@$0A@@?$usertype_storage@VVector2D@@@u_detail@sol@@SAHPAUlua_State@@@Z 00000000100a9620     LuaAPI.obj
 0001:000a8630       ??$meta_index_call@$00@?$usertype_storage@VVector2D@@@u_detail@sol@@SAHPAUlua_State@@@Z 00000000100a9630     LuaAPI.obj
 0001:000a8640       ??$index_call@$00@?$usertype_storage@VVector2D@@@u_detail@sol@@SAHPAUlua_State@@@Z 00000000100a9640     LuaAPI.obj
 0001:000a8650       ??$usertype_alloc_destruct@VVector2D@@@detail@sol@@YAHPAUlua_State@@@Z 00000000100a9650     LuaAPI.obj
 0001:000a8670       ??$comparsion_operator_wrap@VVector2D@@U?$equal_to@X@std@@@detail@sol@@YAHPAUlua_State@@@Z 00000000100a9670     LuaAPI.obj
 0001:000a8720       ?pairs_call@?$u_c_launch@U?$as_container_t@VVector2D@@@sol@@@container_detail@sol@@SAHPAUlua_State@@@Z 00000000100a9720     LuaAPI.obj
 0001:000a8730       ??$get_using@V?$optional@AAVVector2D@@@sol@@AAP6AHPAUlua_State@@HW4type@2@1PBD@_E@?$unqualified_check_getter@VVector2D@@X@stack@sol@@SA?AV?$optional@AAVVector2D@@@2@PAUlua_State@@HAAP6AH0HW4type@2@1PBD@_EAAUrecord@12@@Z 00000000100a9730     LuaAPI.obj
 0001:000a87e0       ??$check@VVector2D@@AAP6AHPAUlua_State@@HW4type@sol@@1PBD@_E@?$unqualified_checker@U?$as_value_tag@VVector2D@@@detail@sol@@$06X@stack@sol@@SA_NU?$types@VVector2D@@@2@PAUlua_State@@HW4type@2@AAP6AH1H22PBD@_EAAUrecord@12@@Z 00000000100a97e0     LuaAPI.obj
 0001:000a8ad0       ?get_no_lua_nil_from@?$unqualified_getter@U?$as_value_tag@VVector2D@@@detail@sol@@X@stack@sol@@SAPAVVector2D@@PAUlua_State@@PAXHAAUrecord@23@@Z 00000000100a9ad0     LuaAPI.obj
 0001:000a8b70       ??$static_trampoline@$1?real_pairs_call@?$u_c_launch@U?$as_container_t@VVector2D@@@sol@@@container_detail@sol@@SAHPAUlua_State@@@Z@detail@sol@@YAHPAUlua_State@@@Z 00000000100a9b70     LuaAPI.obj
 0001:000a8d40       ??$static_trampoline@$1??$index_call_@$0A@$00@?$usertype_storage@VVector2D@@@u_detail@sol@@SAHPAUlua_State@@@Z@detail@sol@@YAHPAUlua_State@@@Z 00000000100a9d40     LuaAPI.obj
 0001:000a8ea0       ??$static_trampoline@$1??$index_call_@$00$00@?$usertype_storage@VVector2D@@@u_detail@sol@@SAHPAUlua_State@@@Z@detail@sol@@YAHPAUlua_State@@@Z 00000000100a9ea0     LuaAPI.obj
 0001:000a9000       ??$static_trampoline@$1??$index_call_@$00$0A@@?$usertype_storage@VVector2D@@@u_detail@sol@@SAHPAUlua_State@@@Z@detail@sol@@YAHPAUlua_State@@@Z 00000000100aa000     LuaAPI.obj
 0001:000a9160       ??$set@VVector2D@@W4meta_function@sol@@U?$constructor_list@$$A6A?AVVector2D@@XZ@3@@usertype_storage_base@u_detail@sol@@QAEXPAUlua_State@@$$QAW4meta_function@2@$$QAU?$constructor_list@$$A6A?AVVector2D@@XZ@2@@Z 00000000100aa160     LuaAPI.obj
 0001:000a99e0       ??$call_with_@$00$0A@@?$binding@W4meta_function@sol@@U?$constructor_list@$$A6A?AVVector2D@@XZ@2@VVector2D@@@u_detail@sol@@SAHPAUlua_State@@PAX@Z 00000000100aa9e0     LuaAPI.obj
 0001:000a99f0       ??$index_call_with_@$00$0A@@?$binding@W4meta_function@sol@@U?$constructor_list@$$A6A?AVVector2D@@XZ@2@VVector2D@@@u_detail@sol@@SAHPAUlua_State@@PAX@Z 00000000100aa9f0     LuaAPI.obj
 0001:000a9a30       ??$call_with_@$0A@$0A@@?$binding@W4meta_function@sol@@U?$constructor_list@$$A6A?AVVector2D@@XZ@2@VVector2D@@@u_detail@sol@@SAHPAUlua_State@@PAX@Z 00000000100aaa30     LuaAPI.obj
 0001:000a9a40       ??$index_call_with_@$0A@$0A@@?$binding@W4meta_function@sol@@U?$constructor_list@$$A6A?AVVector2D@@XZ@2@VVector2D@@@u_detail@sol@@SAHPAUlua_State@@PAX@Z 00000000100aaa40     LuaAPI.obj
 0001:000a9a80       ??$call@$0A@$0A@@?$binding@W4meta_function@sol@@U?$constructor_list@$$A6A?AVVector2D@@XZ@2@VVector2D@@@u_detail@sol@@SAHPAUlua_State@@@Z 00000000100aaa80     LuaAPI.obj
 0001:000a9a90       ??$index_call@$0A@@?$usertype_storage@VVector2D@@@u_detail@sol@@SAHPAUlua_State@@@Z 00000000100aaa90     LuaAPI.obj
 0001:000a9aa0       ?data@?$binding@W4meta_function@sol@@U?$constructor_list@$$A6A?AVVector2D@@XZ@2@VVector2D@@@u_detail@sol@@UAEPAXXZ 00000000100aaaa0     LuaAPI.obj
 0001:000a9ab0       ??_G?$binding@W4meta_function@sol@@U?$constructor_list@$$A6A?AVVector2D@@XZ@2@VVector2D@@@u_detail@sol@@UAEPAXI@Z 00000000100aaab0     LuaAPI.obj
 0001:000a9ad0       ?call@?$lua_call_wrapper@VVector2D@@U?$constructor_list@$$A6A?AVVector2D@@XZ@sol@@$00$0A@$0A@$0A@$00X@call_detail@sol@@SAHPAUlua_State@@AAU?$constructor_list@$$A6A?AVVector2D@@XZ@3@@Z 00000000100aaad0     LuaAPI.obj
 0001:000a9c90       ??$usertype_allocate@VVector2D@@@detail@sol@@YAPAVVector2D@@PAUlua_State@@@Z 00000000100aac90     LuaAPI.obj
 0001:000a9f70       ??$set_undefined_methods_on@VVector2D@@@stack_detail@stack@sol@@YAXVstack_reference@2@@Z 00000000100aaf70     LuaAPI.obj
 0001:000aa220       ??$call@$00$0A@@?$binding@W4meta_function@sol@@U?$constructor_list@$$A6A?AVVector2D@@XZ@2@VVector2D@@@u_detail@sol@@SAHPAUlua_State@@@Z 00000000100ab220     LuaAPI.obj
 0001:000aa230       ??$static_trampoline@$1??$call_@$00$0A@@?$binding@W4meta_function@sol@@U?$constructor_list@$$A6A?AVVector2D@@XZ@2@VVector2D@@@u_detail@sol@@SAHPAUlua_State@@@Z@detail@sol@@YAHPAUlua_State@@@Z 00000000100ab230     LuaAPI.obj
 0001:000aa380       ?call@?$lua_call_wrapper@VVector2D@@U?$constructor_list@$$A6A?AVVector2D@@XZ@sol@@$0A@$0A@$0A@$0A@$00X@call_detail@sol@@SAHPAUlua_State@@AAU?$constructor_list@$$A6A?AVVector2D@@XZ@3@@Z 00000000100ab380     LuaAPI.obj
 0001:000aa540       ??$static_trampoline@$1??$call_@$0A@$0A@@?$binding@W4meta_function@sol@@U?$constructor_list@$$A6A?AVVector2D@@XZ@2@VVector2D@@@u_detail@sol@@SAHPAUlua_State@@@Z@detail@sol@@YAHPAUlua_State@@@Z 00000000100ab540     LuaAPI.obj
 0001:000aa690       ??$static_trampoline@$1??$index_call_@$0A@$0A@@?$usertype_storage@VVector2D@@@u_detail@sol@@SAHPAUlua_State@@@Z@detail@sol@@YAHPAUlua_State@@@Z 00000000100ab690     LuaAPI.obj
 0001:000aa7f0       ??$traverse_set_deep@$00$0A@$0A@ABV?$basic_string@DU?$char_traits@D@std@@V?$allocator@D@2@@std@@AAV?$basic_usertype@VVector2D@@V?$basic_reference@$0A@@sol@@@sol@@@?$basic_table_core@$00V?$basic_reference@$0A@@sol@@@sol@@ABEXHABV?$basic_string@DU?$char_traits@D@std@@V?$allocator@D@2@@std@@AAV?$basic_usertype@VVector2D@@V?$basic_reference@$0A@@sol@@@1@@Z 00000000100ab7f0     LuaAPI.obj
 0001:000aa870       ??$set@VVector2D@@W4meta_function@sol@@U?$constructor_list@$$A6A?AVVector2D@@XZ$$A6A?AV1@HH@Z$$A6A?AVVector@@MM@Z@3@@usertype_storage_base@u_detail@sol@@QAEXPAUlua_State@@$$QAW4meta_function@2@$$QAU?$constructor_list@$$A6A?AVVector2D@@XZ$$A6A?AV1@HH@Z$$A6A?AVVector@@MM@Z@2@@Z 00000000100ab870     LuaAPI.obj
 0001:000ab0f0       ??$call_with_@$00$0A@@?$binding@W4meta_function@sol@@U?$constructor_list@$$A6A?AVVector2D@@XZ$$A6A?AV1@HH@Z$$A6A?AVVector@@MM@Z@2@VVector2D@@@u_detail@sol@@SAHPAUlua_State@@PAX@Z 00000000100ac0f0     LuaAPI.obj
 0001:000ab100       ??$index_call_with_@$00$0A@@?$binding@W4meta_function@sol@@U?$constructor_list@$$A6A?AVVector2D@@XZ$$A6A?AV1@HH@Z$$A6A?AVVector@@MM@Z@2@VVector2D@@@u_detail@sol@@SAHPAUlua_State@@PAX@Z 00000000100ac100     LuaAPI.obj
 0001:000ab140       ??$call_with_@$0A@$0A@@?$binding@W4meta_function@sol@@U?$constructor_list@$$A6A?AVVector2D@@XZ$$A6A?AV1@HH@Z$$A6A?AVVector@@MM@Z@2@VVector2D@@@u_detail@sol@@SAHPAUlua_State@@PAX@Z 00000000100ac140     LuaAPI.obj
 0001:000ab150       ??$index_call_with_@$0A@$0A@@?$binding@W4meta_function@sol@@U?$constructor_list@$$A6A?AVVector2D@@XZ$$A6A?AV1@HH@Z$$A6A?AVVector@@MM@Z@2@VVector2D@@@u_detail@sol@@SAHPAUlua_State@@PAX@Z 00000000100ac150     LuaAPI.obj
 0001:000ab190       ??$call@$0A@$0A@@?$binding@W4meta_function@sol@@U?$constructor_list@$$A6A?AVVector2D@@XZ$$A6A?AV1@HH@Z$$A6A?AVVector@@MM@Z@2@VVector2D@@@u_detail@sol@@SAHPAUlua_State@@@Z 00000000100ac190     LuaAPI.obj
 0001:000ab1a0       ?data@?$binding@W4meta_function@sol@@U?$constructor_list@$$A6A?AVVector2D@@XZ$$A6A?AV1@HH@Z$$A6A?AVVector@@MM@Z@2@VVector2D@@@u_detail@sol@@UAEPAXXZ 00000000100ac1a0     LuaAPI.obj
 0001:000ab1b0       ??_G?$binding@W4meta_function@sol@@U?$constructor_list@$$A6A?AVVector2D@@XZ$$A6A?AV1@HH@Z$$A6A?AVVector@@MM@Z@2@VVector2D@@@u_detail@sol@@UAEPAXI@Z 00000000100ac1b0     LuaAPI.obj
 0001:000ab1d0       ?call@?$lua_call_wrapper@VVector2D@@U?$constructor_list@$$A6A?AVVector2D@@XZ$$A6A?AV1@HH@Z$$A6A?AVVector@@MM@Z@sol@@$00$0A@$0A@$0A@$00X@call_detail@sol@@SAHPAUlua_State@@AAU?$constructor_list@$$A6A?AVVector2D@@XZ$$A6A?AV1@HH@Z$$A6A?AVVector@@MM@Z@3@@Z 00000000100ac1d0     LuaAPI.obj
 0001:000ab3c0       ??$overload_match_arity@$$A6AXHH@Z$$A6AXMM@Z$00$01$$Z$0A@U?$constructor_match@VVector2D@@$0A@$00@call_detail@sol@@$$V@overload_detail@call_detail@sol@@YAHU?$types@$$A6AXHH@Z$$A6AXMM@Z@2@U?$integer_sequence@I$00$01@std@@U?$integer_sequence@I$0A@@5@$$QAU?$constructor_match@VVector2D@@$0A@$00@12@PAUlua_State@@HH@Z 00000000100ac3c0     LuaAPI.obj
 0001:000ab4c0       ??$call@$00$0A@@?$binding@W4meta_function@sol@@U?$constructor_list@$$A6A?AVVector2D@@XZ$$A6A?AV1@HH@Z$$A6A?AVVector@@MM@Z@2@VVector2D@@@u_detail@sol@@SAHPAUlua_State@@@Z 00000000100ac4c0     LuaAPI.obj
 0001:000ab4d0       ??$static_trampoline@$1??$call_@$00$0A@@?$binding@W4meta_function@sol@@U?$constructor_list@$$A6A?AVVector2D@@XZ$$A6A?AV1@HH@Z$$A6A?AVVector@@MM@Z@2@VVector2D@@@u_detail@sol@@SAHPAUlua_State@@@Z@detail@sol@@YAHPAUlua_State@@@Z 00000000100ac4d0     LuaAPI.obj
 0001:000ab620       ?call@?$lua_call_wrapper@VVector2D@@U?$constructor_list@$$A6A?AVVector2D@@XZ$$A6A?AV1@HH@Z$$A6A?AVVector@@MM@Z@sol@@$0A@$0A@$0A@$0A@$00X@call_detail@sol@@SAHPAUlua_State@@AAU?$constructor_list@$$A6A?AVVector2D@@XZ$$A6A?AV1@HH@Z$$A6A?AVVector@@MM@Z@3@@Z 00000000100ac620     LuaAPI.obj
 0001:000ab810       ??$static_trampoline@$1??$call_@$0A@$0A@@?$binding@W4meta_function@sol@@U?$constructor_list@$$A6A?AVVector2D@@XZ$$A6A?AV1@HH@Z$$A6A?AVVector@@MM@Z@2@VVector2D@@@u_detail@sol@@SAHPAUlua_State@@@Z@detail@sol@@YAHPAUlua_State@@@Z 00000000100ac810     LuaAPI.obj
 0001:000ab960       ??$traverse_set@W4meta_function@sol@@U?$tagged@VVector2D@@U?$constructor_list@$$A6A?AVVector2D@@XZ$$A6A?AV1@HH@Z$$A6A?AVVector@@MM@Z@sol@@@detail@2@@?$basic_table_core@$0A@V?$basic_reference@$0A@@sol@@@sol@@QAEAAV01@$$QAW4meta_function@1@$$QAU?$tagged@VVector2D@@U?$constructor_list@$$A6A?AVVector2D@@XZ$$A6A?AV1@HH@Z$$A6A?AVVector@@MM@Z@sol@@@detail@1@@Z 00000000100ac960     LuaAPI.obj
 0001:000aba70       ??$set@W4meta_function@sol@@U?$tagged@VVector2D@@U?$constructor_list@$$A6A?AVVector2D@@XZ$$A6A?AV1@HH@Z$$A6A?AVVector@@MM@Z@sol@@@detail@2@@?$field_setter@W4meta_function@sol@@$0A@$0A@X@stack@sol@@QAEXPAUlua_State@@$$QAW4meta_function@2@$$QAU?$tagged@VVector2D@@U?$constructor_list@$$A6A?AVVector2D@@XZ$$A6A?AV1@HH@Z$$A6A?AVVector@@MM@Z@sol@@@detail@2@H@Z 00000000100aca70     LuaAPI.obj
 0001:000abae0       ??$construct@VVector2D@@$0A@$00$$A6A?AV1@XZ$$A6A?AV1@HH@Z$$A6A?AVVector@@MM@Z@call_detail@sol@@YAHPAUlua_State@@@Z 00000000100acae0     LuaAPI.obj
 0001:000abb00       ??$construct_trampolined@VVector2D@@$0A@$00$$A6A?AV1@XZ$$A6A?AV1@HH@Z$$A6A?AVVector@@MM@Z@call_detail@sol@@YAHPAUlua_State@@@Z 00000000100acb00     LuaAPI.obj
 0001:000abd70       ??$set@V?$basic_string@DU?$char_traits@D@std@@V?$allocator@D@2@@std@@PQVector2D@@M@?$basic_usertype@VVector2D@@V?$basic_reference@$0A@@sol@@@sol@@QAEX$$QAV?$basic_string@DU?$char_traits@D@std@@V?$allocator@D@2@@std@@$$QAPQVector2D@@M@Z 00000000100acd70     LuaAPI.obj
 0001:000abe10       ??$set@V?$basic_string@DU?$char_traits@D@std@@V?$allocator@D@2@@std@@P8Vector2D@@BEMXZ@?$basic_usertype@VVector2D@@V?$basic_reference@$0A@@sol@@@sol@@QAEX$$QAV?$basic_string@DU?$char_traits@D@std@@V?$allocator@D@2@@std@@$$QAP8Vector2D@@BEMXZ@Z 00000000100ace10     LuaAPI.obj
 0001:000abeb0       ??$set@VVector2D@@V?$basic_string@DU?$char_traits@D@std@@V?$allocator@D@2@@std@@PQ1@M@usertype_storage_base@u_detail@sol@@QAEXPAUlua_State@@$$QAV?$basic_string@DU?$char_traits@D@std@@V?$allocator@D@2@@std@@$$QAPQVector2D@@M@Z 00000000100aceb0     LuaAPI.obj
 0001:000ac730       ??$call_with_@$00$00@?$binding@V?$basic_string@DU?$char_traits@D@std@@V?$allocator@D@2@@std@@PQVector2D@@MV3@@u_detail@sol@@SAHPAUlua_State@@PAX@Z 00000000100ad730     LuaAPI.obj
 0001:000ac7b0       ??$index_call_with_@$00$00@?$binding@V?$basic_string@DU?$char_traits@D@std@@V?$allocator@D@2@@std@@PQVector2D@@MV3@@u_detail@sol@@SAHPAUlua_State@@PAX@Z 00000000100ad7b0     LuaAPI.obj
 0001:000ac830       ??$call_with_@$0A@$00@?$binding@V?$basic_string@DU?$char_traits@D@std@@V?$allocator@D@2@@std@@PQVector2D@@MV3@@u_detail@sol@@SAHPAUlua_State@@PAX@Z 00000000100ad830     LuaAPI.obj
 0001:000ac8a0       ??$index_call_with_@$0A@$00@?$binding@V?$basic_string@DU?$char_traits@D@std@@V?$allocator@D@2@@std@@PQVector2D@@MV3@@u_detail@sol@@SAHPAUlua_State@@PAX@Z 00000000100ad8a0     LuaAPI.obj
 0001:000ac910       ??$call@$0A@$00@?$binding@V?$basic_string@DU?$char_traits@D@std@@V?$allocator@D@2@@std@@PQVector2D@@MV3@@u_detail@sol@@SAHPAUlua_State@@@Z 00000000100ad910     LuaAPI.obj
 0001:000ac920       ?data@?$binding@V?$basic_string@DU?$char_traits@D@std@@V?$allocator@D@2@@std@@PQVector2D@@MV3@@u_detail@sol@@UAEPAXXZ 00000000100ad920     LuaAPI.obj
 0001:000ac930       ??_G?$binding@V?$basic_string@DU?$char_traits@D@std@@V?$allocator@D@2@@std@@PQVector2D@@MV3@@u_detail@sol@@UAEPAXI@Z 00000000100ad930     LuaAPI.obj
 0001:000ac950       ??$static_trampoline@$1??$call_@$0A@$00@?$binding@V?$basic_string@DU?$char_traits@D@std@@V?$allocator@D@2@@std@@PQVector2D@@MV3@@u_detail@sol@@SAHPAUlua_State@@@Z@detail@sol@@YAHPAUlua_State@@@Z 00000000100ad950     LuaAPI.obj
 0001:000acaf0       ??$traverse_set@V?$basic_string@DU?$char_traits@D@std@@V?$allocator@D@2@@std@@PQVector2D@@M@?$basic_table_core@$0A@V?$basic_reference@$0A@@sol@@@sol@@QAEAAV01@$$QAV?$basic_string@DU?$char_traits@D@std@@V?$allocator@D@2@@std@@$$QAPQVector2D@@M@Z 00000000100adaf0     LuaAPI.obj
 0001:000acbb0       ?call@?$upvalue_this_member_variable@VVector2D@@PQ1@M$0A@@function_detail@sol@@SAHPAUlua_State@@@Z 00000000100adbb0     LuaAPI.obj
 0001:000acbd0       ?real_call@?$upvalue_this_member_variable@VVector2D@@PQ1@M$0A@@function_detail@sol@@SAHPAUlua_State@@@Z 00000000100adbd0     LuaAPI.obj
 0001:000accd0       ??$set@VVector2D@@V?$basic_string@DU?$char_traits@D@std@@V?$allocator@D@2@@std@@P81@BEMXZ@usertype_storage_base@u_detail@sol@@QAEXPAUlua_State@@$$QAV?$basic_string@DU?$char_traits@D@std@@V?$allocator@D@2@@std@@$$QAP8Vector2D@@BEMXZ@Z 00000000100adcd0     LuaAPI.obj
 0001:000ad540       ??$call_with_@$00$0A@@?$binding@V?$basic_string@DU?$char_traits@D@std@@V?$allocator@D@2@@std@@P8Vector2D@@BEMXZV3@@u_detail@sol@@SAHPAUlua_State@@PAX@Z 00000000100ae540     LuaAPI.obj
 0001:000ad5b0       ??$index_call_with_@$00$0A@@?$binding@V?$basic_string@DU?$char_traits@D@std@@V?$allocator@D@2@@std@@P8Vector2D@@BEMXZV3@@u_detail@sol@@SAHPAUlua_State@@PAX@Z 00000000100ae5b0     LuaAPI.obj
 0001:000ad5f0       ??$call_with_@$0A@$0A@@?$binding@V?$basic_string@DU?$char_traits@D@std@@V?$allocator@D@2@@std@@P8Vector2D@@BEMXZV3@@u_detail@sol@@SAHPAUlua_State@@PAX@Z 00000000100ae5f0     LuaAPI.obj
 0001:000ad660       ??$index_call_with_@$0A@$0A@@?$binding@V?$basic_string@DU?$char_traits@D@std@@V?$allocator@D@2@@std@@P8Vector2D@@BEMXZV3@@u_detail@sol@@SAHPAUlua_State@@PAX@Z 00000000100ae660     LuaAPI.obj
 0001:000ad6a0       ??$call@$0A@$0A@@?$binding@V?$basic_string@DU?$char_traits@D@std@@V?$allocator@D@2@@std@@P8Vector2D@@BEMXZV3@@u_detail@sol@@SAHPAUlua_State@@@Z 00000000100ae6a0     LuaAPI.obj
 0001:000ad6b0       ?data@?$binding@V?$basic_string@DU?$char_traits@D@std@@V?$allocator@D@2@@std@@P8Vector2D@@BEMXZV3@@u_detail@sol@@UAEPAXXZ 00000000100ae6b0     LuaAPI.obj
 0001:000ad6c0       ??_G?$binding@V?$basic_string@DU?$char_traits@D@std@@V?$allocator@D@2@@std@@P8Vector2D@@BEMXZV3@@u_detail@sol@@UAEPAXI@Z 00000000100ae6c0     LuaAPI.obj
 0001:000ad6e0       ??$call@$00$0A@@?$binding@V?$basic_string@DU?$char_traits@D@std@@V?$allocator@D@2@@std@@P8Vector2D@@BEMXZV3@@u_detail@sol@@SAHPAUlua_State@@@Z 00000000100ae6e0     LuaAPI.obj
 0001:000ad6f0       ??$static_trampoline@$1??$call_@$00$0A@@?$binding@V?$basic_string@DU?$char_traits@D@std@@V?$allocator@D@2@@std@@P8Vector2D@@BEMXZV3@@u_detail@sol@@SAHPAUlua_State@@@Z@detail@sol@@YAHPAUlua_State@@@Z 00000000100ae6f0     LuaAPI.obj
 0001:000ad8b0       ??$static_trampoline@$1??$call_@$0A@$0A@@?$binding@V?$basic_string@DU?$char_traits@D@std@@V?$allocator@D@2@@std@@P8Vector2D@@BEMXZV3@@u_detail@sol@@SAHPAUlua_State@@@Z@detail@sol@@YAHPAUlua_State@@@Z 00000000100ae8b0     LuaAPI.obj
 0001:000ada70       ??$traverse_set@V?$basic_string@DU?$char_traits@D@std@@V?$allocator@D@2@@std@@P8Vector2D@@BEMXZ@?$basic_table_core@$0A@V?$basic_reference@$0A@@sol@@@sol@@QAEAAV01@$$QAV?$basic_string@DU?$char_traits@D@std@@V?$allocator@D@2@@std@@$$QAP8Vector2D@@BEMXZ@Z 00000000100aea70     LuaAPI.obj
 0001:000adbc0       ?call@?$upvalue_this_member_function@VVector2D@@P81@BEMXZ$0A@@function_detail@sol@@SAHPAUlua_State@@@Z 00000000100aebc0     LuaAPI.obj
 0001:000adbd0       ??$static_trampoline@$1?real_call@?$upvalue_this_member_function@VVector2D@@P81@BEMXZ$0A@@function_detail@sol@@SAHPAUlua_State@@@Z@detail@sol@@YAHPAUlua_State@@@Z 00000000100aebd0     LuaAPI.obj
 0001:000add90       ?user_gc_metatable@?$usertype_traits@P8Vector2D@@BEMXZ@sol@@SAABV?$basic_string@DU?$char_traits@D@std@@V?$allocator@D@2@@std@@XZ 00000000100aed90     LuaAPI.obj
 0001:000ae180       ??$push_with@$00ABQBDP8Vector2D@@BEMXZ@?$unqualified_pusher@U?$user@P8Vector2D@@BEMXZ@sol@@X@stack@sol@@SAHPAUlua_State@@ABQBD$$QAP8Vector2D@@BEMXZ@Z 00000000100af180     LuaAPI.obj
 0001:000ae210       ??$ctti_get_type_name@P8Vector2D@@BEMXZ@detail@sol@@YA?AV?$basic_string@DU?$char_traits@D@std@@V?$allocator@D@2@@std@@XZ 00000000100af210     LuaAPI.obj
 0001:000ae2a0       ??$user_allocate@P8Vector2D@@BEMXZ@detail@sol@@YAPAP8Vector2D@@BEMXZPAUlua_State@@@Z 00000000100af2a0     LuaAPI.obj
 0001:000ae4b0       ??$user_alloc_destruct@P8Vector2D@@BEMXZ@detail@sol@@YAHPAUlua_State@@@Z 00000000100af4b0     LuaAPI.obj
 0001:000ae4d0       ??$new_usertype@VQAngle@@ABV?$basic_string@DU?$char_traits@D@std@@V?$allocator@D@2@@std@@U?$constructor_list@$$A6A?AVQAngle@@XZ$$A6A?AV1@HHH@Z$$A6A?AV1@MMM@Z@sol@@V23@PQ1@MV23@PQ1@MV23@PQ1@MV23@P81@BEMXZV23@P81@BEMXZX@?$basic_table_core@$00V?$basic_reference@$0A@@sol@@@sol@@QAE?AV?$basic_usertype@VQAngle@@V?$basic_reference@$0A@@sol@@@1@ABV?$basic_string@DU?$char_traits@D@std@@V?$allocator@D@2@@std@@$$QAU?$constructor_list@$$A6A?AVQAngle@@XZ$$A6A?AV1@HHH@Z$$A6A?AV1@MMM@Z@1@$$QAV34@$$QAPQQAngle@@M23232$$QAP86@BEMXZ24@Z 00000000100af4d0     LuaAPI.obj
 0001:000ae5e0       ??$new_usertype@VQAngle@@ABV?$basic_string@DU?$char_traits@D@std@@V?$allocator@D@2@@std@@@?$basic_table_core@$00V?$basic_reference@$0A@@sol@@@sol@@QAE?AV?$basic_usertype@VQAngle@@V?$basic_reference@$0A@@sol@@@1@ABV?$basic_string@DU?$char_traits@D@std@@V?$allocator@D@2@@std@@Uautomagic_enrollments@1@@Z 00000000100af5e0     LuaAPI.obj
 0001:000ae6f0       ??$set@W4meta_function@sol@@U?$constructor_list@$$A6A?AVQAngle@@XZ$$A6A?AV1@HHH@Z$$A6A?AV1@MMM@Z@2@@?$basic_usertype@VQAngle@@V?$basic_reference@$0A@@sol@@@sol@@QAEX$$QAW4meta_function@1@$$QAU?$constructor_list@$$A6A?AVQAngle@@XZ$$A6A?AV1@HHH@Z$$A6A?AV1@MMM@Z@1@@Z 00000000100af6f0     LuaAPI.obj
 0001:000ae790       ??$register_usertype@VQAngle@@@u_detail@sol@@YAHPAUlua_State@@Uautomagic_enrollments@1@@Z 00000000100af790     LuaAPI.obj
 0001:000aebd0       ??$delete_usertype_storage@VQAngle@@@u_detail@sol@@YAXPAUlua_State@@@Z 00000000100afbd0     LuaAPI.obj
 0001:000aec60       ??$create_usertype_storage@VQAngle@@@u_detail@sol@@YAAAU?$usertype_storage@VQAngle@@@01@PAUlua_State@@@Z 00000000100afc60     LuaAPI.obj
 0001:000aed60       ?gc_table@?$usertype_traits@VQAngle@@@sol@@SAABV?$basic_string@DU?$char_traits@D@std@@V?$allocator@D@2@@std@@XZ 00000000100afd60     LuaAPI.obj
 0001:000af150       ?metatable@?$usertype_traits@$$CBVQAngle@@@sol@@SAABV?$basic_string@DU?$char_traits@D@std@@V?$allocator@D@2@@std@@XZ 00000000100b0150     LuaAPI.obj
 0001:000af4d0       ?metatable@?$usertype_traits@PBVQAngle@@@sol@@SAABV?$basic_string@DU?$char_traits@D@std@@V?$allocator@D@2@@std@@XZ 00000000100b04d0     LuaAPI.obj
 0001:000af850       ?metatable@?$usertype_traits@PAVQAngle@@@sol@@SAABV?$basic_string@DU?$char_traits@D@std@@V?$allocator@D@2@@std@@XZ 00000000100b0850     LuaAPI.obj
 0001:000afbd0       ?metatable@?$usertype_traits@U?$unique_usertype@VQAngle@@@detail@sol@@@sol@@SAABV?$basic_string@DU?$char_traits@D@std@@V?$allocator@D@2@@std@@XZ 00000000100b0bd0     LuaAPI.obj
 0001:000aff50       ?metatable@?$usertype_traits@VQAngle@@@sol@@SAABV?$basic_string@DU?$char_traits@D@std@@V?$allocator@D@2@@std@@XZ 00000000100b0f50     LuaAPI.obj
 0001:000b02d0       ??$is_check@VQAngle@@@detail@sol@@YAHPAUlua_State@@@Z 00000000100b12d0     LuaAPI.obj
 0001:000b0350       ??$destruct_usertype_storage@VQAngle@@@u_detail@sol@@YAHPAUlua_State@@@Z 00000000100b1350     LuaAPI.obj
 0001:000b0370       ?user_gc_metatable@?$usertype_traits@U?$usertype_storage@VQAngle@@@u_detail@sol@@@sol@@SAABV?$basic_string@DU?$char_traits@D@std@@V?$allocator@D@2@@std@@XZ 00000000100b1370     LuaAPI.obj
 0001:000b0760       ??$ctti_get_type_name@U?$usertype_storage@VQAngle@@@u_detail@sol@@@detail@sol@@YA?AV?$basic_string@DU?$char_traits@D@std@@V?$allocator@D@2@@std@@XZ 00000000100b1760     LuaAPI.obj
 0001:000b07f0       ??$user_allocate@U?$usertype_storage@VQAngle@@@u_detail@sol@@@detail@sol@@YAPAU?$usertype_storage@VQAngle@@@u_detail@1@PAUlua_State@@@Z 00000000100b17f0     LuaAPI.obj
 0001:000b0a10       ??$ctti_get_type_name@$$CBVQAngle@@@detail@sol@@YA?AV?$basic_string@DU?$char_traits@D@std@@V?$allocator@D@2@@std@@XZ 00000000100b1a10     LuaAPI.obj
 0001:000b0aa0       ??$ctti_get_type_name@PBVQAngle@@@detail@sol@@YA?AV?$basic_string@DU?$char_traits@D@std@@V?$allocator@D@2@@std@@XZ 00000000100b1aa0     LuaAPI.obj
 0001:000b0b30       ??$ctti_get_type_name@PAVQAngle@@@detail@sol@@YA?AV?$basic_string@DU?$char_traits@D@std@@V?$allocator@D@2@@std@@XZ 00000000100b1b30     LuaAPI.obj
 0001:000b0bc0       ??$ctti_get_type_name@U?$unique_usertype@VQAngle@@@detail@sol@@@detail@sol@@YA?AV?$basic_string@DU?$char_traits@D@std@@V?$allocator@D@2@@std@@XZ 00000000100b1bc0     LuaAPI.obj
 0001:000b0c50       ??$ctti_get_type_name@VQAngle@@@detail@sol@@YA?AV?$basic_string@DU?$char_traits@D@std@@V?$allocator@D@2@@std@@XZ 00000000100b1c50     LuaAPI.obj
 0001:000b0ce0       ??$check@VQAngle@@P6AHPAUlua_State@@HW4type@sol@@1PBD@_E@?$unqualified_checker@U?$as_value_tag@VQAngle@@@detail@sol@@$06X@stack@sol@@SA_NU?$types@VQAngle@@@2@PAUlua_State@@HW4type@2@$$QAP6AH1H22PBD@_EAAUrecord@12@@Z 00000000100b1ce0     LuaAPI.obj
 0001:000b0fd0       ?qualified_name@?$usertype_traits@VQAngle@@@sol@@SAABV?$basic_string@DU?$char_traits@D@std@@V?$allocator@D@2@@std@@XZ 00000000100b1fd0     LuaAPI.obj
 0001:000b1100       ?metatable@?$usertype_traits@U?$as_container_t@VQAngle@@@sol@@@sol@@SAABV?$basic_string@DU?$char_traits@D@std@@V?$allocator@D@2@@std@@XZ 00000000100b2100     LuaAPI.obj
 0001:000b1480       ??$ctti_get_type_name@U?$as_container_t@VQAngle@@@sol@@@detail@sol@@YA?AV?$basic_string@DU?$char_traits@D@std@@V?$allocator@D@2@@std@@XZ 00000000100b2480     LuaAPI.obj
 0001:000b1510       ??R<lambda_1>@?0???$register_usertype@VQAngle@@@u_detail@sol@@YAHPAUlua_State@@Uautomagic_enrollments@2@@Z@QBE?A?<auto>@@0W4submetatable_type@12@AAV?$basic_reference@$0A@@2@@Z 00000000100b2510     LuaAPI.obj
 0001:000b1b00       ?user_metatable@?$usertype_traits@VQAngle@@@sol@@SAABV?$basic_string@DU?$char_traits@D@std@@V?$allocator@D@2@@std@@XZ 00000000100b2b00     LuaAPI.obj
 0001:000b1ef0       ??$unique_destruct@VQAngle@@@detail@sol@@YAHPAUlua_State@@@Z 00000000100b2ef0     LuaAPI.obj
 0001:000b1f30       ?type_check@?$inheritance@VQAngle@@@detail@sol@@SA_NABV?$basic_string_view@DU?$char_traits@D@std@@@std@@@Z 00000000100b2f30     LuaAPI.obj
 0001:000b1f70       ?type_cast@?$inheritance@VQAngle@@@detail@sol@@SAPAXPAXABV?$basic_string_view@DU?$char_traits@D@std@@@std@@@Z 00000000100b2f70     LuaAPI.obj
 0001:000b1fb0       ??$insert_default_registrations@VQAngle@@AAV<lambda_1>@?0???R2?0???$register_usertype@VQAngle@@@u_detail@sol@@YAHPAUlua_State@@Uautomagic_enrollments@4@@Z@QBE?A?<auto>@@0W4submetatable_type@34@AAV?$basic_reference@$0A@@4@@Z@AAUproperties_enrollment_allowed@detail@4@@detail@sol@@YAXAAV<lambda_1>@?0???R2?0???$register_usertype@VQAngle@@@u_detail@1@YAHPAUlua_State@@Uautomagic_enrollments@1@@Z@QBE?A?<auto>@@0W4submetatable_type@31@AAV?$basic_reference@$0A@@1@@Z@AAUproperties_enrollment_allowed@01@@Z 00000000100b2fb0     LuaAPI.obj
 0001:000b20f0       ??$meta_index_call@$0A@@?$usertype_storage@VQAngle@@@u_detail@sol@@SAHPAUlua_State@@@Z 00000000100b30f0     LuaAPI.obj
 0001:000b2100       ??$meta_index_call@$00@?$usertype_storage@VQAngle@@@u_detail@sol@@SAHPAUlua_State@@@Z 00000000100b3100     LuaAPI.obj
 0001:000b2110       ??$index_call@$00@?$usertype_storage@VQAngle@@@u_detail@sol@@SAHPAUlua_State@@@Z 00000000100b3110     LuaAPI.obj
 0001:000b2120       ??$usertype_alloc_destruct@VQAngle@@@detail@sol@@YAHPAUlua_State@@@Z 00000000100b3120     LuaAPI.obj
 0001:000b2140       ??$comparsion_operator_wrap@VQAngle@@Uno_comp@detail@sol@@@detail@sol@@YAHPAUlua_State@@@Z 00000000100b3140     LuaAPI.obj
 0001:000b21e0       ?pairs_call@?$u_c_launch@U?$as_container_t@VQAngle@@@sol@@@container_detail@sol@@SAHPAUlua_State@@@Z 00000000100b31e0     LuaAPI.obj
 0001:000b21f0       ??$get_using@V?$optional@AAVQAngle@@@sol@@AAP6AHPAUlua_State@@HW4type@2@1PBD@_E@?$unqualified_check_getter@VQAngle@@X@stack@sol@@SA?AV?$optional@AAVQAngle@@@2@PAUlua_State@@HAAP6AH0HW4type@2@1PBD@_EAAUrecord@12@@Z 00000000100b31f0     LuaAPI.obj
 0001:000b22a0       ??$check@VQAngle@@AAP6AHPAUlua_State@@HW4type@sol@@1PBD@_E@?$unqualified_checker@U?$as_value_tag@VQAngle@@@detail@sol@@$06X@stack@sol@@SA_NU?$types@VQAngle@@@2@PAUlua_State@@HW4type@2@AAP6AH1H22PBD@_EAAUrecord@12@@Z 00000000100b32a0     LuaAPI.obj
 0001:000b2590       ?get_no_lua_nil_from@?$unqualified_getter@U?$as_value_tag@VQAngle@@@detail@sol@@X@stack@sol@@SAPAVQAngle@@PAUlua_State@@PAXHAAUrecord@23@@Z 00000000100b3590     LuaAPI.obj
 0001:000b2630       ??$static_trampoline@$1?real_pairs_call@?$u_c_launch@U?$as_container_t@VQAngle@@@sol@@@container_detail@sol@@SAHPAUlua_State@@@Z@detail@sol@@YAHPAUlua_State@@@Z 00000000100b3630     LuaAPI.obj
 0001:000b2800       ??$static_trampoline@$1??$index_call_@$0A@$00@?$usertype_storage@VQAngle@@@u_detail@sol@@SAHPAUlua_State@@@Z@detail@sol@@YAHPAUlua_State@@@Z 00000000100b3800     LuaAPI.obj
 0001:000b2960       ??$static_trampoline@$1??$index_call_@$00$00@?$usertype_storage@VQAngle@@@u_detail@sol@@SAHPAUlua_State@@@Z@detail@sol@@YAHPAUlua_State@@@Z 00000000100b3960     LuaAPI.obj
 0001:000b2ac0       ??$static_trampoline@$1??$index_call_@$00$0A@@?$usertype_storage@VQAngle@@@u_detail@sol@@SAHPAUlua_State@@@Z@detail@sol@@YAHPAUlua_State@@@Z 00000000100b3ac0     LuaAPI.obj
 0001:000b2c20       ??$set@VQAngle@@W4meta_function@sol@@U?$constructor_list@$$A6A?AVQAngle@@XZ@3@@usertype_storage_base@u_detail@sol@@QAEXPAUlua_State@@$$QAW4meta_function@2@$$QAU?$constructor_list@$$A6A?AVQAngle@@XZ@2@@Z 00000000100b3c20     LuaAPI.obj
 0001:000b34a0       ??$call_with_@$00$0A@@?$binding@W4meta_function@sol@@U?$constructor_list@$$A6A?AVQAngle@@XZ@2@VQAngle@@@u_detail@sol@@SAHPAUlua_State@@PAX@Z 00000000100b44a0     LuaAPI.obj
 0001:000b34b0       ??$index_call_with_@$00$0A@@?$binding@W4meta_function@sol@@U?$constructor_list@$$A6A?AVQAngle@@XZ@2@VQAngle@@@u_detail@sol@@SAHPAUlua_State@@PAX@Z 00000000100b44b0     LuaAPI.obj
 0001:000b34f0       ??$call_with_@$0A@$0A@@?$binding@W4meta_function@sol@@U?$constructor_list@$$A6A?AVQAngle@@XZ@2@VQAngle@@@u_detail@sol@@SAHPAUlua_State@@PAX@Z 00000000100b44f0     LuaAPI.obj
 0001:000b3500       ??$index_call_with_@$0A@$0A@@?$binding@W4meta_function@sol@@U?$constructor_list@$$A6A?AVQAngle@@XZ@2@VQAngle@@@u_detail@sol@@SAHPAUlua_State@@PAX@Z 00000000100b4500     LuaAPI.obj
 0001:000b3540       ??$call@$0A@$0A@@?$binding@W4meta_function@sol@@U?$constructor_list@$$A6A?AVQAngle@@XZ@2@VQAngle@@@u_detail@sol@@SAHPAUlua_State@@@Z 00000000100b4540     LuaAPI.obj
 0001:000b3550       ??$index_call@$0A@@?$usertype_storage@VQAngle@@@u_detail@sol@@SAHPAUlua_State@@@Z 00000000100b4550     LuaAPI.obj
 0001:000b3560       ?data@?$binding@W4meta_function@sol@@U?$constructor_list@$$A6A?AVQAngle@@XZ@2@VQAngle@@@u_detail@sol@@UAEPAXXZ 00000000100b4560     LuaAPI.obj
 0001:000b3570       ??_G?$binding@W4meta_function@sol@@U?$constructor_list@$$A6A?AVQAngle@@XZ@2@VQAngle@@@u_detail@sol@@UAEPAXI@Z 00000000100b4570     LuaAPI.obj
 0001:000b3590       ?call@?$lua_call_wrapper@VQAngle@@U?$constructor_list@$$A6A?AVQAngle@@XZ@sol@@$00$0A@$0A@$0A@$00X@call_detail@sol@@SAHPAUlua_State@@AAU?$constructor_list@$$A6A?AVQAngle@@XZ@3@@Z 00000000100b4590     LuaAPI.obj
 0001:000b3760       ??$usertype_allocate@VQAngle@@@detail@sol@@YAPAVQAngle@@PAUlua_State@@@Z 00000000100b4760     LuaAPI.obj
 0001:000b3a40       ??$set_undefined_methods_on@VQAngle@@@stack_detail@stack@sol@@YAXVstack_reference@2@@Z 00000000100b4a40     LuaAPI.obj
 0001:000b3cf0       ??$call@$00$0A@@?$binding@W4meta_function@sol@@U?$constructor_list@$$A6A?AVQAngle@@XZ@2@VQAngle@@@u_detail@sol@@SAHPAUlua_State@@@Z 00000000100b4cf0     LuaAPI.obj
 0001:000b3d00       ??$static_trampoline@$1??$call_@$00$0A@@?$binding@W4meta_function@sol@@U?$constructor_list@$$A6A?AVQAngle@@XZ@2@VQAngle@@@u_detail@sol@@SAHPAUlua_State@@@Z@detail@sol@@YAHPAUlua_State@@@Z 00000000100b4d00     LuaAPI.obj
 0001:000b3e50       ?call@?$lua_call_wrapper@VQAngle@@U?$constructor_list@$$A6A?AVQAngle@@XZ@sol@@$0A@$0A@$0A@$0A@$00X@call_detail@sol@@SAHPAUlua_State@@AAU?$constructor_list@$$A6A?AVQAngle@@XZ@3@@Z 00000000100b4e50     LuaAPI.obj
 0001:000b4020       ??$static_trampoline@$1??$call_@$0A@$0A@@?$binding@W4meta_function@sol@@U?$constructor_list@$$A6A?AVQAngle@@XZ@2@VQAngle@@@u_detail@sol@@SAHPAUlua_State@@@Z@detail@sol@@YAHPAUlua_State@@@Z 00000000100b5020     LuaAPI.obj
 0001:000b4170       ??$static_trampoline@$1??$index_call_@$0A@$0A@@?$usertype_storage@VQAngle@@@u_detail@sol@@SAHPAUlua_State@@@Z@detail@sol@@YAHPAUlua_State@@@Z 00000000100b5170     LuaAPI.obj
 0001:000b42d0       ??$traverse_set_deep@$00$0A@$0A@ABV?$basic_string@DU?$char_traits@D@std@@V?$allocator@D@2@@std@@AAV?$basic_usertype@VQAngle@@V?$basic_reference@$0A@@sol@@@sol@@@?$basic_table_core@$00V?$basic_reference@$0A@@sol@@@sol@@ABEXHABV?$basic_string@DU?$char_traits@D@std@@V?$allocator@D@2@@std@@AAV?$basic_usertype@VQAngle@@V?$basic_reference@$0A@@sol@@@1@@Z 00000000100b52d0     LuaAPI.obj
 0001:000b4350       ??$set@VQAngle@@W4meta_function@sol@@U?$constructor_list@$$A6A?AVQAngle@@XZ$$A6A?AV1@HHH@Z$$A6A?AV1@MMM@Z@3@@usertype_storage_base@u_detail@sol@@QAEXPAUlua_State@@$$QAW4meta_function@2@$$QAU?$constructor_list@$$A6A?AVQAngle@@XZ$$A6A?AV1@HHH@Z$$A6A?AV1@MMM@Z@2@@Z 00000000100b5350     LuaAPI.obj
 0001:000b4bd0       ??$call_with_@$00$0A@@?$binding@W4meta_function@sol@@U?$constructor_list@$$A6A?AVQAngle@@XZ$$A6A?AV1@HHH@Z$$A6A?AV1@MMM@Z@2@VQAngle@@@u_detail@sol@@SAHPAUlua_State@@PAX@Z 00000000100b5bd0     LuaAPI.obj
 0001:000b4be0       ??$index_call_with_@$00$0A@@?$binding@W4meta_function@sol@@U?$constructor_list@$$A6A?AVQAngle@@XZ$$A6A?AV1@HHH@Z$$A6A?AV1@MMM@Z@2@VQAngle@@@u_detail@sol@@SAHPAUlua_State@@PAX@Z 00000000100b5be0     LuaAPI.obj
 0001:000b4c20       ??$call_with_@$0A@$0A@@?$binding@W4meta_function@sol@@U?$constructor_list@$$A6A?AVQAngle@@XZ$$A6A?AV1@HHH@Z$$A6A?AV1@MMM@Z@2@VQAngle@@@u_detail@sol@@SAHPAUlua_State@@PAX@Z 00000000100b5c20     LuaAPI.obj
 0001:000b4c30       ??$index_call_with_@$0A@$0A@@?$binding@W4meta_function@sol@@U?$constructor_list@$$A6A?AVQAngle@@XZ$$A6A?AV1@HHH@Z$$A6A?AV1@MMM@Z@2@VQAngle@@@u_detail@sol@@SAHPAUlua_State@@PAX@Z 00000000100b5c30     LuaAPI.obj
 0001:000b4c70       ??$call@$0A@$0A@@?$binding@W4meta_function@sol@@U?$constructor_list@$$A6A?AVQAngle@@XZ$$A6A?AV1@HHH@Z$$A6A?AV1@MMM@Z@2@VQAngle@@@u_detail@sol@@SAHPAUlua_State@@@Z 00000000100b5c70     LuaAPI.obj
 0001:000b4c80       ?data@?$binding@W4meta_function@sol@@U?$constructor_list@$$A6A?AVQAngle@@XZ$$A6A?AV1@HHH@Z$$A6A?AV1@MMM@Z@2@VQAngle@@@u_detail@sol@@UAEPAXXZ 00000000100b5c80     LuaAPI.obj
 0001:000b4c90       ??_G?$binding@W4meta_function@sol@@U?$constructor_list@$$A6A?AVQAngle@@XZ$$A6A?AV1@HHH@Z$$A6A?AV1@MMM@Z@2@VQAngle@@@u_detail@sol@@UAEPAXI@Z 00000000100b5c90     LuaAPI.obj
 0001:000b4cb0       ?call@?$lua_call_wrapper@VQAngle@@U?$constructor_list@$$A6A?AVQAngle@@XZ$$A6A?AV1@HHH@Z$$A6A?AV1@MMM@Z@sol@@$00$0A@$0A@$0A@$00X@call_detail@sol@@SAHPAUlua_State@@AAU?$constructor_list@$$A6A?AVQAngle@@XZ$$A6A?AV1@HHH@Z$$A6A?AV1@MMM@Z@3@@Z 00000000100b5cb0     LuaAPI.obj
 0001:000b4eb0       ??$overload_match_arity@$$A6AXHHH@Z$$A6AXMMM@Z$00$01$$Z$0A@U?$constructor_match@VQAngle@@$0A@$00@call_detail@sol@@$$V@overload_detail@call_detail@sol@@YAHU?$types@$$A6AXHHH@Z$$A6AXMMM@Z@2@U?$integer_sequence@I$00$01@std@@U?$integer_sequence@I$0A@@5@$$QAU?$constructor_match@VQAngle@@$0A@$00@12@PAUlua_State@@HH@Z 00000000100b5eb0     LuaAPI.obj
 0001:000b5000       ??$call@$00$0A@@?$binding@W4meta_function@sol@@U?$constructor_list@$$A6A?AVQAngle@@XZ$$A6A?AV1@HHH@Z$$A6A?AV1@MMM@Z@2@VQAngle@@@u_detail@sol@@SAHPAUlua_State@@@Z 00000000100b6000     LuaAPI.obj
 0001:000b5010       ??$static_trampoline@$1??$call_@$00$0A@@?$binding@W4meta_function@sol@@U?$constructor_list@$$A6A?AVQAngle@@XZ$$A6A?AV1@HHH@Z$$A6A?AV1@MMM@Z@2@VQAngle@@@u_detail@sol@@SAHPAUlua_State@@@Z@detail@sol@@YAHPAUlua_State@@@Z 00000000100b6010     LuaAPI.obj
 0001:000b5160       ?call@?$lua_call_wrapper@VQAngle@@U?$constructor_list@$$A6A?AVQAngle@@XZ$$A6A?AV1@HHH@Z$$A6A?AV1@MMM@Z@sol@@$0A@$0A@$0A@$0A@$00X@call_detail@sol@@SAHPAUlua_State@@AAU?$constructor_list@$$A6A?AVQAngle@@XZ$$A6A?AV1@HHH@Z$$A6A?AV1@MMM@Z@3@@Z 00000000100b6160     LuaAPI.obj
 0001:000b5360       ??$static_trampoline@$1??$call_@$0A@$0A@@?$binding@W4meta_function@sol@@U?$constructor_list@$$A6A?AVQAngle@@XZ$$A6A?AV1@HHH@Z$$A6A?AV1@MMM@Z@2@VQAngle@@@u_detail@sol@@SAHPAUlua_State@@@Z@detail@sol@@YAHPAUlua_State@@@Z 00000000100b6360     LuaAPI.obj
 0001:000b54b0       ??$traverse_set@W4meta_function@sol@@U?$tagged@VQAngle@@U?$constructor_list@$$A6A?AVQAngle@@XZ$$A6A?AV1@HHH@Z$$A6A?AV1@MMM@Z@sol@@@detail@2@@?$basic_table_core@$0A@V?$basic_reference@$0A@@sol@@@sol@@QAEAAV01@$$QAW4meta_function@1@$$QAU?$tagged@VQAngle@@U?$constructor_list@$$A6A?AVQAngle@@XZ$$A6A?AV1@HHH@Z$$A6A?AV1@MMM@Z@sol@@@detail@1@@Z 00000000100b64b0     LuaAPI.obj
 0001:000b55c0       ??$set@W4meta_function@sol@@U?$tagged@VQAngle@@U?$constructor_list@$$A6A?AVQAngle@@XZ$$A6A?AV1@HHH@Z$$A6A?AV1@MMM@Z@sol@@@detail@2@@?$field_setter@W4meta_function@sol@@$0A@$0A@X@stack@sol@@QAEXPAUlua_State@@$$QAW4meta_function@2@$$QAU?$tagged@VQAngle@@U?$constructor_list@$$A6A?AVQAngle@@XZ$$A6A?AV1@HHH@Z$$A6A?AV1@MMM@Z@sol@@@detail@2@H@Z 00000000100b65c0     LuaAPI.obj
 0001:000b5630       ??$construct@VQAngle@@$0A@$00$$A6A?AV1@XZ$$A6A?AV1@HHH@Z$$A6A?AV1@MMM@Z@call_detail@sol@@YAHPAUlua_State@@@Z 00000000100b6630     LuaAPI.obj
 0001:000b5650       ??$construct_trampolined@VQAngle@@$0A@$00$$A6A?AV1@XZ$$A6A?AV1@HHH@Z$$A6A?AV1@MMM@Z@call_detail@sol@@YAHPAUlua_State@@@Z 00000000100b6650     LuaAPI.obj
 0001:000b58d0       ??$set@V?$basic_string@DU?$char_traits@D@std@@V?$allocator@D@2@@std@@PQQAngle@@M@?$basic_usertype@VQAngle@@V?$basic_reference@$0A@@sol@@@sol@@QAEX$$QAV?$basic_string@DU?$char_traits@D@std@@V?$allocator@D@2@@std@@$$QAPQQAngle@@M@Z 00000000100b68d0     LuaAPI.obj
 0001:000b5970       ??$set@V?$basic_string@DU?$char_traits@D@std@@V?$allocator@D@2@@std@@P8QAngle@@BEMXZ@?$basic_usertype@VQAngle@@V?$basic_reference@$0A@@sol@@@sol@@QAEX$$QAV?$basic_string@DU?$char_traits@D@std@@V?$allocator@D@2@@std@@$$QAP8QAngle@@BEMXZ@Z 00000000100b6970     LuaAPI.obj
 0001:000b5a10       ??$set@VQAngle@@V?$basic_string@DU?$char_traits@D@std@@V?$allocator@D@2@@std@@PQ1@M@usertype_storage_base@u_detail@sol@@QAEXPAUlua_State@@$$QAV?$basic_string@DU?$char_traits@D@std@@V?$allocator@D@2@@std@@$$QAPQQAngle@@M@Z 00000000100b6a10     LuaAPI.obj
 0001:000b6290       ??$call_with_@$00$00@?$binding@V?$basic_string@DU?$char_traits@D@std@@V?$allocator@D@2@@std@@PQQAngle@@MV3@@u_detail@sol@@SAHPAUlua_State@@PAX@Z 00000000100b7290     LuaAPI.obj
 0001:000b6310       ??$index_call_with_@$00$00@?$binding@V?$basic_string@DU?$char_traits@D@std@@V?$allocator@D@2@@std@@PQQAngle@@MV3@@u_detail@sol@@SAHPAUlua_State@@PAX@Z 00000000100b7310     LuaAPI.obj
 0001:000b6390       ??$call_with_@$0A@$00@?$binding@V?$basic_string@DU?$char_traits@D@std@@V?$allocator@D@2@@std@@PQQAngle@@MV3@@u_detail@sol@@SAHPAUlua_State@@PAX@Z 00000000100b7390     LuaAPI.obj
 0001:000b6400       ??$index_call_with_@$0A@$00@?$binding@V?$basic_string@DU?$char_traits@D@std@@V?$allocator@D@2@@std@@PQQAngle@@MV3@@u_detail@sol@@SAHPAUlua_State@@PAX@Z 00000000100b7400     LuaAPI.obj
 0001:000b6470       ??$call@$0A@$00@?$binding@V?$basic_string@DU?$char_traits@D@std@@V?$allocator@D@2@@std@@PQQAngle@@MV3@@u_detail@sol@@SAHPAUlua_State@@@Z 00000000100b7470     LuaAPI.obj
 0001:000b6480       ?data@?$binding@V?$basic_string@DU?$char_traits@D@std@@V?$allocator@D@2@@std@@PQQAngle@@MV3@@u_detail@sol@@UAEPAXXZ 00000000100b7480     LuaAPI.obj
 0001:000b6490       ??_G?$binding@V?$basic_string@DU?$char_traits@D@std@@V?$allocator@D@2@@std@@PQQAngle@@MV3@@u_detail@sol@@UAEPAXI@Z 00000000100b7490     LuaAPI.obj
 0001:000b64b0       ??$static_trampoline@$1??$call_@$0A@$00@?$binding@V?$basic_string@DU?$char_traits@D@std@@V?$allocator@D@2@@std@@PQQAngle@@MV3@@u_detail@sol@@SAHPAUlua_State@@@Z@detail@sol@@YAHPAUlua_State@@@Z 00000000100b74b0     LuaAPI.obj
 0001:000b6650       ??$traverse_set@V?$basic_string@DU?$char_traits@D@std@@V?$allocator@D@2@@std@@PQQAngle@@M@?$basic_table_core@$0A@V?$basic_reference@$0A@@sol@@@sol@@QAEAAV01@$$QAV?$basic_string@DU?$char_traits@D@std@@V?$allocator@D@2@@std@@$$QAPQQAngle@@M@Z 00000000100b7650     LuaAPI.obj
 0001:000b6710       ?call@?$upvalue_this_member_variable@VQAngle@@PQ1@M$0A@@function_detail@sol@@SAHPAUlua_State@@@Z 00000000100b7710     LuaAPI.obj
 0001:000b6730       ?real_call@?$upvalue_this_member_variable@VQAngle@@PQ1@M$0A@@function_detail@sol@@SAHPAUlua_State@@@Z 00000000100b7730     LuaAPI.obj
 0001:000b6830       ??$set@VQAngle@@V?$basic_string@DU?$char_traits@D@std@@V?$allocator@D@2@@std@@P81@BEMXZ@usertype_storage_base@u_detail@sol@@QAEXPAUlua_State@@$$QAV?$basic_string@DU?$char_traits@D@std@@V?$allocator@D@2@@std@@$$QAP8QAngle@@BEMXZ@Z 00000000100b7830     LuaAPI.obj
 0001:000b70a0       ??$call_with_@$00$0A@@?$binding@V?$basic_string@DU?$char_traits@D@std@@V?$allocator@D@2@@std@@P8QAngle@@BEMXZV3@@u_detail@sol@@SAHPAUlua_State@@PAX@Z 00000000100b80a0     LuaAPI.obj
 0001:000b7110       ??$index_call_with_@$00$0A@@?$binding@V?$basic_string@DU?$char_traits@D@std@@V?$allocator@D@2@@std@@P8QAngle@@BEMXZV3@@u_detail@sol@@SAHPAUlua_State@@PAX@Z 00000000100b8110     LuaAPI.obj
 0001:000b7150       ??$call_with_@$0A@$0A@@?$binding@V?$basic_string@DU?$char_traits@D@std@@V?$allocator@D@2@@std@@P8QAngle@@BEMXZV3@@u_detail@sol@@SAHPAUlua_State@@PAX@Z 00000000100b8150     LuaAPI.obj
 0001:000b71c0       ??$index_call_with_@$0A@$0A@@?$binding@V?$basic_string@DU?$char_traits@D@std@@V?$allocator@D@2@@std@@P8QAngle@@BEMXZV3@@u_detail@sol@@SAHPAUlua_State@@PAX@Z 00000000100b81c0     LuaAPI.obj
 0001:000b7200       ??$call@$0A@$0A@@?$binding@V?$basic_string@DU?$char_traits@D@std@@V?$allocator@D@2@@std@@P8QAngle@@BEMXZV3@@u_detail@sol@@SAHPAUlua_State@@@Z 00000000100b8200     LuaAPI.obj
 0001:000b7210       ?data@?$binding@V?$basic_string@DU?$char_traits@D@std@@V?$allocator@D@2@@std@@P8QAngle@@BEMXZV3@@u_detail@sol@@UAEPAXXZ 00000000100b8210     LuaAPI.obj
 0001:000b7220       ??_G?$binding@V?$basic_string@DU?$char_traits@D@std@@V?$allocator@D@2@@std@@P8QAngle@@BEMXZV3@@u_detail@sol@@UAEPAXI@Z 00000000100b8220     LuaAPI.obj
 0001:000b7240       ??$call@$00$0A@@?$binding@V?$basic_string@DU?$char_traits@D@std@@V?$allocator@D@2@@std@@P8QAngle@@BEMXZV3@@u_detail@sol@@SAHPAUlua_State@@@Z 00000000100b8240     LuaAPI.obj
 0001:000b7250       ??$static_trampoline@$1??$call_@$00$0A@@?$binding@V?$basic_string@DU?$char_traits@D@std@@V?$allocator@D@2@@std@@P8QAngle@@BEMXZV3@@u_detail@sol@@SAHPAUlua_State@@@Z@detail@sol@@YAHPAUlua_State@@@Z 00000000100b8250     LuaAPI.obj
 0001:000b7410       ??$static_trampoline@$1??$call_@$0A@$0A@@?$binding@V?$basic_string@DU?$char_traits@D@std@@V?$allocator@D@2@@std@@P8QAngle@@BEMXZV3@@u_detail@sol@@SAHPAUlua_State@@@Z@detail@sol@@YAHPAUlua_State@@@Z 00000000100b8410     LuaAPI.obj
 0001:000b75d0       ??$traverse_set@V?$basic_string@DU?$char_traits@D@std@@V?$allocator@D@2@@std@@P8QAngle@@BEMXZ@?$basic_table_core@$0A@V?$basic_reference@$0A@@sol@@@sol@@QAEAAV01@$$QAV?$basic_string@DU?$char_traits@D@std@@V?$allocator@D@2@@std@@$$QAP8QAngle@@BEMXZ@Z 00000000100b85d0     LuaAPI.obj
 0001:000b7720       ?call@?$upvalue_this_member_function@VQAngle@@P81@BEMXZ$0A@@function_detail@sol@@SAHPAUlua_State@@@Z 00000000100b8720     LuaAPI.obj
 0001:000b7730       ??$static_trampoline@$1?real_call@?$upvalue_this_member_function@VQAngle@@P81@BEMXZ$0A@@function_detail@sol@@SAHPAUlua_State@@@Z@detail@sol@@YAHPAUlua_State@@@Z 00000000100b8730     LuaAPI.obj
 0001:000b78f0       ?user_gc_metatable@?$usertype_traits@P8QAngle@@BEMXZ@sol@@SAABV?$basic_string@DU?$char_traits@D@std@@V?$allocator@D@2@@std@@XZ 00000000100b88f0     LuaAPI.obj
 0001:000b7ce0       ??$push_with@$00ABQBDP8QAngle@@BEMXZ@?$unqualified_pusher@U?$user@P8QAngle@@BEMXZ@sol@@X@stack@sol@@SAHPAUlua_State@@ABQBD$$QAP8QAngle@@BEMXZ@Z 00000000100b8ce0     LuaAPI.obj
 0001:000b7d70       ??$ctti_get_type_name@P8QAngle@@BEMXZ@detail@sol@@YA?AV?$basic_string@DU?$char_traits@D@std@@V?$allocator@D@2@@std@@XZ 00000000100b8d70     LuaAPI.obj
 0001:000b7e00       ??$user_allocate@P8QAngle@@BEMXZ@detail@sol@@YAPAP8QAngle@@BEMXZPAUlua_State@@@Z 00000000100b8e00     LuaAPI.obj
 0001:000b8010       ??$user_alloc_destruct@P8QAngle@@BEMXZ@detail@sol@@YAHPAUlua_State@@@Z 00000000100b9010     LuaAPI.obj
 0001:000b8030       ??$new_usertype@VC_UserCmd@@ABV?$basic_string@DU?$char_traits@D@std@@V?$allocator@D@2@@std@@@?$basic_table_core@$00V?$basic_reference@$0A@@sol@@@sol@@QAE?AV?$basic_usertype@VC_UserCmd@@V?$basic_reference@$0A@@sol@@@1@ABV?$basic_string@DU?$char_traits@D@std@@V?$allocator@D@2@@std@@Uautomagic_enrollments@1@@Z 00000000100b9030     LuaAPI.obj
 0001:000b8140       ??$tuple_set@$0A@$00$01$02$03$04$05$06$07$08$09$0L@$0M@$0N@$0O@$$Z$$QAV?$basic_string@DU?$char_traits@D@std@@V?$allocator@D@2@@std@@$$QAPQC_UserCmd@@H$$QAV12@$$QAPQ3@H$$QAV12@$$QAPQ3@VQAngle@@$$QAV12@$$QAPQ3@VVector@@$$QAV12@$$QAPQ3@M$$QAV12@$$QAPQ3@M$$QAV12@$$QAPQ3@M$$QAV12@$$QAPQ3@H$$QAV12@$$QAPQ3@D$$QAV12@$$QAPQ3@H$$QAV12@$$QAPQ3@H$$QAV12@$$QAPQ3@H$$QAV12@$$QAPQ3@F$$QAV12@$$QAPQ3@F$$QAV12@$$QAPQ3@_N@?$basic_usertype@VC_UserCmd@@V?$basic_reference@$0A@@sol@@@sol@@AAEXU?$integer_sequence@I$0A@$00$01$02$03$04$05$06$07$08$09$0L@$0M@$0N@$0O@@std@@$$QAV?$tuple@$$QAV?$basic_string@DU?$char_traits@D@std@@V?$allocator@D@2@@std@@$$QAPQC_UserCmd@@H$$QAV12@$$QAPQ3@H$$QAV12@$$QAPQ3@VQAngle@@$$QAV12@$$QAPQ3@VVector@@$$QAV12@$$QAPQ3@M$$QAV12@$$QAPQ3@M$$QAV12@$$QAPQ3@M$$QAV12@$$QAPQ3@H$$QAV12@$$QAPQ3@D$$QAV12@$$QAPQ3@H$$QAV12@$$QAPQ3@H$$QAV12@$$QAPQ3@H$$QAV12@$$QAPQ3@F$$QAV12@$$QAPQ3@F$$QAV12@$$QAPQ3@_N@3@@Z 00000000100b9140     LuaAPI.obj
 0001:000b8210       ??$register_usertype@VC_UserCmd@@@u_detail@sol@@YAHPAUlua_State@@Uautomagic_enrollments@1@@Z 00000000100b9210     LuaAPI.obj
 0001:000b8650       ??$delete_usertype_storage@VC_UserCmd@@@u_detail@sol@@YAXPAUlua_State@@@Z 00000000100b9650     LuaAPI.obj
 0001:000b86e0       ??$create_usertype_storage@VC_UserCmd@@@u_detail@sol@@YAAAU?$usertype_storage@VC_UserCmd@@@01@PAUlua_State@@@Z 00000000100b96e0     LuaAPI.obj
 0001:000b87e0       ?gc_table@?$usertype_traits@VC_UserCmd@@@sol@@SAABV?$basic_string@DU?$char_traits@D@std@@V?$allocator@D@2@@std@@XZ 00000000100b97e0     LuaAPI.obj
 0001:000b8bd0       ?metatable@?$usertype_traits@$$CBVC_UserCmd@@@sol@@SAABV?$basic_string@DU?$char_traits@D@std@@V?$allocator@D@2@@std@@XZ 00000000100b9bd0     LuaAPI.obj
 0001:000b8f50       ?metatable@?$usertype_traits@PBVC_UserCmd@@@sol@@SAABV?$basic_string@DU?$char_traits@D@std@@V?$allocator@D@2@@std@@XZ 00000000100b9f50     LuaAPI.obj
 0001:000b92d0       ?metatable@?$usertype_traits@PAVC_UserCmd@@@sol@@SAABV?$basic_string@DU?$char_traits@D@std@@V?$allocator@D@2@@std@@XZ 00000000100ba2d0     LuaAPI.obj
 0001:000b9650       ?metatable@?$usertype_traits@U?$unique_usertype@VC_UserCmd@@@detail@sol@@@sol@@SAABV?$basic_string@DU?$char_traits@D@std@@V?$allocator@D@2@@std@@XZ 00000000100ba650     LuaAPI.obj
 0001:000b99d0       ?metatable@?$usertype_traits@VC_UserCmd@@@sol@@SAABV?$basic_string@DU?$char_traits@D@std@@V?$allocator@D@2@@std@@XZ 00000000100ba9d0     LuaAPI.obj
 0001:000b9d50       ??$is_check@VC_UserCmd@@@detail@sol@@YAHPAUlua_State@@@Z 00000000100bad50     LuaAPI.obj
 0001:000b9dd0       ??$destruct_usertype_storage@VC_UserCmd@@@u_detail@sol@@YAHPAUlua_State@@@Z 00000000100badd0     LuaAPI.obj
 0001:000b9df0       ?user_gc_metatable@?$usertype_traits@U?$usertype_storage@VC_UserCmd@@@u_detail@sol@@@sol@@SAABV?$basic_string@DU?$char_traits@D@std@@V?$allocator@D@2@@std@@XZ 00000000100badf0     LuaAPI.obj
 0001:000ba1e0       ??$ctti_get_type_name@U?$usertype_storage@VC_UserCmd@@@u_detail@sol@@@detail@sol@@YA?AV?$basic_string@DU?$char_traits@D@std@@V?$allocator@D@2@@std@@XZ 00000000100bb1e0     LuaAPI.obj
 0001:000ba270       ??$user_allocate@U?$usertype_storage@VC_UserCmd@@@u_detail@sol@@@detail@sol@@YAPAU?$usertype_storage@VC_UserCmd@@@u_detail@1@PAUlua_State@@@Z 00000000100bb270     LuaAPI.obj
 0001:000ba490       ??1usertype_storage_base@u_detail@sol@@QAE@XZ 00000000100bb490     LuaAPI.obj
 0001:000ba760       ??$ctti_get_type_name@$$CBVC_UserCmd@@@detail@sol@@YA?AV?$basic_string@DU?$char_traits@D@std@@V?$allocator@D@2@@std@@XZ 00000000100bb760     LuaAPI.obj
 0001:000ba7f0       ??$ctti_get_type_name@PBVC_UserCmd@@@detail@sol@@YA?AV?$basic_string@DU?$char_traits@D@std@@V?$allocator@D@2@@std@@XZ 00000000100bb7f0     LuaAPI.obj
 0001:000ba880       ??$ctti_get_type_name@PAVC_UserCmd@@@detail@sol@@YA?AV?$basic_string@DU?$char_traits@D@std@@V?$allocator@D@2@@std@@XZ 00000000100bb880     LuaAPI.obj
 0001:000ba910       ??$ctti_get_type_name@U?$unique_usertype@VC_UserCmd@@@detail@sol@@@detail@sol@@YA?AV?$basic_string@DU?$char_traits@D@std@@V?$allocator@D@2@@std@@XZ 00000000100bb910     LuaAPI.obj
 0001:000ba9a0       ??$ctti_get_type_name@VC_UserCmd@@@detail@sol@@YA?AV?$basic_string@DU?$char_traits@D@std@@V?$allocator@D@2@@std@@XZ 00000000100bb9a0     LuaAPI.obj
 0001:000baa30       ??$check@VC_UserCmd@@P6AHPAUlua_State@@HW4type@sol@@1PBD@_E@?$unqualified_checker@U?$as_value_tag@VC_UserCmd@@@detail@sol@@$06X@stack@sol@@SA_NU?$types@VC_UserCmd@@@2@PAUlua_State@@HW4type@2@$$QAP6AH1H22PBD@_EAAUrecord@12@@Z 00000000100bba30     LuaAPI.obj
 0001:000bad20       ?qualified_name@?$usertype_traits@VC_UserCmd@@@sol@@SAABV?$basic_string@DU?$char_traits@D@std@@V?$allocator@D@2@@std@@XZ 00000000100bbd20     LuaAPI.obj
 0001:000bae50       ?metatable@?$usertype_traits@U?$as_container_t@VC_UserCmd@@@sol@@@sol@@SAABV?$basic_string@DU?$char_traits@D@std@@V?$allocator@D@2@@std@@XZ 00000000100bbe50     LuaAPI.obj
 0001:000bb1d0       ??$ctti_get_type_name@U?$as_container_t@VC_UserCmd@@@sol@@@detail@sol@@YA?AV?$basic_string@DU?$char_traits@D@std@@V?$allocator@D@2@@std@@XZ 00000000100bc1d0     LuaAPI.obj
 0001:000bb260       ??R<lambda_1>@?0???$register_usertype@VC_UserCmd@@@u_detail@sol@@YAHPAUlua_State@@Uautomagic_enrollments@2@@Z@QBE?A?<auto>@@0W4submetatable_type@12@AAV?$basic_reference@$0A@@2@@Z 00000000100bc260     LuaAPI.obj
 0001:000bb850       ?user_metatable@?$usertype_traits@VC_UserCmd@@@sol@@SAABV?$basic_string@DU?$char_traits@D@std@@V?$allocator@D@2@@std@@XZ 00000000100bc850     LuaAPI.obj
 0001:000bbc40       ??$unique_destruct@VC_UserCmd@@@detail@sol@@YAHPAUlua_State@@@Z 00000000100bcc40     LuaAPI.obj
 0001:000bbc80       ?type_check@?$inheritance@VC_UserCmd@@@detail@sol@@SA_NABV?$basic_string_view@DU?$char_traits@D@std@@@std@@@Z 00000000100bcc80     LuaAPI.obj
 0001:000bbcc0       ?type_cast@?$inheritance@VC_UserCmd@@@detail@sol@@SAPAXPAXABV?$basic_string_view@DU?$char_traits@D@std@@@std@@@Z 00000000100bccc0     LuaAPI.obj
 0001:000bbd00       ??$insert_default_registrations@VC_UserCmd@@AAV<lambda_1>@?0???R2?0???$register_usertype@VC_UserCmd@@@u_detail@sol@@YAHPAUlua_State@@Uautomagic_enrollments@4@@Z@QBE?A?<auto>@@0W4submetatable_type@34@AAV?$basic_reference@$0A@@4@@Z@AAUproperties_enrollment_allowed@detail@4@@detail@sol@@YAXAAV<lambda_1>@?0???R2?0???$register_usertype@VC_UserCmd@@@u_detail@1@YAHPAUlua_State@@Uautomagic_enrollments@1@@Z@QBE?A?<auto>@@0W4submetatable_type@31@AAV?$basic_reference@$0A@@1@@Z@AAUproperties_enrollment_allowed@01@@Z 00000000100bcd00     LuaAPI.obj
 0001:000bbe40       ??$meta_index_call@$0A@@?$usertype_storage@VC_UserCmd@@@u_detail@sol@@SAHPAUlua_State@@@Z 00000000100bce40     LuaAPI.obj
 0001:000bbe50       ??$meta_index_call@$00@?$usertype_storage@VC_UserCmd@@@u_detail@sol@@SAHPAUlua_State@@@Z 00000000100bce50     LuaAPI.obj
 0001:000bbe60       ??$index_call@$00@?$usertype_storage@VC_UserCmd@@@u_detail@sol@@SAHPAUlua_State@@@Z 00000000100bce60     LuaAPI.obj
 0001:000bbe70       ??$usertype_alloc_destruct@VC_UserCmd@@@detail@sol@@YAHPAUlua_State@@@Z 00000000100bce70     LuaAPI.obj
 0001:000bbe90       ??$comparsion_operator_wrap@VC_UserCmd@@Uno_comp@detail@sol@@@detail@sol@@YAHPAUlua_State@@@Z 00000000100bce90     LuaAPI.obj
 0001:000bbf30       ?pairs_call@?$u_c_launch@U?$as_container_t@VC_UserCmd@@@sol@@@container_detail@sol@@SAHPAUlua_State@@@Z 00000000100bcf30     LuaAPI.obj
 0001:000bbf40       ??$get_using@V?$optional@AAVC_UserCmd@@@sol@@AAP6AHPAUlua_State@@HW4type@2@1PBD@_E@?$unqualified_check_getter@VC_UserCmd@@X@stack@sol@@SA?AV?$optional@AAVC_UserCmd@@@2@PAUlua_State@@HAAP6AH0HW4type@2@1PBD@_EAAUrecord@12@@Z 00000000100bcf40     LuaAPI.obj
 0001:000bbff0       ??$check@VC_UserCmd@@AAP6AHPAUlua_State@@HW4type@sol@@1PBD@_E@?$unqualified_checker@U?$as_value_tag@VC_UserCmd@@@detail@sol@@$06X@stack@sol@@SA_NU?$types@VC_UserCmd@@@2@PAUlua_State@@HW4type@2@AAP6AH1H22PBD@_EAAUrecord@12@@Z 00000000100bcff0     LuaAPI.obj
 0001:000bc2e0       ?get_no_lua_nil_from@?$unqualified_getter@U?$as_value_tag@VC_UserCmd@@@detail@sol@@X@stack@sol@@SAPAVC_UserCmd@@PAUlua_State@@PAXHAAUrecord@23@@Z 00000000100bd2e0     LuaAPI.obj
 0001:000bc380       ??$static_trampoline@$1?real_pairs_call@?$u_c_launch@U?$as_container_t@VC_UserCmd@@@sol@@@container_detail@sol@@SAHPAUlua_State@@@Z@detail@sol@@YAHPAUlua_State@@@Z 00000000100bd380     LuaAPI.obj
 0001:000bc550       ??$static_trampoline@$1??$index_call_@$0A@$00@?$usertype_storage@VC_UserCmd@@@u_detail@sol@@SAHPAUlua_State@@@Z@detail@sol@@YAHPAUlua_State@@@Z 00000000100bd550     LuaAPI.obj
 0001:000bc6b0       ??$static_trampoline@$1??$index_call_@$00$00@?$usertype_storage@VC_UserCmd@@@u_detail@sol@@SAHPAUlua_State@@@Z@detail@sol@@YAHPAUlua_State@@@Z 00000000100bd6b0     LuaAPI.obj
 0001:000bc810       ??$static_trampoline@$1??$index_call_@$00$0A@@?$usertype_storage@VC_UserCmd@@@u_detail@sol@@SAHPAUlua_State@@@Z@detail@sol@@YAHPAUlua_State@@@Z 00000000100bd810     LuaAPI.obj
 0001:000bc970       ??$set@VC_UserCmd@@W4meta_function@sol@@U?$constructor_list@$$A6A?AVC_UserCmd@@XZ@3@@usertype_storage_base@u_detail@sol@@QAEXPAUlua_State@@$$QAW4meta_function@2@$$QAU?$constructor_list@$$A6A?AVC_UserCmd@@XZ@2@@Z 00000000100bd970     LuaAPI.obj
 0001:000bd1f0       ??$call_with_@$00$0A@@?$binding@W4meta_function@sol@@U?$constructor_list@$$A6A?AVC_UserCmd@@XZ@2@VC_UserCmd@@@u_detail@sol@@SAHPAUlua_State@@PAX@Z 00000000100be1f0     LuaAPI.obj
 0001:000bd200       ??$index_call_with_@$00$0A@@?$binding@W4meta_function@sol@@U?$constructor_list@$$A6A?AVC_UserCmd@@XZ@2@VC_UserCmd@@@u_detail@sol@@SAHPAUlua_State@@PAX@Z 00000000100be200     LuaAPI.obj
 0001:000bd240       ??$call_with_@$0A@$0A@@?$binding@W4meta_function@sol@@U?$constructor_list@$$A6A?AVC_UserCmd@@XZ@2@VC_UserCmd@@@u_detail@sol@@SAHPAUlua_State@@PAX@Z 00000000100be240     LuaAPI.obj
 0001:000bd250       ??$index_call_with_@$0A@$0A@@?$binding@W4meta_function@sol@@U?$constructor_list@$$A6A?AVC_UserCmd@@XZ@2@VC_UserCmd@@@u_detail@sol@@SAHPAUlua_State@@PAX@Z 00000000100be250     LuaAPI.obj
 0001:000bd290       ??$call@$0A@$0A@@?$binding@W4meta_function@sol@@U?$constructor_list@$$A6A?AVC_UserCmd@@XZ@2@VC_UserCmd@@@u_detail@sol@@SAHPAUlua_State@@@Z 00000000100be290     LuaAPI.obj
 0001:000bd2a0       ??$index_call@$0A@@?$usertype_storage@VC_UserCmd@@@u_detail@sol@@SAHPAUlua_State@@@Z 00000000100be2a0     LuaAPI.obj
 0001:000bd2b0       ?data@?$binding@W4meta_function@sol@@U?$constructor_list@$$A6A?AVC_UserCmd@@XZ@2@VC_UserCmd@@@u_detail@sol@@UAEPAXXZ 00000000100be2b0     LuaAPI.obj
 0001:000bd2c0       ??_G?$binding@W4meta_function@sol@@U?$constructor_list@$$A6A?AVC_UserCmd@@XZ@2@VC_UserCmd@@@u_detail@sol@@UAEPAXI@Z 00000000100be2c0     LuaAPI.obj
 0001:000bd2e0       ?call@?$lua_call_wrapper@VC_UserCmd@@U?$constructor_list@$$A6A?AVC_UserCmd@@XZ@sol@@$00$0A@$0A@$0A@$00X@call_detail@sol@@SAHPAUlua_State@@AAU?$constructor_list@$$A6A?AVC_UserCmd@@XZ@3@@Z 00000000100be2e0     LuaAPI.obj
 0001:000bd4c0       ??$usertype_allocate@VC_UserCmd@@@detail@sol@@YAPAVC_UserCmd@@PAUlua_State@@@Z 00000000100be4c0     LuaAPI.obj
 0001:000bd7a0       ??$set_undefined_methods_on@VC_UserCmd@@@stack_detail@stack@sol@@YAXVstack_reference@2@@Z 00000000100be7a0     LuaAPI.obj
 0001:000bda50       ??$call@$00$0A@@?$binding@W4meta_function@sol@@U?$constructor_list@$$A6A?AVC_UserCmd@@XZ@2@VC_UserCmd@@@u_detail@sol@@SAHPAUlua_State@@@Z 00000000100bea50     LuaAPI.obj
 0001:000bda60       ??$static_trampoline@$1??$call_@$00$0A@@?$binding@W4meta_function@sol@@U?$constructor_list@$$A6A?AVC_UserCmd@@XZ@2@VC_UserCmd@@@u_detail@sol@@SAHPAUlua_State@@@Z@detail@sol@@YAHPAUlua_State@@@Z 00000000100bea60     LuaAPI.obj
 0001:000bdbb0       ?call@?$lua_call_wrapper@VC_UserCmd@@U?$constructor_list@$$A6A?AVC_UserCmd@@XZ@sol@@$0A@$0A@$0A@$0A@$00X@call_detail@sol@@SAHPAUlua_State@@AAU?$constructor_list@$$A6A?AVC_UserCmd@@XZ@3@@Z 00000000100bebb0     LuaAPI.obj
 0001:000bdd90       ??$static_trampoline@$1??$call_@$0A@$0A@@?$binding@W4meta_function@sol@@U?$constructor_list@$$A6A?AVC_UserCmd@@XZ@2@VC_UserCmd@@@u_detail@sol@@SAHPAUlua_State@@@Z@detail@sol@@YAHPAUlua_State@@@Z 00000000100bed90     LuaAPI.obj
 0001:000bdee0       ??$static_trampoline@$1??$index_call_@$0A@$0A@@?$usertype_storage@VC_UserCmd@@@u_detail@sol@@SAHPAUlua_State@@@Z@detail@sol@@YAHPAUlua_State@@@Z 00000000100beee0     LuaAPI.obj
 0001:000be040       ??$traverse_set_deep@$00$0A@$0A@ABV?$basic_string@DU?$char_traits@D@std@@V?$allocator@D@2@@std@@AAV?$basic_usertype@VC_UserCmd@@V?$basic_reference@$0A@@sol@@@sol@@@?$basic_table_core@$00V?$basic_reference@$0A@@sol@@@sol@@ABEXHABV?$basic_string@DU?$char_traits@D@std@@V?$allocator@D@2@@std@@AAV?$basic_usertype@VC_UserCmd@@V?$basic_reference@$0A@@sol@@@1@@Z 00000000100bf040     LuaAPI.obj
 0001:000be0c0       ??$set@V?$basic_string@DU?$char_traits@D@std@@V?$allocator@D@2@@std@@PQC_UserCmd@@H@?$basic_usertype@VC_UserCmd@@V?$basic_reference@$0A@@sol@@@sol@@QAEX$$QAV?$basic_string@DU?$char_traits@D@std@@V?$allocator@D@2@@std@@$$QAPQC_UserCmd@@H@Z 00000000100bf0c0     LuaAPI.obj
 0001:000be160       ??$set@V?$basic_string@DU?$char_traits@D@std@@V?$allocator@D@2@@std@@PQC_UserCmd@@VQAngle@@@?$basic_usertype@VC_UserCmd@@V?$basic_reference@$0A@@sol@@@sol@@QAEX$$QAV?$basic_string@DU?$char_traits@D@std@@V?$allocator@D@2@@std@@$$QAPQC_UserCmd@@VQAngle@@@Z 00000000100bf160     LuaAPI.obj
 0001:000be200       ??$set@V?$basic_string@DU?$char_traits@D@std@@V?$allocator@D@2@@std@@PQC_UserCmd@@VVector@@@?$basic_usertype@VC_UserCmd@@V?$basic_reference@$0A@@sol@@@sol@@QAEX$$QAV?$basic_string@DU?$char_traits@D@std@@V?$allocator@D@2@@std@@$$QAPQC_UserCmd@@VVector@@@Z 00000000100bf200     LuaAPI.obj
 0001:000be2a0       ??$set@V?$basic_string@DU?$char_traits@D@std@@V?$allocator@D@2@@std@@PQC_UserCmd@@M@?$basic_usertype@VC_UserCmd@@V?$basic_reference@$0A@@sol@@@sol@@QAEX$$QAV?$basic_string@DU?$char_traits@D@std@@V?$allocator@D@2@@std@@$$QAPQC_UserCmd@@M@Z 00000000100bf2a0     LuaAPI.obj
 0001:000be340       ??$set@V?$basic_string@DU?$char_traits@D@std@@V?$allocator@D@2@@std@@PQC_UserCmd@@D@?$basic_usertype@VC_UserCmd@@V?$basic_reference@$0A@@sol@@@sol@@QAEX$$QAV?$basic_string@DU?$char_traits@D@std@@V?$allocator@D@2@@std@@$$QAPQC_UserCmd@@D@Z 00000000100bf340     LuaAPI.obj
 0001:000be3e0       ??$set@V?$basic_string@DU?$char_traits@D@std@@V?$allocator@D@2@@std@@PQC_UserCmd@@F@?$basic_usertype@VC_UserCmd@@V?$basic_reference@$0A@@sol@@@sol@@QAEX$$QAV?$basic_string@DU?$char_traits@D@std@@V?$allocator@D@2@@std@@$$QAPQC_UserCmd@@F@Z 00000000100bf3e0     LuaAPI.obj
 0001:000be480       ??$set@V?$basic_string@DU?$char_traits@D@std@@V?$allocator@D@2@@std@@PQC_UserCmd@@_N@?$basic_usertype@VC_UserCmd@@V?$basic_reference@$0A@@sol@@@sol@@QAEX$$QAV?$basic_string@DU?$char_traits@D@std@@V?$allocator@D@2@@std@@$$QAPQC_UserCmd@@_N@Z 00000000100bf480     LuaAPI.obj
 0001:000be520       ??$set@VC_UserCmd@@V?$basic_string@DU?$char_traits@D@std@@V?$allocator@D@2@@std@@PQ1@H@usertype_storage_base@u_detail@sol@@QAEXPAUlua_State@@$$QAV?$basic_string@DU?$char_traits@D@std@@V?$allocator@D@2@@std@@$$QAPQC_UserCmd@@H@Z 00000000100bf520     LuaAPI.obj
 0001:000beda0       ??$call_with_@$00$00@?$binding@V?$basic_string@DU?$char_traits@D@std@@V?$allocator@D@2@@std@@PQC_UserCmd@@HV3@@u_detail@sol@@SAHPAUlua_State@@PAX@Z 00000000100bfda0     LuaAPI.obj
 0001:000bee20       ??$index_call_with_@$00$00@?$binding@V?$basic_string@DU?$char_traits@D@std@@V?$allocator@D@2@@std@@PQC_UserCmd@@HV3@@u_detail@sol@@SAHPAUlua_State@@PAX@Z 00000000100bfe20     LuaAPI.obj
 0001:000beea0       ??$call_with_@$0A@$00@?$binding@V?$basic_string@DU?$char_traits@D@std@@V?$allocator@D@2@@std@@PQC_UserCmd@@HV3@@u_detail@sol@@SAHPAUlua_State@@PAX@Z 00000000100bfea0     LuaAPI.obj
 0001:000bef10       ??$index_call_with_@$0A@$00@?$binding@V?$basic_string@DU?$char_traits@D@std@@V?$allocator@D@2@@std@@PQC_UserCmd@@HV3@@u_detail@sol@@SAHPAUlua_State@@PAX@Z 00000000100bff10     LuaAPI.obj
 0001:000bef80       ??$call@$0A@$00@?$binding@V?$basic_string@DU?$char_traits@D@std@@V?$allocator@D@2@@std@@PQC_UserCmd@@HV3@@u_detail@sol@@SAHPAUlua_State@@@Z 00000000100bff80     LuaAPI.obj
 0001:000bef90       ?data@?$binding@V?$basic_string@DU?$char_traits@D@std@@V?$allocator@D@2@@std@@PQC_UserCmd@@HV3@@u_detail@sol@@UAEPAXXZ 00000000100bff90     LuaAPI.obj
 0001:000befa0       ??_G?$binding@V?$basic_string@DU?$char_traits@D@std@@V?$allocator@D@2@@std@@PQC_UserCmd@@HV3@@u_detail@sol@@UAEPAXI@Z 00000000100bffa0     LuaAPI.obj
 0001:000befc0       ??$static_trampoline@$1??$call_@$0A@$00@?$binding@V?$basic_string@DU?$char_traits@D@std@@V?$allocator@D@2@@std@@PQC_UserCmd@@HV3@@u_detail@sol@@SAHPAUlua_State@@@Z@detail@sol@@YAHPAUlua_State@@@Z 00000000100bffc0     LuaAPI.obj
 0001:000bf170       ??$traverse_set@V?$basic_string@DU?$char_traits@D@std@@V?$allocator@D@2@@std@@PQC_UserCmd@@H@?$basic_table_core@$0A@V?$basic_reference@$0A@@sol@@@sol@@QAEAAV01@$$QAV?$basic_string@DU?$char_traits@D@std@@V?$allocator@D@2@@std@@$$QAPQC_UserCmd@@H@Z 00000000100c0170     LuaAPI.obj
 0001:000bf230       ?call@?$upvalue_this_member_variable@VC_UserCmd@@PQ1@H$0A@@function_detail@sol@@SAHPAUlua_State@@@Z 00000000100c0230     LuaAPI.obj
 0001:000bf250       ?real_call@?$upvalue_this_member_variable@VC_UserCmd@@PQ1@H$0A@@function_detail@sol@@SAHPAUlua_State@@@Z 00000000100c0250     LuaAPI.obj
 0001:000bf350       ??$set@VC_UserCmd@@V?$basic_string@DU?$char_traits@D@std@@V?$allocator@D@2@@std@@PQ1@VQAngle@@@usertype_storage_base@u_detail@sol@@QAEXPAUlua_State@@$$QAV?$basic_string@DU?$char_traits@D@std@@V?$allocator@D@2@@std@@$$QAPQC_UserCmd@@VQAngle@@@Z 00000000100c0350     LuaAPI.obj
 0001:000bfbd0       ??$call_with_@$00$00@?$binding@V?$basic_string@DU?$char_traits@D@std@@V?$allocator@D@2@@std@@PQC_UserCmd@@VQAngle@@V3@@u_detail@sol@@SAHPAUlua_State@@PAX@Z 00000000100c0bd0     LuaAPI.obj
 0001:000bfc60       ??$index_call_with_@$00$00@?$binding@V?$basic_string@DU?$char_traits@D@std@@V?$allocator@D@2@@std@@PQC_UserCmd@@VQAngle@@V3@@u_detail@sol@@SAHPAUlua_State@@PAX@Z 00000000100c0c60     LuaAPI.obj
 0001:000bfcf0       ??$call_with_@$0A@$00@?$binding@V?$basic_string@DU?$char_traits@D@std@@V?$allocator@D@2@@std@@PQC_UserCmd@@VQAngle@@V3@@u_detail@sol@@SAHPAUlua_State@@PAX@Z 00000000100c0cf0     LuaAPI.obj
 0001:000bfda0       ??$index_call_with_@$0A@$00@?$binding@V?$basic_string@DU?$char_traits@D@std@@V?$allocator@D@2@@std@@PQC_UserCmd@@VQAngle@@V3@@u_detail@sol@@SAHPAUlua_State@@PAX@Z 00000000100c0da0     LuaAPI.obj
 0001:000bfe50       ??$call@$0A@$00@?$binding@V?$basic_string@DU?$char_traits@D@std@@V?$allocator@D@2@@std@@PQC_UserCmd@@VQAngle@@V3@@u_detail@sol@@SAHPAUlua_State@@@Z 00000000100c0e50     LuaAPI.obj
 0001:000bfe60       ?data@?$binding@V?$basic_string@DU?$char_traits@D@std@@V?$allocator@D@2@@std@@PQC_UserCmd@@VQAngle@@V3@@u_detail@sol@@UAEPAXXZ 00000000100c0e60     LuaAPI.obj
 0001:000bfe70       ??_G?$binding@V?$basic_string@DU?$char_traits@D@std@@V?$allocator@D@2@@std@@PQC_UserCmd@@VQAngle@@V3@@u_detail@sol@@UAEPAXI@Z 00000000100c0e70     LuaAPI.obj
 0001:000bfe90       ??$set_undefined_methods_on@PAVQAngle@@@stack_detail@stack@sol@@YAXVstack_reference@2@@Z 00000000100c0e90     LuaAPI.obj
 0001:000c0110       ??$usertype_allocate_pointer@VQAngle@@@detail@sol@@YAPAPAVQAngle@@PAUlua_State@@@Z 00000000100c1110     LuaAPI.obj
 0001:000c0320       ??$static_trampoline@$1??$call_@$0A@$00@?$binding@V?$basic_string@DU?$char_traits@D@std@@V?$allocator@D@2@@std@@PQC_UserCmd@@VQAngle@@V3@@u_detail@sol@@SAHPAUlua_State@@@Z@detail@sol@@YAHPAUlua_State@@@Z 00000000100c1320     LuaAPI.obj
 0001:000c0510       ??$traverse_set@V?$basic_string@DU?$char_traits@D@std@@V?$allocator@D@2@@std@@PQC_UserCmd@@VQAngle@@@?$basic_table_core@$0A@V?$basic_reference@$0A@@sol@@@sol@@QAEAAV01@$$QAV?$basic_string@DU?$char_traits@D@std@@V?$allocator@D@2@@std@@$$QAPQC_UserCmd@@VQAngle@@@Z 00000000100c1510     LuaAPI.obj
 0001:000c05d0       ?call@?$upvalue_this_member_variable@VC_UserCmd@@PQ1@VQAngle@@$0A@@function_detail@sol@@SAHPAUlua_State@@@Z 00000000100c15d0     LuaAPI.obj
 0001:000c05f0       ?real_call@?$upvalue_this_member_variable@VC_UserCmd@@PQ1@VQAngle@@$0A@@function_detail@sol@@SAHPAUlua_State@@@Z 00000000100c15f0     LuaAPI.obj
 0001:000c0750       ??$set@VC_UserCmd@@V?$basic_string@DU?$char_traits@D@std@@V?$allocator@D@2@@std@@PQ1@VVector@@@usertype_storage_base@u_detail@sol@@QAEXPAUlua_State@@$$QAV?$basic_string@DU?$char_traits@D@std@@V?$allocator@D@2@@std@@$$QAPQC_UserCmd@@VVector@@@Z 00000000100c1750     LuaAPI.obj
 0001:000c0fd0       ??$call_with_@$00$00@?$binding@V?$basic_string@DU?$char_traits@D@std@@V?$allocator@D@2@@std@@PQC_UserCmd@@VVector@@V3@@u_detail@sol@@SAHPAUlua_State@@PAX@Z 00000000100c1fd0     LuaAPI.obj
 0001:000c1060       ??$index_call_with_@$00$00@?$binding@V?$basic_string@DU?$char_traits@D@std@@V?$allocator@D@2@@std@@PQC_UserCmd@@VVector@@V3@@u_detail@sol@@SAHPAUlua_State@@PAX@Z 00000000100c2060     LuaAPI.obj
 0001:000c10f0       ??$call_with_@$0A@$00@?$binding@V?$basic_string@DU?$char_traits@D@std@@V?$allocator@D@2@@std@@PQC_UserCmd@@VVector@@V3@@u_detail@sol@@SAHPAUlua_State@@PAX@Z 00000000100c20f0     LuaAPI.obj
 0001:000c11a0       ??$index_call_with_@$0A@$00@?$binding@V?$basic_string@DU?$char_traits@D@std@@V?$allocator@D@2@@std@@PQC_UserCmd@@VVector@@V3@@u_detail@sol@@SAHPAUlua_State@@PAX@Z 00000000100c21a0     LuaAPI.obj
 0001:000c1250       ??$call@$0A@$00@?$binding@V?$basic_string@DU?$char_traits@D@std@@V?$allocator@D@2@@std@@PQC_UserCmd@@VVector@@V3@@u_detail@sol@@SAHPAUlua_State@@@Z 00000000100c2250     LuaAPI.obj
 0001:000c1260       ?data@?$binding@V?$basic_string@DU?$char_traits@D@std@@V?$allocator@D@2@@std@@PQC_UserCmd@@VVector@@V3@@u_detail@sol@@UAEPAXXZ 00000000100c2260     LuaAPI.obj
 0001:000c1270       ??_G?$binding@V?$basic_string@DU?$char_traits@D@std@@V?$allocator@D@2@@std@@PQC_UserCmd@@VVector@@V3@@u_detail@sol@@UAEPAXI@Z 00000000100c2270     LuaAPI.obj
 0001:000c1290       ??$set_undefined_methods_on@PAVVector@@@stack_detail@stack@sol@@YAXVstack_reference@2@@Z 00000000100c2290     LuaAPI.obj
 0001:000c1510       ??$usertype_allocate_pointer@VVector@@@detail@sol@@YAPAPAVVector@@PAUlua_State@@@Z 00000000100c2510     LuaAPI.obj
 0001:000c1720       ??$static_trampoline@$1??$call_@$0A@$00@?$binding@V?$basic_string@DU?$char_traits@D@std@@V?$allocator@D@2@@std@@PQC_UserCmd@@VVector@@V3@@u_detail@sol@@SAHPAUlua_State@@@Z@detail@sol@@YAHPAUlua_State@@@Z 00000000100c2720     LuaAPI.obj
 0001:000c1910       ??$traverse_set@V?$basic_string@DU?$char_traits@D@std@@V?$allocator@D@2@@std@@PQC_UserCmd@@VVector@@@?$basic_table_core@$0A@V?$basic_reference@$0A@@sol@@@sol@@QAEAAV01@$$QAV?$basic_string@DU?$char_traits@D@std@@V?$allocator@D@2@@std@@$$QAPQC_UserCmd@@VVector@@@Z 00000000100c2910     LuaAPI.obj
 0001:000c19d0       ?call@?$upvalue_this_member_variable@VC_UserCmd@@PQ1@VVector@@$0A@@function_detail@sol@@SAHPAUlua_State@@@Z 00000000100c29d0     LuaAPI.obj
 0001:000c19f0       ?real_call@?$upvalue_this_member_variable@VC_UserCmd@@PQ1@VVector@@$0A@@function_detail@sol@@SAHPAUlua_State@@@Z 00000000100c29f0     LuaAPI.obj
 0001:000c1b50       ??$set@VC_UserCmd@@V?$basic_string@DU?$char_traits@D@std@@V?$allocator@D@2@@std@@PQ1@M@usertype_storage_base@u_detail@sol@@QAEXPAUlua_State@@$$QAV?$basic_string@DU?$char_traits@D@std@@V?$allocator@D@2@@std@@$$QAPQC_UserCmd@@M@Z 00000000100c2b50     LuaAPI.obj
 0001:000c23d0       ??$call_with_@$00$00@?$binding@V?$basic_string@DU?$char_traits@D@std@@V?$allocator@D@2@@std@@PQC_UserCmd@@MV3@@u_detail@sol@@SAHPAUlua_State@@PAX@Z 00000000100c33d0     LuaAPI.obj
 0001:000c2450       ??$index_call_with_@$00$00@?$binding@V?$basic_string@DU?$char_traits@D@std@@V?$allocator@D@2@@std@@PQC_UserCmd@@MV3@@u_detail@sol@@SAHPAUlua_State@@PAX@Z 00000000100c3450     LuaAPI.obj
 0001:000c24d0       ??$call_with_@$0A@$00@?$binding@V?$basic_string@DU?$char_traits@D@std@@V?$allocator@D@2@@std@@PQC_UserCmd@@MV3@@u_detail@sol@@SAHPAUlua_State@@PAX@Z 00000000100c34d0     LuaAPI.obj
 0001:000c2540       ??$index_call_with_@$0A@$00@?$binding@V?$basic_string@DU?$char_traits@D@std@@V?$allocator@D@2@@std@@PQC_UserCmd@@MV3@@u_detail@sol@@SAHPAUlua_State@@PAX@Z 00000000100c3540     LuaAPI.obj
 0001:000c25b0       ??$call@$0A@$00@?$binding@V?$basic_string@DU?$char_traits@D@std@@V?$allocator@D@2@@std@@PQC_UserCmd@@MV3@@u_detail@sol@@SAHPAUlua_State@@@Z 00000000100c35b0     LuaAPI.obj
 0001:000c25c0       ?data@?$binding@V?$basic_string@DU?$char_traits@D@std@@V?$allocator@D@2@@std@@PQC_UserCmd@@MV3@@u_detail@sol@@UAEPAXXZ 00000000100c35c0     LuaAPI.obj
 0001:000c25d0       ??_G?$binding@V?$basic_string@DU?$char_traits@D@std@@V?$allocator@D@2@@std@@PQC_UserCmd@@MV3@@u_detail@sol@@UAEPAXI@Z 00000000100c35d0     LuaAPI.obj
 0001:000c25f0       ??$static_trampoline@$1??$call_@$0A@$00@?$binding@V?$basic_string@DU?$char_traits@D@std@@V?$allocator@D@2@@std@@PQC_UserCmd@@MV3@@u_detail@sol@@SAHPAUlua_State@@@Z@detail@sol@@YAHPAUlua_State@@@Z 00000000100c35f0     LuaAPI.obj
 0001:000c2790       ??$traverse_set@V?$basic_string@DU?$char_traits@D@std@@V?$allocator@D@2@@std@@PQC_UserCmd@@M@?$basic_table_core@$0A@V?$basic_reference@$0A@@sol@@@sol@@QAEAAV01@$$QAV?$basic_string@DU?$char_traits@D@std@@V?$allocator@D@2@@std@@$$QAPQC_UserCmd@@M@Z 00000000100c3790     LuaAPI.obj
 0001:000c2850       ?call@?$upvalue_this_member_variable@VC_UserCmd@@PQ1@M$0A@@function_detail@sol@@SAHPAUlua_State@@@Z 00000000100c3850     LuaAPI.obj
 0001:000c2870       ?real_call@?$upvalue_this_member_variable@VC_UserCmd@@PQ1@M$0A@@function_detail@sol@@SAHPAUlua_State@@@Z 00000000100c3870     LuaAPI.obj
 0001:000c2970       ??$set@VC_UserCmd@@V?$basic_string@DU?$char_traits@D@std@@V?$allocator@D@2@@std@@PQ1@D@usertype_storage_base@u_detail@sol@@QAEXPAUlua_State@@$$QAV?$basic_string@DU?$char_traits@D@std@@V?$allocator@D@2@@std@@$$QAPQC_UserCmd@@D@Z 00000000100c3970     LuaAPI.obj
 0001:000c31f0       ??$call_with_@$00$00@?$binding@V?$basic_string@DU?$char_traits@D@std@@V?$allocator@D@2@@std@@PQC_UserCmd@@DV3@@u_detail@sol@@SAHPAUlua_State@@PAX@Z 00000000100c41f0     LuaAPI.obj
 0001:000c3280       ??$index_call_with_@$00$00@?$binding@V?$basic_string@DU?$char_traits@D@std@@V?$allocator@D@2@@std@@PQC_UserCmd@@DV3@@u_detail@sol@@SAHPAUlua_State@@PAX@Z 00000000100c4280     LuaAPI.obj
 0001:000c3310       ??$call_with_@$0A@$00@?$binding@V?$basic_string@DU?$char_traits@D@std@@V?$allocator@D@2@@std@@PQC_UserCmd@@DV3@@u_detail@sol@@SAHPAUlua_State@@PAX@Z 00000000100c4310     LuaAPI.obj
 0001:000c3390       ??$index_call_with_@$0A@$00@?$binding@V?$basic_string@DU?$char_traits@D@std@@V?$allocator@D@2@@std@@PQC_UserCmd@@DV3@@u_detail@sol@@SAHPAUlua_State@@PAX@Z 00000000100c4390     LuaAPI.obj
 0001:000c3410       ??$call@$0A@$00@?$binding@V?$basic_string@DU?$char_traits@D@std@@V?$allocator@D@2@@std@@PQC_UserCmd@@DV3@@u_detail@sol@@SAHPAUlua_State@@@Z 00000000100c4410     LuaAPI.obj
 0001:000c3420       ?data@?$binding@V?$basic_string@DU?$char_traits@D@std@@V?$allocator@D@2@@std@@PQC_UserCmd@@DV3@@u_detail@sol@@UAEPAXXZ 00000000100c4420     LuaAPI.obj
 0001:000c3430       ??_G?$binding@V?$basic_string@DU?$char_traits@D@std@@V?$allocator@D@2@@std@@PQC_UserCmd@@DV3@@u_detail@sol@@UAEPAXI@Z 00000000100c4430     LuaAPI.obj
 0001:000c3450       ??$static_trampoline@$1??$call_@$0A@$00@?$binding@V?$basic_string@DU?$char_traits@D@std@@V?$allocator@D@2@@std@@PQC_UserCmd@@DV3@@u_detail@sol@@SAHPAUlua_State@@@Z@detail@sol@@YAHPAUlua_State@@@Z 00000000100c4450     LuaAPI.obj
 0001:000c3600       ??$traverse_set@V?$basic_string@DU?$char_traits@D@std@@V?$allocator@D@2@@std@@PQC_UserCmd@@D@?$basic_table_core@$0A@V?$basic_reference@$0A@@sol@@@sol@@QAEAAV01@$$QAV?$basic_string@DU?$char_traits@D@std@@V?$allocator@D@2@@std@@$$QAPQC_UserCmd@@D@Z 00000000100c4600     LuaAPI.obj
 0001:000c36c0       ?call@?$upvalue_this_member_variable@VC_UserCmd@@PQ1@D$0A@@function_detail@sol@@SAHPAUlua_State@@@Z 00000000100c46c0     LuaAPI.obj
 0001:000c36e0       ?real_call@?$upvalue_this_member_variable@VC_UserCmd@@PQ1@D$0A@@function_detail@sol@@SAHPAUlua_State@@@Z 00000000100c46e0     LuaAPI.obj
 0001:000c3800       ??$set@VC_UserCmd@@V?$basic_string@DU?$char_traits@D@std@@V?$allocator@D@2@@std@@PQ1@F@usertype_storage_base@u_detail@sol@@QAEXPAUlua_State@@$$QAV?$basic_string@DU?$char_traits@D@std@@V?$allocator@D@2@@std@@$$QAPQC_UserCmd@@F@Z 00000000100c4800     LuaAPI.obj
 0001:000c4080       ??$call_with_@$00$00@?$binding@V?$basic_string@DU?$char_traits@D@std@@V?$allocator@D@2@@std@@PQC_UserCmd@@FV3@@u_detail@sol@@SAHPAUlua_State@@PAX@Z 00000000100c5080     LuaAPI.obj
 0001:000c4100       ??$index_call_with_@$00$00@?$binding@V?$basic_string@DU?$char_traits@D@std@@V?$allocator@D@2@@std@@PQC_UserCmd@@FV3@@u_detail@sol@@SAHPAUlua_State@@PAX@Z 00000000100c5100     LuaAPI.obj
 0001:000c4180       ??$call_with_@$0A@$00@?$binding@V?$basic_string@DU?$char_traits@D@std@@V?$allocator@D@2@@std@@PQC_UserCmd@@FV3@@u_detail@sol@@SAHPAUlua_State@@PAX@Z 00000000100c5180     LuaAPI.obj
 0001:000c41f0       ??$index_call_with_@$0A@$00@?$binding@V?$basic_string@DU?$char_traits@D@std@@V?$allocator@D@2@@std@@PQC_UserCmd@@FV3@@u_detail@sol@@SAHPAUlua_State@@PAX@Z 00000000100c51f0     LuaAPI.obj
 0001:000c4260       ??$call@$0A@$00@?$binding@V?$basic_string@DU?$char_traits@D@std@@V?$allocator@D@2@@std@@PQC_UserCmd@@FV3@@u_detail@sol@@SAHPAUlua_State@@@Z 00000000100c5260     LuaAPI.obj
 0001:000c4270       ?data@?$binding@V?$basic_string@DU?$char_traits@D@std@@V?$allocator@D@2@@std@@PQC_UserCmd@@FV3@@u_detail@sol@@UAEPAXXZ 00000000100c5270     LuaAPI.obj
 0001:000c4280       ??_G?$binding@V?$basic_string@DU?$char_traits@D@std@@V?$allocator@D@2@@std@@PQC_UserCmd@@FV3@@u_detail@sol@@UAEPAXI@Z 00000000100c5280     LuaAPI.obj
 0001:000c42a0       ??$static_trampoline@$1??$call_@$0A@$00@?$binding@V?$basic_string@DU?$char_traits@D@std@@V?$allocator@D@2@@std@@PQC_UserCmd@@FV3@@u_detail@sol@@SAHPAUlua_State@@@Z@detail@sol@@YAHPAUlua_State@@@Z 00000000100c52a0     LuaAPI.obj
 0001:000c4450       ??$traverse_set@V?$basic_string@DU?$char_traits@D@std@@V?$allocator@D@2@@std@@PQC_UserCmd@@F@?$basic_table_core@$0A@V?$basic_reference@$0A@@sol@@@sol@@QAEAAV01@$$QAV?$basic_string@DU?$char_traits@D@std@@V?$allocator@D@2@@std@@$$QAPQC_UserCmd@@F@Z 00000000100c5450     LuaAPI.obj
 0001:000c4510       ?call@?$upvalue_this_member_variable@VC_UserCmd@@PQ1@F$0A@@function_detail@sol@@SAHPAUlua_State@@@Z 00000000100c5510     LuaAPI.obj
 0001:000c4530       ?real_call@?$upvalue_this_member_variable@VC_UserCmd@@PQ1@F$0A@@function_detail@sol@@SAHPAUlua_State@@@Z 00000000100c5530     LuaAPI.obj
 0001:000c4640       ??$set@VC_UserCmd@@V?$basic_string@DU?$char_traits@D@std@@V?$allocator@D@2@@std@@PQ1@_N@usertype_storage_base@u_detail@sol@@QAEXPAUlua_State@@$$QAV?$basic_string@DU?$char_traits@D@std@@V?$allocator@D@2@@std@@$$QAPQC_UserCmd@@_N@Z 00000000100c5640     LuaAPI.obj
 0001:000c4ec0       ??$call_with_@$00$00@?$binding@V?$basic_string@DU?$char_traits@D@std@@V?$allocator@D@2@@std@@PQC_UserCmd@@_NV3@@u_detail@sol@@SAHPAUlua_State@@PAX@Z 00000000100c5ec0     LuaAPI.obj
 0001:000c4f30       ??$index_call_with_@$00$00@?$binding@V?$basic_string@DU?$char_traits@D@std@@V?$allocator@D@2@@std@@PQC_UserCmd@@_NV3@@u_detail@sol@@SAHPAUlua_State@@PAX@Z 00000000100c5f30     LuaAPI.obj
 0001:000c4fa0       ??$call_with_@$0A@$00@?$binding@V?$basic_string@DU?$char_traits@D@std@@V?$allocator@D@2@@std@@PQC_UserCmd@@_NV3@@u_detail@sol@@SAHPAUlua_State@@PAX@Z 00000000100c5fa0     LuaAPI.obj
 0001:000c5010       ??$index_call_with_@$0A@$00@?$binding@V?$basic_string@DU?$char_traits@D@std@@V?$allocator@D@2@@std@@PQC_UserCmd@@_NV3@@u_detail@sol@@SAHPAUlua_State@@PAX@Z 00000000100c6010     LuaAPI.obj
 0001:000c5080       ??$call@$0A@$00@?$binding@V?$basic_string@DU?$char_traits@D@std@@V?$allocator@D@2@@std@@PQC_UserCmd@@_NV3@@u_detail@sol@@SAHPAUlua_State@@@Z 00000000100c6080     LuaAPI.obj
 0001:000c5090       ?data@?$binding@V?$basic_string@DU?$char_traits@D@std@@V?$allocator@D@2@@std@@PQC_UserCmd@@_NV3@@u_detail@sol@@UAEPAXXZ 00000000100c6090     LuaAPI.obj
 0001:000c50a0       ??_G?$binding@V?$basic_string@DU?$char_traits@D@std@@V?$allocator@D@2@@std@@PQC_UserCmd@@_NV3@@u_detail@sol@@UAEPAXI@Z 00000000100c60a0     LuaAPI.obj
 0001:000c50c0       ??$static_trampoline@$1??$call_@$0A@$00@?$binding@V?$basic_string@DU?$char_traits@D@std@@V?$allocator@D@2@@std@@PQC_UserCmd@@_NV3@@u_detail@sol@@SAHPAUlua_State@@@Z@detail@sol@@YAHPAUlua_State@@@Z 00000000100c60c0     LuaAPI.obj
 0001:000c5260       ??$traverse_set@V?$basic_string@DU?$char_traits@D@std@@V?$allocator@D@2@@std@@PQC_UserCmd@@_N@?$basic_table_core@$0A@V?$basic_reference@$0A@@sol@@@sol@@QAEAAV01@$$QAV?$basic_string@DU?$char_traits@D@std@@V?$allocator@D@2@@std@@$$QAPQC_UserCmd@@_N@Z 00000000100c6260     LuaAPI.obj
 0001:000c5320       ?call@?$upvalue_this_member_variable@VC_UserCmd@@PQ1@_N$0A@@function_detail@sol@@SAHPAUlua_State@@@Z 00000000100c6320     LuaAPI.obj
 0001:000c5340       ?real_call@?$upvalue_this_member_variable@VC_UserCmd@@PQ1@_N$0A@@function_detail@sol@@SAHPAUlua_State@@@Z 00000000100c6340     LuaAPI.obj
 0001:000c5430       ??$new_usertype@VColor@@ABV?$basic_string@DU?$char_traits@D@std@@V?$allocator@D@2@@std@@U?$constructor_list@$$A6A?AVColor@@XZ$$A6A?AV1@MMM@Z$$A6A?AV1@MMMM@Z@sol@@V23@P81@BEHXZV23@P81@BEHXZV23@P81@BEHXZV23@P6A?AV1@MMM@ZX@?$basic_table_core@$00V?$basic_reference@$0A@@sol@@@sol@@QAE?AV?$basic_usertype@VColor@@V?$basic_reference@$0A@@sol@@@1@ABV?$basic_string@DU?$char_traits@D@std@@V?$allocator@D@2@@std@@$$QAU?$constructor_list@$$A6A?AVColor@@XZ$$A6A?AV1@MMM@Z$$A6A?AV1@MMMM@Z@1@$$QAV34@$$QAP8Color@@BEHXZ23232$$QAP6A?AV6@MMM@Z@Z 00000000100c6430     LuaAPI.obj
 0001:000c5530       ??$new_usertype@VColor@@ABV?$basic_string@DU?$char_traits@D@std@@V?$allocator@D@2@@std@@@?$basic_table_core@$00V?$basic_reference@$0A@@sol@@@sol@@QAE?AV?$basic_usertype@VColor@@V?$basic_reference@$0A@@sol@@@1@ABV?$basic_string@DU?$char_traits@D@std@@V?$allocator@D@2@@std@@Uautomagic_enrollments@1@@Z 00000000100c6530     LuaAPI.obj
 0001:000c5640       ??$set@W4meta_function@sol@@U?$constructor_list@$$A6A?AVColor@@XZ$$A6A?AV1@MMM@Z$$A6A?AV1@MMMM@Z@2@@?$basic_usertype@VColor@@V?$basic_reference@$0A@@sol@@@sol@@QAEX$$QAW4meta_function@1@$$QAU?$constructor_list@$$A6A?AVColor@@XZ$$A6A?AV1@MMM@Z$$A6A?AV1@MMMM@Z@1@@Z 00000000100c6640     LuaAPI.obj
 0001:000c56e0       ??$register_usertype@VColor@@@u_detail@sol@@YAHPAUlua_State@@Uautomagic_enrollments@1@@Z 00000000100c66e0     LuaAPI.obj
 0001:000c5b20       ??$delete_usertype_storage@VColor@@@u_detail@sol@@YAXPAUlua_State@@@Z 00000000100c6b20     LuaAPI.obj
 0001:000c5bb0       ??$create_usertype_storage@VColor@@@u_detail@sol@@YAAAU?$usertype_storage@VColor@@@01@PAUlua_State@@@Z 00000000100c6bb0     LuaAPI.obj
 0001:000c5cb0       ?gc_table@?$usertype_traits@VColor@@@sol@@SAABV?$basic_string@DU?$char_traits@D@std@@V?$allocator@D@2@@std@@XZ 00000000100c6cb0     LuaAPI.obj
 0001:000c60a0       ?metatable@?$usertype_traits@$$CBVColor@@@sol@@SAABV?$basic_string@DU?$char_traits@D@std@@V?$allocator@D@2@@std@@XZ 00000000100c70a0     LuaAPI.obj
 0001:000c6420       ?metatable@?$usertype_traits@PBVColor@@@sol@@SAABV?$basic_string@DU?$char_traits@D@std@@V?$allocator@D@2@@std@@XZ 00000000100c7420     LuaAPI.obj
 0001:000c67a0       ?metatable@?$usertype_traits@PAVColor@@@sol@@SAABV?$basic_string@DU?$char_traits@D@std@@V?$allocator@D@2@@std@@XZ 00000000100c77a0     LuaAPI.obj
 0001:000c6b20       ?metatable@?$usertype_traits@U?$unique_usertype@VColor@@@detail@sol@@@sol@@SAABV?$basic_string@DU?$char_traits@D@std@@V?$allocator@D@2@@std@@XZ 00000000100c7b20     LuaAPI.obj
 0001:000c6ea0       ?metatable@?$usertype_traits@VColor@@@sol@@SAABV?$basic_string@DU?$char_traits@D@std@@V?$allocator@D@2@@std@@XZ 00000000100c7ea0     LuaAPI.obj
 0001:000c7220       ??$is_check@VColor@@@detail@sol@@YAHPAUlua_State@@@Z 00000000100c8220     LuaAPI.obj
 0001:000c72a0       ??$destruct_usertype_storage@VColor@@@u_detail@sol@@YAHPAUlua_State@@@Z 00000000100c82a0     LuaAPI.obj
 0001:000c72c0       ?user_gc_metatable@?$usertype_traits@U?$usertype_storage@VColor@@@u_detail@sol@@@sol@@SAABV?$basic_string@DU?$char_traits@D@std@@V?$allocator@D@2@@std@@XZ 00000000100c82c0     LuaAPI.obj
 0001:000c76b0       ??$ctti_get_type_name@U?$usertype_storage@VColor@@@u_detail@sol@@@detail@sol@@YA?AV?$basic_string@DU?$char_traits@D@std@@V?$allocator@D@2@@std@@XZ 00000000100c86b0     LuaAPI.obj
 0001:000c7740       ??$user_allocate@U?$usertype_storage@VColor@@@u_detail@sol@@@detail@sol@@YAPAU?$usertype_storage@VColor@@@u_detail@1@PAUlua_State@@@Z 00000000100c8740     LuaAPI.obj
 0001:000c7960       ??$ctti_get_type_name@$$CBVColor@@@detail@sol@@YA?AV?$basic_string@DU?$char_traits@D@std@@V?$allocator@D@2@@std@@XZ 00000000100c8960     LuaAPI.obj
 0001:000c79f0       ??$ctti_get_type_name@PBVColor@@@detail@sol@@YA?AV?$basic_string@DU?$char_traits@D@std@@V?$allocator@D@2@@std@@XZ 00000000100c89f0     LuaAPI.obj
 0001:000c7a80       ??$ctti_get_type_name@PAVColor@@@detail@sol@@YA?AV?$basic_string@DU?$char_traits@D@std@@V?$allocator@D@2@@std@@XZ 00000000100c8a80     LuaAPI.obj
 0001:000c7b10       ??$ctti_get_type_name@U?$unique_usertype@VColor@@@detail@sol@@@detail@sol@@YA?AV?$basic_string@DU?$char_traits@D@std@@V?$allocator@D@2@@std@@XZ 00000000100c8b10     LuaAPI.obj
 0001:000c7ba0       ??$ctti_get_type_name@VColor@@@detail@sol@@YA?AV?$basic_string@DU?$char_traits@D@std@@V?$allocator@D@2@@std@@XZ 00000000100c8ba0     LuaAPI.obj
 0001:000c7c30       ??$check@VColor@@P6AHPAUlua_State@@HW4type@sol@@1PBD@_E@?$unqualified_checker@U?$as_value_tag@VColor@@@detail@sol@@$06X@stack@sol@@SA_NU?$types@VColor@@@2@PAUlua_State@@HW4type@2@$$QAP6AH1H22PBD@_EAAUrecord@12@@Z 00000000100c8c30     LuaAPI.obj
 0001:000c7f20       ?qualified_name@?$usertype_traits@VColor@@@sol@@SAABV?$basic_string@DU?$char_traits@D@std@@V?$allocator@D@2@@std@@XZ 00000000100c8f20     LuaAPI.obj
 0001:000c8050       ?metatable@?$usertype_traits@U?$as_container_t@VColor@@@sol@@@sol@@SAABV?$basic_string@DU?$char_traits@D@std@@V?$allocator@D@2@@std@@XZ 00000000100c9050     LuaAPI.obj
 0001:000c83d0       ??$ctti_get_type_name@U?$as_container_t@VColor@@@sol@@@detail@sol@@YA?AV?$basic_string@DU?$char_traits@D@std@@V?$allocator@D@2@@std@@XZ 00000000100c93d0     LuaAPI.obj
 0001:000c8460       ??R<lambda_1>@?0???$register_usertype@VColor@@@u_detail@sol@@YAHPAUlua_State@@Uautomagic_enrollments@2@@Z@QBE?A?<auto>@@0W4submetatable_type@12@AAV?$basic_reference@$0A@@2@@Z 00000000100c9460     LuaAPI.obj
 0001:000c8a50       ?user_metatable@?$usertype_traits@VColor@@@sol@@SAABV?$basic_string@DU?$char_traits@D@std@@V?$allocator@D@2@@std@@XZ 00000000100c9a50     LuaAPI.obj
 0001:000c8e40       ??$unique_destruct@VColor@@@detail@sol@@YAHPAUlua_State@@@Z 00000000100c9e40     LuaAPI.obj
 0001:000c8e80       ?type_check@?$inheritance@VColor@@@detail@sol@@SA_NABV?$basic_string_view@DU?$char_traits@D@std@@@std@@@Z 00000000100c9e80     LuaAPI.obj
 0001:000c8ec0       ?type_cast@?$inheritance@VColor@@@detail@sol@@SAPAXPAXABV?$basic_string_view@DU?$char_traits@D@std@@@std@@@Z 00000000100c9ec0     LuaAPI.obj
 0001:000c8f00       ??$insert_default_registrations@VColor@@AAV<lambda_1>@?0???R2?0???$register_usertype@VColor@@@u_detail@sol@@YAHPAUlua_State@@Uautomagic_enrollments@4@@Z@QBE?A?<auto>@@0W4submetatable_type@34@AAV?$basic_reference@$0A@@4@@Z@AAUproperties_enrollment_allowed@detail@4@@detail@sol@@YAXAAV<lambda_1>@?0???R2?0???$register_usertype@VColor@@@u_detail@1@YAHPAUlua_State@@Uautomagic_enrollments@1@@Z@QBE?A?<auto>@@0W4submetatable_type@31@AAV?$basic_reference@$0A@@1@@Z@AAUproperties_enrollment_allowed@01@@Z 00000000100c9f00     LuaAPI.obj
 0001:000c9040       ??$meta_index_call@$0A@@?$usertype_storage@VColor@@@u_detail@sol@@SAHPAUlua_State@@@Z 00000000100ca040     LuaAPI.obj
 0001:000c9050       ??$meta_index_call@$00@?$usertype_storage@VColor@@@u_detail@sol@@SAHPAUlua_State@@@Z 00000000100ca050     LuaAPI.obj
 0001:000c9060       ??$index_call@$00@?$usertype_storage@VColor@@@u_detail@sol@@SAHPAUlua_State@@@Z 00000000100ca060     LuaAPI.obj
 0001:000c9070       ??$usertype_alloc_destruct@VColor@@@detail@sol@@YAHPAUlua_State@@@Z 00000000100ca070     LuaAPI.obj
 0001:000c9090       ??$comparsion_operator_wrap@VColor@@U?$equal_to@X@std@@@detail@sol@@YAHPAUlua_State@@@Z 00000000100ca090     LuaAPI.obj
 0001:000c9140       ?pairs_call@?$u_c_launch@U?$as_container_t@VColor@@@sol@@@container_detail@sol@@SAHPAUlua_State@@@Z 00000000100ca140     LuaAPI.obj
 0001:000c9150       ??$get_using@V?$optional@AAVColor@@@sol@@AAP6AHPAUlua_State@@HW4type@2@1PBD@_E@?$unqualified_check_getter@VColor@@X@stack@sol@@SA?AV?$optional@AAVColor@@@2@PAUlua_State@@HAAP6AH0HW4type@2@1PBD@_EAAUrecord@12@@Z 00000000100ca150     LuaAPI.obj
 0001:000c9200       ??$check@VColor@@AAP6AHPAUlua_State@@HW4type@sol@@1PBD@_E@?$unqualified_checker@U?$as_value_tag@VColor@@@detail@sol@@$06X@stack@sol@@SA_NU?$types@VColor@@@2@PAUlua_State@@HW4type@2@AAP6AH1H22PBD@_EAAUrecord@12@@Z 00000000100ca200     LuaAPI.obj
 0001:000c94f0       ?get_no_lua_nil_from@?$unqualified_getter@U?$as_value_tag@VColor@@@detail@sol@@X@stack@sol@@SAPAVColor@@PAUlua_State@@PAXHAAUrecord@23@@Z 00000000100ca4f0     LuaAPI.obj
 0001:000c9590       ??$static_trampoline@$1?real_pairs_call@?$u_c_launch@U?$as_container_t@VColor@@@sol@@@container_detail@sol@@SAHPAUlua_State@@@Z@detail@sol@@YAHPAUlua_State@@@Z 00000000100ca590     LuaAPI.obj
 0001:000c9760       ??$static_trampoline@$1??$index_call_@$0A@$00@?$usertype_storage@VColor@@@u_detail@sol@@SAHPAUlua_State@@@Z@detail@sol@@YAHPAUlua_State@@@Z 00000000100ca760     LuaAPI.obj
 0001:000c98c0       ??$static_trampoline@$1??$index_call_@$00$00@?$usertype_storage@VColor@@@u_detail@sol@@SAHPAUlua_State@@@Z@detail@sol@@YAHPAUlua_State@@@Z 00000000100ca8c0     LuaAPI.obj
 0001:000c9a20       ??$static_trampoline@$1??$index_call_@$00$0A@@?$usertype_storage@VColor@@@u_detail@sol@@SAHPAUlua_State@@@Z@detail@sol@@YAHPAUlua_State@@@Z 00000000100caa20     LuaAPI.obj
 0001:000c9b80       ??$set@VColor@@W4meta_function@sol@@U?$constructor_list@$$A6A?AVColor@@XZ@3@@usertype_storage_base@u_detail@sol@@QAEXPAUlua_State@@$$QAW4meta_function@2@$$QAU?$constructor_list@$$A6A?AVColor@@XZ@2@@Z 00000000100cab80     LuaAPI.obj
 0001:000ca400       ??$call_with_@$00$0A@@?$binding@W4meta_function@sol@@U?$constructor_list@$$A6A?AVColor@@XZ@2@VColor@@@u_detail@sol@@SAHPAUlua_State@@PAX@Z 00000000100cb400     LuaAPI.obj
 0001:000ca410       ??$index_call_with_@$00$0A@@?$binding@W4meta_function@sol@@U?$constructor_list@$$A6A?AVColor@@XZ@2@VColor@@@u_detail@sol@@SAHPAUlua_State@@PAX@Z 00000000100cb410     LuaAPI.obj
 0001:000ca450       ??$call_with_@$0A@$0A@@?$binding@W4meta_function@sol@@U?$constructor_list@$$A6A?AVColor@@XZ@2@VColor@@@u_detail@sol@@SAHPAUlua_State@@PAX@Z 00000000100cb450     LuaAPI.obj
 0001:000ca460       ??$index_call_with_@$0A@$0A@@?$binding@W4meta_function@sol@@U?$constructor_list@$$A6A?AVColor@@XZ@2@VColor@@@u_detail@sol@@SAHPAUlua_State@@PAX@Z 00000000100cb460     LuaAPI.obj
 0001:000ca4a0       ??$call@$0A@$0A@@?$binding@W4meta_function@sol@@U?$constructor_list@$$A6A?AVColor@@XZ@2@VColor@@@u_detail@sol@@SAHPAUlua_State@@@Z 00000000100cb4a0     LuaAPI.obj
 0001:000ca4b0       ??$index_call@$0A@@?$usertype_storage@VColor@@@u_detail@sol@@SAHPAUlua_State@@@Z 00000000100cb4b0     LuaAPI.obj
 0001:000ca4c0       ?data@?$binding@W4meta_function@sol@@U?$constructor_list@$$A6A?AVColor@@XZ@2@VColor@@@u_detail@sol@@UAEPAXXZ 00000000100cb4c0     LuaAPI.obj
 0001:000ca4d0       ??_G?$binding@W4meta_function@sol@@U?$constructor_list@$$A6A?AVColor@@XZ@2@VColor@@@u_detail@sol@@UAEPAXI@Z 00000000100cb4d0     LuaAPI.obj
 0001:000ca4f0       ?call@?$lua_call_wrapper@VColor@@U?$constructor_list@$$A6A?AVColor@@XZ@sol@@$00$0A@$0A@$0A@$00X@call_detail@sol@@SAHPAUlua_State@@AAU?$constructor_list@$$A6A?AVColor@@XZ@3@@Z 00000000100cb4f0     LuaAPI.obj
 0001:000ca6b0       ??$usertype_allocate@VColor@@@detail@sol@@YAPAVColor@@PAUlua_State@@@Z 00000000100cb6b0     LuaAPI.obj
 0001:000ca980       ??$set_undefined_methods_on@VColor@@@stack_detail@stack@sol@@YAXVstack_reference@2@@Z 00000000100cb980     LuaAPI.obj
 0001:000cac30       ??$call@$00$0A@@?$binding@W4meta_function@sol@@U?$constructor_list@$$A6A?AVColor@@XZ@2@VColor@@@u_detail@sol@@SAHPAUlua_State@@@Z 00000000100cbc30     LuaAPI.obj
 0001:000cac40       ??$static_trampoline@$1??$call_@$00$0A@@?$binding@W4meta_function@sol@@U?$constructor_list@$$A6A?AVColor@@XZ@2@VColor@@@u_detail@sol@@SAHPAUlua_State@@@Z@detail@sol@@YAHPAUlua_State@@@Z 00000000100cbc40     LuaAPI.obj
 0001:000cad90       ?call@?$lua_call_wrapper@VColor@@U?$constructor_list@$$A6A?AVColor@@XZ@sol@@$0A@$0A@$0A@$0A@$00X@call_detail@sol@@SAHPAUlua_State@@AAU?$constructor_list@$$A6A?AVColor@@XZ@3@@Z 00000000100cbd90     LuaAPI.obj
 0001:000caf50       ??$static_trampoline@$1??$call_@$0A@$0A@@?$binding@W4meta_function@sol@@U?$constructor_list@$$A6A?AVColor@@XZ@2@VColor@@@u_detail@sol@@SAHPAUlua_State@@@Z@detail@sol@@YAHPAUlua_State@@@Z 00000000100cbf50     LuaAPI.obj
 0001:000cb0a0       ??$static_trampoline@$1??$index_call_@$0A@$0A@@?$usertype_storage@VColor@@@u_detail@sol@@SAHPAUlua_State@@@Z@detail@sol@@YAHPAUlua_State@@@Z 00000000100cc0a0     LuaAPI.obj
 0001:000cb200       ??$traverse_set_deep@$00$0A@$0A@ABV?$basic_string@DU?$char_traits@D@std@@V?$allocator@D@2@@std@@AAV?$basic_usertype@VColor@@V?$basic_reference@$0A@@sol@@@sol@@@?$basic_table_core@$00V?$basic_reference@$0A@@sol@@@sol@@ABEXHABV?$basic_string@DU?$char_traits@D@std@@V?$allocator@D@2@@std@@AAV?$basic_usertype@VColor@@V?$basic_reference@$0A@@sol@@@1@@Z 00000000100cc200     LuaAPI.obj
 0001:000cb280       ??$set@VColor@@W4meta_function@sol@@U?$constructor_list@$$A6A?AVColor@@XZ$$A6A?AV1@MMM@Z$$A6A?AV1@MMMM@Z@3@@usertype_storage_base@u_detail@sol@@QAEXPAUlua_State@@$$QAW4meta_function@2@$$QAU?$constructor_list@$$A6A?AVColor@@XZ$$A6A?AV1@MMM@Z$$A6A?AV1@MMMM@Z@2@@Z 00000000100cc280     LuaAPI.obj
 0001:000cbb00       ??$call_with_@$00$0A@@?$binding@W4meta_function@sol@@U?$constructor_list@$$A6A?AVColor@@XZ$$A6A?AV1@MMM@Z$$A6A?AV1@MMMM@Z@2@VColor@@@u_detail@sol@@SAHPAUlua_State@@PAX@Z 00000000100ccb00     LuaAPI.obj
 0001:000cbb10       ??$index_call_with_@$00$0A@@?$binding@W4meta_function@sol@@U?$constructor_list@$$A6A?AVColor@@XZ$$A6A?AV1@MMM@Z$$A6A?AV1@MMMM@Z@2@VColor@@@u_detail@sol@@SAHPAUlua_State@@PAX@Z 00000000100ccb10     LuaAPI.obj
 0001:000cbb50       ??$call_with_@$0A@$0A@@?$binding@W4meta_function@sol@@U?$constructor_list@$$A6A?AVColor@@XZ$$A6A?AV1@MMM@Z$$A6A?AV1@MMMM@Z@2@VColor@@@u_detail@sol@@SAHPAUlua_State@@PAX@Z 00000000100ccb50     LuaAPI.obj
 0001:000cbb60       ??$index_call_with_@$0A@$0A@@?$binding@W4meta_function@sol@@U?$constructor_list@$$A6A?AVColor@@XZ$$A6A?AV1@MMM@Z$$A6A?AV1@MMMM@Z@2@VColor@@@u_detail@sol@@SAHPAUlua_State@@PAX@Z 00000000100ccb60     LuaAPI.obj
 0001:000cbba0       ??$call@$0A@$0A@@?$binding@W4meta_function@sol@@U?$constructor_list@$$A6A?AVColor@@XZ$$A6A?AV1@MMM@Z$$A6A?AV1@MMMM@Z@2@VColor@@@u_detail@sol@@SAHPAUlua_State@@@Z 00000000100ccba0     LuaAPI.obj
 0001:000cbbb0       ?data@?$binding@W4meta_function@sol@@U?$constructor_list@$$A6A?AVColor@@XZ$$A6A?AV1@MMM@Z$$A6A?AV1@MMMM@Z@2@VColor@@@u_detail@sol@@UAEPAXXZ 00000000100ccbb0     LuaAPI.obj
 0001:000cbbc0       ??_G?$binding@W4meta_function@sol@@U?$constructor_list@$$A6A?AVColor@@XZ$$A6A?AV1@MMM@Z$$A6A?AV1@MMMM@Z@2@VColor@@@u_detail@sol@@UAEPAXI@Z 00000000100ccbc0     LuaAPI.obj
 0001:000cbbe0       ?call@?$lua_call_wrapper@VColor@@U?$constructor_list@$$A6A?AVColor@@XZ$$A6A?AV1@MMM@Z$$A6A?AV1@MMMM@Z@sol@@$00$0A@$0A@$0A@$00X@call_detail@sol@@SAHPAUlua_State@@AAU?$constructor_list@$$A6A?AVColor@@XZ$$A6A?AV1@MMM@Z$$A6A?AV1@MMMM@Z@3@@Z 00000000100ccbe0     LuaAPI.obj
 0001:000cbdd0       ??$overload_match_arity@$$A6AXMMM@Z$$A6AXMMMM@Z$00$01$$Z$0A@U?$constructor_match@VColor@@$0A@$00@call_detail@sol@@$$V@overload_detail@call_detail@sol@@YAHU?$types@$$A6AXMMM@Z$$A6AXMMMM@Z@2@U?$integer_sequence@I$00$01@std@@U?$integer_sequence@I$0A@@5@$$QAU?$constructor_match@VColor@@$0A@$00@12@PAUlua_State@@HH@Z 00000000100ccdd0     LuaAPI.obj
 0001:000cbf00       ??$overload_match_arity@$$A6AXMMMM@Z$$V$01$S$$Z$02$0A@U?$constructor_match@VColor@@$0A@$00@call_detail@sol@@$$V@overload_detail@call_detail@sol@@YAHU?$types@$$A6AXMMMM@Z@2@U?$integer_sequence@I$01@std@@U?$integer_sequence@I$02$0A@@5@$$QAU?$constructor_match@VColor@@$0A@$00@12@PAUlua_State@@HH@Z 00000000100ccf00     LuaAPI.obj
 0001:000cc030       ??$call@$00$0A@@?$binding@W4meta_function@sol@@U?$constructor_list@$$A6A?AVColor@@XZ$$A6A?AV1@MMM@Z$$A6A?AV1@MMMM@Z@2@VColor@@@u_detail@sol@@SAHPAUlua_State@@@Z 00000000100cd030     LuaAPI.obj
 0001:000cc040       ??$static_trampoline@$1??$call_@$00$0A@@?$binding@W4meta_function@sol@@U?$constructor_list@$$A6A?AVColor@@XZ$$A6A?AV1@MMM@Z$$A6A?AV1@MMMM@Z@2@VColor@@@u_detail@sol@@SAHPAUlua_State@@@Z@detail@sol@@YAHPAUlua_State@@@Z 00000000100cd040     LuaAPI.obj
 0001:000cc190       ?call@?$lua_call_wrapper@VColor@@U?$constructor_list@$$A6A?AVColor@@XZ$$A6A?AV1@MMM@Z$$A6A?AV1@MMMM@Z@sol@@$0A@$0A@$0A@$0A@$00X@call_detail@sol@@SAHPAUlua_State@@AAU?$constructor_list@$$A6A?AVColor@@XZ$$A6A?AV1@MMM@Z$$A6A?AV1@MMMM@Z@3@@Z 00000000100cd190     LuaAPI.obj
 0001:000cc380       ??$static_trampoline@$1??$call_@$0A@$0A@@?$binding@W4meta_function@sol@@U?$constructor_list@$$A6A?AVColor@@XZ$$A6A?AV1@MMM@Z$$A6A?AV1@MMMM@Z@2@VColor@@@u_detail@sol@@SAHPAUlua_State@@@Z@detail@sol@@YAHPAUlua_State@@@Z 00000000100cd380     LuaAPI.obj
 0001:000cc4d0       ??$traverse_set@W4meta_function@sol@@U?$tagged@VColor@@U?$constructor_list@$$A6A?AVColor@@XZ$$A6A?AV1@MMM@Z$$A6A?AV1@MMMM@Z@sol@@@detail@2@@?$basic_table_core@$0A@V?$basic_reference@$0A@@sol@@@sol@@QAEAAV01@$$QAW4meta_function@1@$$QAU?$tagged@VColor@@U?$constructor_list@$$A6A?AVColor@@XZ$$A6A?AV1@MMM@Z$$A6A?AV1@MMMM@Z@sol@@@detail@1@@Z 00000000100cd4d0     LuaAPI.obj
 0001:000cc5e0       ??$set@W4meta_function@sol@@U?$tagged@VColor@@U?$constructor_list@$$A6A?AVColor@@XZ$$A6A?AV1@MMM@Z$$A6A?AV1@MMMM@Z@sol@@@detail@2@@?$field_setter@W4meta_function@sol@@$0A@$0A@X@stack@sol@@QAEXPAUlua_State@@$$QAW4meta_function@2@$$QAU?$tagged@VColor@@U?$constructor_list@$$A6A?AVColor@@XZ$$A6A?AV1@MMM@Z$$A6A?AV1@MMMM@Z@sol@@@detail@2@H@Z 00000000100cd5e0     LuaAPI.obj
 0001:000cc650       ??$construct@VColor@@$0A@$00$$A6A?AV1@XZ$$A6A?AV1@MMM@Z$$A6A?AV1@MMMM@Z@call_detail@sol@@YAHPAUlua_State@@@Z 00000000100cd650     LuaAPI.obj
 0001:000cc670       ??$construct_trampolined@VColor@@$0A@$00$$A6A?AV1@XZ$$A6A?AV1@MMM@Z$$A6A?AV1@MMMM@Z@call_detail@sol@@YAHPAUlua_State@@@Z 00000000100cd670     LuaAPI.obj
 0001:000cc8e0       ??$set@V?$basic_string@DU?$char_traits@D@std@@V?$allocator@D@2@@std@@P8Color@@BEHXZ@?$basic_usertype@VColor@@V?$basic_reference@$0A@@sol@@@sol@@QAEX$$QAV?$basic_string@DU?$char_traits@D@std@@V?$allocator@D@2@@std@@$$QAP8Color@@BEHXZ@Z 00000000100cd8e0     LuaAPI.obj
 0001:000cc980       ??$set@V?$basic_string@DU?$char_traits@D@std@@V?$allocator@D@2@@std@@P6A?AVColor@@MMM@Z@?$basic_usertype@VColor@@V?$basic_reference@$0A@@sol@@@sol@@QAEX$$QAV?$basic_string@DU?$char_traits@D@std@@V?$allocator@D@2@@std@@$$QAP6A?AVColor@@MMM@Z@Z 00000000100cd980     LuaAPI.obj
 0001:000cca20       ??$set@VColor@@V?$basic_string@DU?$char_traits@D@std@@V?$allocator@D@2@@std@@P81@BEHXZ@usertype_storage_base@u_detail@sol@@QAEXPAUlua_State@@$$QAV?$basic_string@DU?$char_traits@D@std@@V?$allocator@D@2@@std@@$$QAP8Color@@BEHXZ@Z 00000000100cda20     LuaAPI.obj
 0001:000cd290       ??$call_with_@$00$0A@@?$binding@V?$basic_string@DU?$char_traits@D@std@@V?$allocator@D@2@@std@@P8Color@@BEHXZV3@@u_detail@sol@@SAHPAUlua_State@@PAX@Z 00000000100ce290     LuaAPI.obj
 0001:000cd310       ??$index_call_with_@$00$0A@@?$binding@V?$basic_string@DU?$char_traits@D@std@@V?$allocator@D@2@@std@@P8Color@@BEHXZV3@@u_detail@sol@@SAHPAUlua_State@@PAX@Z 00000000100ce310     LuaAPI.obj
 0001:000cd350       ??$call_with_@$0A@$0A@@?$binding@V?$basic_string@DU?$char_traits@D@std@@V?$allocator@D@2@@std@@P8Color@@BEHXZV3@@u_detail@sol@@SAHPAUlua_State@@PAX@Z 00000000100ce350     LuaAPI.obj
 0001:000cd3d0       ??$index_call_with_@$0A@$0A@@?$binding@V?$basic_string@DU?$char_traits@D@std@@V?$allocator@D@2@@std@@P8Color@@BEHXZV3@@u_detail@sol@@SAHPAUlua_State@@PAX@Z 00000000100ce3d0     LuaAPI.obj
 0001:000cd410       ??$call@$0A@$0A@@?$binding@V?$basic_string@DU?$char_traits@D@std@@V?$allocator@D@2@@std@@P8Color@@BEHXZV3@@u_detail@sol@@SAHPAUlua_State@@@Z 00000000100ce410     LuaAPI.obj
 0001:000cd420       ?data@?$binding@V?$basic_string@DU?$char_traits@D@std@@V?$allocator@D@2@@std@@P8Color@@BEHXZV3@@u_detail@sol@@UAEPAXXZ 00000000100ce420     LuaAPI.obj
 0001:000cd430       ??_G?$binding@V?$basic_string@DU?$char_traits@D@std@@V?$allocator@D@2@@std@@P8Color@@BEHXZV3@@u_detail@sol@@UAEPAXI@Z 00000000100ce430     LuaAPI.obj
 0001:000cd450       ??$call@$00$0A@@?$binding@V?$basic_string@DU?$char_traits@D@std@@V?$allocator@D@2@@std@@P8Color@@BEHXZV3@@u_detail@sol@@SAHPAUlua_State@@@Z 00000000100ce450     LuaAPI.obj
 0001:000cd460       ??$static_trampoline@$1??$call_@$00$0A@@?$binding@V?$basic_string@DU?$char_traits@D@std@@V?$allocator@D@2@@std@@P8Color@@BEHXZV3@@u_detail@sol@@SAHPAUlua_State@@@Z@detail@sol@@YAHPAUlua_State@@@Z 00000000100ce460     LuaAPI.obj
 0001:000cd610       ??$static_trampoline@$1??$call_@$0A@$0A@@?$binding@V?$basic_string@DU?$char_traits@D@std@@V?$allocator@D@2@@std@@P8Color@@BEHXZV3@@u_detail@sol@@SAHPAUlua_State@@@Z@detail@sol@@YAHPAUlua_State@@@Z 00000000100ce610     LuaAPI.obj
 0001:000cd7c0       ??$traverse_set@V?$basic_string@DU?$char_traits@D@std@@V?$allocator@D@2@@std@@P8Color@@BEHXZ@?$basic_table_core@$0A@V?$basic_reference@$0A@@sol@@@sol@@QAEAAV01@$$QAV?$basic_string@DU?$char_traits@D@std@@V?$allocator@D@2@@std@@$$QAP8Color@@BEHXZ@Z 00000000100ce7c0     LuaAPI.obj
 0001:000cd910       ?call@?$upvalue_this_member_function@VColor@@P81@BEHXZ$0A@@function_detail@sol@@SAHPAUlua_State@@@Z 00000000100ce910     LuaAPI.obj
 0001:000cd920       ??$static_trampoline@$1?real_call@?$upvalue_this_member_function@VColor@@P81@BEHXZ$0A@@function_detail@sol@@SAHPAUlua_State@@@Z@detail@sol@@YAHPAUlua_State@@@Z 00000000100ce920     LuaAPI.obj
 0001:000cdad0       ?user_gc_metatable@?$usertype_traits@P8Color@@BEHXZ@sol@@SAABV?$basic_string@DU?$char_traits@D@std@@V?$allocator@D@2@@std@@XZ 00000000100cead0     LuaAPI.obj
 0001:000cdec0       ??$push_with@$00ABQBDP8Color@@BEHXZ@?$unqualified_pusher@U?$user@P8Color@@BEHXZ@sol@@X@stack@sol@@SAHPAUlua_State@@ABQBD$$QAP8Color@@BEHXZ@Z 00000000100ceec0     LuaAPI.obj
 0001:000cdf50       ??$ctti_get_type_name@P8Color@@BEHXZ@detail@sol@@YA?AV?$basic_string@DU?$char_traits@D@std@@V?$allocator@D@2@@std@@XZ 00000000100cef50     LuaAPI.obj
 0001:000cdfe0       ??$user_allocate@P8Color@@BEHXZ@detail@sol@@YAPAP8Color@@BEHXZPAUlua_State@@@Z 00000000100cefe0     LuaAPI.obj
 0001:000ce1f0       ??$user_alloc_destruct@P8Color@@BEHXZ@detail@sol@@YAHPAUlua_State@@@Z 00000000100cf1f0     LuaAPI.obj
 0001:000ce210       ??$set@VColor@@V?$basic_string@DU?$char_traits@D@std@@V?$allocator@D@2@@std@@P6A?AV1@MMM@Z@usertype_storage_base@u_detail@sol@@QAEXPAUlua_State@@$$QAV?$basic_string@DU?$char_traits@D@std@@V?$allocator@D@2@@std@@$$QAP6A?AVColor@@MMM@Z@Z 00000000100cf210     LuaAPI.obj
 0001:000cea80       ??$call_with_@$00$0A@@?$binding@V?$basic_string@DU?$char_traits@D@std@@V?$allocator@D@2@@std@@P6A?AVColor@@MMM@ZV3@@u_detail@sol@@SAHPAUlua_State@@PAX@Z 00000000100cfa80     LuaAPI.obj
 0001:000ceb30       ??$index_call_with_@$00$0A@@?$binding@V?$basic_string@DU?$char_traits@D@std@@V?$allocator@D@2@@std@@P6A?AVColor@@MMM@ZV3@@u_detail@sol@@SAHPAUlua_State@@PAX@Z 00000000100cfb30     LuaAPI.obj
 0001:000ceb70       ??$call_with_@$0A@$0A@@?$binding@V?$basic_string@DU?$char_traits@D@std@@V?$allocator@D@2@@std@@P6A?AVColor@@MMM@ZV3@@u_detail@sol@@SAHPAUlua_State@@PAX@Z 00000000100cfb70     LuaAPI.obj
 0001:000cec20       ??$index_call_with_@$0A@$0A@@?$binding@V?$basic_string@DU?$char_traits@D@std@@V?$allocator@D@2@@std@@P6A?AVColor@@MMM@ZV3@@u_detail@sol@@SAHPAUlua_State@@PAX@Z 00000000100cfc20     LuaAPI.obj
 0001:000cec60       ??$call@$0A@$0A@@?$binding@V?$basic_string@DU?$char_traits@D@std@@V?$allocator@D@2@@std@@P6A?AVColor@@MMM@ZV3@@u_detail@sol@@SAHPAUlua_State@@@Z 00000000100cfc60     LuaAPI.obj
 0001:000cec70       ?data@?$binding@V?$basic_string@DU?$char_traits@D@std@@V?$allocator@D@2@@std@@P6A?AVColor@@MMM@ZV3@@u_detail@sol@@UAEPAXXZ 00000000100cfc70     LuaAPI.obj
 0001:000cec80       ??_G?$binding@V?$basic_string@DU?$char_traits@D@std@@V?$allocator@D@2@@std@@P6A?AVColor@@MMM@ZV3@@u_detail@sol@@UAEPAXI@Z 00000000100cfc80     LuaAPI.obj
 0001:000ceca0       ??$call@$00$0A@@?$binding@V?$basic_string@DU?$char_traits@D@std@@V?$allocator@D@2@@std@@P6A?AVColor@@MMM@ZV3@@u_detail@sol@@SAHPAUlua_State@@@Z 00000000100cfca0     LuaAPI.obj
 0001:000cecb0       ??$static_trampoline@$1??$call_@$00$0A@@?$binding@V?$basic_string@DU?$char_traits@D@std@@V?$allocator@D@2@@std@@P6A?AVColor@@MMM@ZV3@@u_detail@sol@@SAHPAUlua_State@@@Z@detail@sol@@YAHPAUlua_State@@@Z 00000000100cfcb0     LuaAPI.obj
 0001:000cee90       ??$static_trampoline@$1??$call_@$0A@$0A@@?$binding@V?$basic_string@DU?$char_traits@D@std@@V?$allocator@D@2@@std@@P6A?AVColor@@MMM@ZV3@@u_detail@sol@@SAHPAUlua_State@@@Z@detail@sol@@YAHPAUlua_State@@@Z 00000000100cfe90     LuaAPI.obj
 0001:000cf070       ??$traverse_set@V?$basic_string@DU?$char_traits@D@std@@V?$allocator@D@2@@std@@P6A?AVColor@@MMM@Z@?$basic_table_core@$0A@V?$basic_reference@$0A@@sol@@@sol@@QAEAAV01@$$QAV?$basic_string@DU?$char_traits@D@std@@V?$allocator@D@2@@std@@$$QAP6A?AVColor@@MMM@Z@Z 00000000100d0070     LuaAPI.obj
 0001:000cf140       ?call@?$upvalue_free_function@P6A?AVColor@@MMM@Z$0A@@function_detail@sol@@SAHPAUlua_State@@@Z 00000000100d0140     LuaAPI.obj
 0001:000cf150       ??$static_trampoline@$1?real_call@?$upvalue_free_function@P6A?AVColor@@MMM@Z$0A@@function_detail@sol@@SAHPAUlua_State@@@Z@detail@sol@@YAHPAUlua_State@@@Z 00000000100d0150     LuaAPI.obj
 0001:000cf320       ??$new_usertype@VC_ViewSetup@@ABV?$basic_string@DU?$char_traits@D@std@@V?$allocator@D@2@@std@@V23@PQ1@HV23@PQ1@HV23@PQ1@HV23@PQ1@HV23@PQ1@MV23@PQ1@VVector@@V23@PQ1@VQAngle@@X@?$basic_table_core@$00V?$basic_reference@$0A@@sol@@@sol@@QAE?AV?$basic_usertype@VC_ViewSetup@@V?$basic_reference@$0A@@sol@@@1@ABV?$basic_string@DU?$char_traits@D@std@@V?$allocator@D@2@@std@@$$QAV34@$$QAPQC_ViewSetup@@H1212121$$QAPQ5@M1$$QAPQ5@VVector@@1$$QAPQ5@VQAngle@@@Z 00000000100d0320     LuaAPI.obj
 0001:000cf440       ??$new_usertype@VC_ViewSetup@@ABV?$basic_string@DU?$char_traits@D@std@@V?$allocator@D@2@@std@@@?$basic_table_core@$00V?$basic_reference@$0A@@sol@@@sol@@QAE?AV?$basic_usertype@VC_ViewSetup@@V?$basic_reference@$0A@@sol@@@1@ABV?$basic_string@DU?$char_traits@D@std@@V?$allocator@D@2@@std@@Uautomagic_enrollments@1@@Z 00000000100d0440     LuaAPI.obj
 0001:000cf550       ??$register_usertype@VC_ViewSetup@@@u_detail@sol@@YAHPAUlua_State@@Uautomagic_enrollments@1@@Z 00000000100d0550     LuaAPI.obj
 0001:000cf990       ??$delete_usertype_storage@VC_ViewSetup@@@u_detail@sol@@YAXPAUlua_State@@@Z 00000000100d0990     LuaAPI.obj
 0001:000cfa20       ??$create_usertype_storage@VC_ViewSetup@@@u_detail@sol@@YAAAU?$usertype_storage@VC_ViewSetup@@@01@PAUlua_State@@@Z 00000000100d0a20     LuaAPI.obj
 0001:000cfb20       ?gc_table@?$usertype_traits@VC_ViewSetup@@@sol@@SAABV?$basic_string@DU?$char_traits@D@std@@V?$allocator@D@2@@std@@XZ 00000000100d0b20     LuaAPI.obj
 0001:000cff10       ?metatable@?$usertype_traits@$$CBVC_ViewSetup@@@sol@@SAABV?$basic_string@DU?$char_traits@D@std@@V?$allocator@D@2@@std@@XZ 00000000100d0f10     LuaAPI.obj
 0001:000d0290       ?metatable@?$usertype_traits@PBVC_ViewSetup@@@sol@@SAABV?$basic_string@DU?$char_traits@D@std@@V?$allocator@D@2@@std@@XZ 00000000100d1290     LuaAPI.obj
 0001:000d0610       ?metatable@?$usertype_traits@PAVC_ViewSetup@@@sol@@SAABV?$basic_string@DU?$char_traits@D@std@@V?$allocator@D@2@@std@@XZ 00000000100d1610     LuaAPI.obj
 0001:000d0990       ?metatable@?$usertype_traits@U?$unique_usertype@VC_ViewSetup@@@detail@sol@@@sol@@SAABV?$basic_string@DU?$char_traits@D@std@@V?$allocator@D@2@@std@@XZ 00000000100d1990     LuaAPI.obj
 0001:000d0d10       ?metatable@?$usertype_traits@VC_ViewSetup@@@sol@@SAABV?$basic_string@DU?$char_traits@D@std@@V?$allocator@D@2@@std@@XZ 00000000100d1d10     LuaAPI.obj
 0001:000d1090       ??$is_check@VC_ViewSetup@@@detail@sol@@YAHPAUlua_State@@@Z 00000000100d2090     LuaAPI.obj
 0001:000d1110       ??$destruct_usertype_storage@VC_ViewSetup@@@u_detail@sol@@YAHPAUlua_State@@@Z 00000000100d2110     LuaAPI.obj
 0001:000d1130       ?user_gc_metatable@?$usertype_traits@U?$usertype_storage@VC_ViewSetup@@@u_detail@sol@@@sol@@SAABV?$basic_string@DU?$char_traits@D@std@@V?$allocator@D@2@@std@@XZ 00000000100d2130     LuaAPI.obj
 0001:000d1520       ??$ctti_get_type_name@U?$usertype_storage@VC_ViewSetup@@@u_detail@sol@@@detail@sol@@YA?AV?$basic_string@DU?$char_traits@D@std@@V?$allocator@D@2@@std@@XZ 00000000100d2520     LuaAPI.obj
 0001:000d15b0       ??$user_allocate@U?$usertype_storage@VC_ViewSetup@@@u_detail@sol@@@detail@sol@@YAPAU?$usertype_storage@VC_ViewSetup@@@u_detail@1@PAUlua_State@@@Z 00000000100d25b0     LuaAPI.obj
 0001:000d17d0       ??$ctti_get_type_name@$$CBVC_ViewSetup@@@detail@sol@@YA?AV?$basic_string@DU?$char_traits@D@std@@V?$allocator@D@2@@std@@XZ 00000000100d27d0     LuaAPI.obj
 0001:000d1860       ??$ctti_get_type_name@PBVC_ViewSetup@@@detail@sol@@YA?AV?$basic_string@DU?$char_traits@D@std@@V?$allocator@D@2@@std@@XZ 00000000100d2860     LuaAPI.obj
 0001:000d18f0       ??$ctti_get_type_name@PAVC_ViewSetup@@@detail@sol@@YA?AV?$basic_string@DU?$char_traits@D@std@@V?$allocator@D@2@@std@@XZ 00000000100d28f0     LuaAPI.obj
 0001:000d1980       ??$ctti_get_type_name@U?$unique_usertype@VC_ViewSetup@@@detail@sol@@@detail@sol@@YA?AV?$basic_string@DU?$char_traits@D@std@@V?$allocator@D@2@@std@@XZ 00000000100d2980     LuaAPI.obj
 0001:000d1a10       ??$ctti_get_type_name@VC_ViewSetup@@@detail@sol@@YA?AV?$basic_string@DU?$char_traits@D@std@@V?$allocator@D@2@@std@@XZ 00000000100d2a10     LuaAPI.obj
 0001:000d1aa0       ??$check@VC_ViewSetup@@P6AHPAUlua_State@@HW4type@sol@@1PBD@_E@?$unqualified_checker@U?$as_value_tag@VC_ViewSetup@@@detail@sol@@$06X@stack@sol@@SA_NU?$types@VC_ViewSetup@@@2@PAUlua_State@@HW4type@2@$$QAP6AH1H22PBD@_EAAUrecord@12@@Z 00000000100d2aa0     LuaAPI.obj
 0001:000d1d90       ?qualified_name@?$usertype_traits@VC_ViewSetup@@@sol@@SAABV?$basic_string@DU?$char_traits@D@std@@V?$allocator@D@2@@std@@XZ 00000000100d2d90     LuaAPI.obj
 0001:000d1ec0       ?metatable@?$usertype_traits@U?$as_container_t@VC_ViewSetup@@@sol@@@sol@@SAABV?$basic_string@DU?$char_traits@D@std@@V?$allocator@D@2@@std@@XZ 00000000100d2ec0     LuaAPI.obj
 0001:000d2240       ??$ctti_get_type_name@U?$as_container_t@VC_ViewSetup@@@sol@@@detail@sol@@YA?AV?$basic_string@DU?$char_traits@D@std@@V?$allocator@D@2@@std@@XZ 00000000100d3240     LuaAPI.obj
 0001:000d22d0       ??R<lambda_1>@?0???$register_usertype@VC_ViewSetup@@@u_detail@sol@@YAHPAUlua_State@@Uautomagic_enrollments@2@@Z@QBE?A?<auto>@@0W4submetatable_type@12@AAV?$basic_reference@$0A@@2@@Z 00000000100d32d0     LuaAPI.obj
 0001:000d28c0       ?user_metatable@?$usertype_traits@VC_ViewSetup@@@sol@@SAABV?$basic_string@DU?$char_traits@D@std@@V?$allocator@D@2@@std@@XZ 00000000100d38c0     LuaAPI.obj
 0001:000d2cb0       ??$unique_destruct@VC_ViewSetup@@@detail@sol@@YAHPAUlua_State@@@Z 00000000100d3cb0     LuaAPI.obj
 0001:000d2cf0       ?type_check@?$inheritance@VC_ViewSetup@@@detail@sol@@SA_NABV?$basic_string_view@DU?$char_traits@D@std@@@std@@@Z 00000000100d3cf0     LuaAPI.obj
 0001:000d2d30       ?type_cast@?$inheritance@VC_ViewSetup@@@detail@sol@@SAPAXPAXABV?$basic_string_view@DU?$char_traits@D@std@@@std@@@Z 00000000100d3d30     LuaAPI.obj
 0001:000d2d70       ??$insert_default_registrations@VC_ViewSetup@@AAV<lambda_1>@?0???R2?0???$register_usertype@VC_ViewSetup@@@u_detail@sol@@YAHPAUlua_State@@Uautomagic_enrollments@4@@Z@QBE?A?<auto>@@0W4submetatable_type@34@AAV?$basic_reference@$0A@@4@@Z@AAUproperties_enrollment_allowed@detail@4@@detail@sol@@YAXAAV<lambda_1>@?0???R2?0???$register_usertype@VC_ViewSetup@@@u_detail@1@YAHPAUlua_State@@Uautomagic_enrollments@1@@Z@QBE?A?<auto>@@0W4submetatable_type@31@AAV?$basic_reference@$0A@@1@@Z@AAUproperties_enrollment_allowed@01@@Z 00000000100d3d70     LuaAPI.obj
 0001:000d2eb0       ??$meta_index_call@$0A@@?$usertype_storage@VC_ViewSetup@@@u_detail@sol@@SAHPAUlua_State@@@Z 00000000100d3eb0     LuaAPI.obj
 0001:000d2ec0       ??$meta_index_call@$00@?$usertype_storage@VC_ViewSetup@@@u_detail@sol@@SAHPAUlua_State@@@Z 00000000100d3ec0     LuaAPI.obj
 0001:000d2ed0       ??$index_call@$00@?$usertype_storage@VC_ViewSetup@@@u_detail@sol@@SAHPAUlua_State@@@Z 00000000100d3ed0     LuaAPI.obj
 0001:000d2ee0       ??$usertype_alloc_destruct@VC_ViewSetup@@@detail@sol@@YAHPAUlua_State@@@Z 00000000100d3ee0     LuaAPI.obj
 0001:000d2f00       ??$comparsion_operator_wrap@VC_ViewSetup@@Uno_comp@detail@sol@@@detail@sol@@YAHPAUlua_State@@@Z 00000000100d3f00     LuaAPI.obj
 0001:000d2fa0       ?pairs_call@?$u_c_launch@U?$as_container_t@VC_ViewSetup@@@sol@@@container_detail@sol@@SAHPAUlua_State@@@Z 00000000100d3fa0     LuaAPI.obj
 0001:000d2fb0       ??$get_using@V?$optional@AAVC_ViewSetup@@@sol@@AAP6AHPAUlua_State@@HW4type@2@1PBD@_E@?$unqualified_check_getter@VC_ViewSetup@@X@stack@sol@@SA?AV?$optional@AAVC_ViewSetup@@@2@PAUlua_State@@HAAP6AH0HW4type@2@1PBD@_EAAUrecord@12@@Z 00000000100d3fb0     LuaAPI.obj
 0001:000d3060       ??$check@VC_ViewSetup@@AAP6AHPAUlua_State@@HW4type@sol@@1PBD@_E@?$unqualified_checker@U?$as_value_tag@VC_ViewSetup@@@detail@sol@@$06X@stack@sol@@SA_NU?$types@VC_ViewSetup@@@2@PAUlua_State@@HW4type@2@AAP6AH1H22PBD@_EAAUrecord@12@@Z 00000000100d4060     LuaAPI.obj
 0001:000d3350       ?get_no_lua_nil_from@?$unqualified_getter@U?$as_value_tag@VC_ViewSetup@@@detail@sol@@X@stack@sol@@SAPAVC_ViewSetup@@PAUlua_State@@PAXHAAUrecord@23@@Z 00000000100d4350     LuaAPI.obj
 0001:000d33f0       ??$static_trampoline@$1?real_pairs_call@?$u_c_launch@U?$as_container_t@VC_ViewSetup@@@sol@@@container_detail@sol@@SAHPAUlua_State@@@Z@detail@sol@@YAHPAUlua_State@@@Z 00000000100d43f0     LuaAPI.obj
 0001:000d35c0       ??$static_trampoline@$1??$index_call_@$0A@$00@?$usertype_storage@VC_ViewSetup@@@u_detail@sol@@SAHPAUlua_State@@@Z@detail@sol@@YAHPAUlua_State@@@Z 00000000100d45c0     LuaAPI.obj
 0001:000d3720       ??$static_trampoline@$1??$index_call_@$00$00@?$usertype_storage@VC_ViewSetup@@@u_detail@sol@@SAHPAUlua_State@@@Z@detail@sol@@YAHPAUlua_State@@@Z 00000000100d4720     LuaAPI.obj
 0001:000d3880       ??$static_trampoline@$1??$index_call_@$00$0A@@?$usertype_storage@VC_ViewSetup@@@u_detail@sol@@SAHPAUlua_State@@@Z@detail@sol@@YAHPAUlua_State@@@Z 00000000100d4880     LuaAPI.obj
 0001:000d39e0       ??$set@VC_ViewSetup@@W4meta_function@sol@@U?$constructor_list@$$A6A?AVC_ViewSetup@@XZ@3@@usertype_storage_base@u_detail@sol@@QAEXPAUlua_State@@$$QAW4meta_function@2@$$QAU?$constructor_list@$$A6A?AVC_ViewSetup@@XZ@2@@Z 00000000100d49e0     LuaAPI.obj
 0001:000d4260       ??$call_with_@$00$0A@@?$binding@W4meta_function@sol@@U?$constructor_list@$$A6A?AVC_ViewSetup@@XZ@2@VC_ViewSetup@@@u_detail@sol@@SAHPAUlua_State@@PAX@Z 00000000100d5260     LuaAPI.obj
 0001:000d4270       ??$index_call_with_@$00$0A@@?$binding@W4meta_function@sol@@U?$constructor_list@$$A6A?AVC_ViewSetup@@XZ@2@VC_ViewSetup@@@u_detail@sol@@SAHPAUlua_State@@PAX@Z 00000000100d5270     LuaAPI.obj
 0001:000d42b0       ??$call_with_@$0A@$0A@@?$binding@W4meta_function@sol@@U?$constructor_list@$$A6A?AVC_ViewSetup@@XZ@2@VC_ViewSetup@@@u_detail@sol@@SAHPAUlua_State@@PAX@Z 00000000100d52b0     LuaAPI.obj
 0001:000d42c0       ??$index_call_with_@$0A@$0A@@?$binding@W4meta_function@sol@@U?$constructor_list@$$A6A?AVC_ViewSetup@@XZ@2@VC_ViewSetup@@@u_detail@sol@@SAHPAUlua_State@@PAX@Z 00000000100d52c0     LuaAPI.obj
 0001:000d4300       ??$call@$0A@$0A@@?$binding@W4meta_function@sol@@U?$constructor_list@$$A6A?AVC_ViewSetup@@XZ@2@VC_ViewSetup@@@u_detail@sol@@SAHPAUlua_State@@@Z 00000000100d5300     LuaAPI.obj
 0001:000d4310       ??$index_call@$0A@@?$usertype_storage@VC_ViewSetup@@@u_detail@sol@@SAHPAUlua_State@@@Z 00000000100d5310     LuaAPI.obj
 0001:000d4320       ?data@?$binding@W4meta_function@sol@@U?$constructor_list@$$A6A?AVC_ViewSetup@@XZ@2@VC_ViewSetup@@@u_detail@sol@@UAEPAXXZ 00000000100d5320     LuaAPI.obj
 0001:000d4330       ??_G?$binding@W4meta_function@sol@@U?$constructor_list@$$A6A?AVC_ViewSetup@@XZ@2@VC_ViewSetup@@@u_detail@sol@@UAEPAXI@Z 00000000100d5330     LuaAPI.obj
 0001:000d4350       ?call@?$lua_call_wrapper@VC_ViewSetup@@U?$constructor_list@$$A6A?AVC_ViewSetup@@XZ@sol@@$00$0A@$0A@$0A@$00X@call_detail@sol@@SAHPAUlua_State@@AAU?$constructor_list@$$A6A?AVC_ViewSetup@@XZ@3@@Z 00000000100d5350     LuaAPI.obj
 0001:000d4520       ??$usertype_allocate@VC_ViewSetup@@@detail@sol@@YAPAVC_ViewSetup@@PAUlua_State@@@Z 00000000100d5520     LuaAPI.obj
 0001:000d4810       ??$set_undefined_methods_on@VC_ViewSetup@@@stack_detail@stack@sol@@YAXVstack_reference@2@@Z 00000000100d5810     LuaAPI.obj
 0001:000d4ac0       ??$call@$00$0A@@?$binding@W4meta_function@sol@@U?$constructor_list@$$A6A?AVC_ViewSetup@@XZ@2@VC_ViewSetup@@@u_detail@sol@@SAHPAUlua_State@@@Z 00000000100d5ac0     LuaAPI.obj
 0001:000d4ad0       ??$static_trampoline@$1??$call_@$00$0A@@?$binding@W4meta_function@sol@@U?$constructor_list@$$A6A?AVC_ViewSetup@@XZ@2@VC_ViewSetup@@@u_detail@sol@@SAHPAUlua_State@@@Z@detail@sol@@YAHPAUlua_State@@@Z 00000000100d5ad0     LuaAPI.obj
 0001:000d4c20       ?call@?$lua_call_wrapper@VC_ViewSetup@@U?$constructor_list@$$A6A?AVC_ViewSetup@@XZ@sol@@$0A@$0A@$0A@$0A@$00X@call_detail@sol@@SAHPAUlua_State@@AAU?$constructor_list@$$A6A?AVC_ViewSetup@@XZ@3@@Z 00000000100d5c20     LuaAPI.obj
 0001:000d4df0       ??$static_trampoline@$1??$call_@$0A@$0A@@?$binding@W4meta_function@sol@@U?$constructor_list@$$A6A?AVC_ViewSetup@@XZ@2@VC_ViewSetup@@@u_detail@sol@@SAHPAUlua_State@@@Z@detail@sol@@YAHPAUlua_State@@@Z 00000000100d5df0     LuaAPI.obj
 0001:000d4f40       ??$static_trampoline@$1??$index_call_@$0A@$0A@@?$usertype_storage@VC_ViewSetup@@@u_detail@sol@@SAHPAUlua_State@@@Z@detail@sol@@YAHPAUlua_State@@@Z 00000000100d5f40     LuaAPI.obj
 0001:000d50a0       ??$traverse_set_deep@$00$0A@$0A@ABV?$basic_string@DU?$char_traits@D@std@@V?$allocator@D@2@@std@@AAV?$basic_usertype@VC_ViewSetup@@V?$basic_reference@$0A@@sol@@@sol@@@?$basic_table_core@$00V?$basic_reference@$0A@@sol@@@sol@@ABEXHABV?$basic_string@DU?$char_traits@D@std@@V?$allocator@D@2@@std@@AAV?$basic_usertype@VC_ViewSetup@@V?$basic_reference@$0A@@sol@@@1@@Z 00000000100d60a0     LuaAPI.obj
 0001:000d5120       ??$set@V?$basic_string@DU?$char_traits@D@std@@V?$allocator@D@2@@std@@PQC_ViewSetup@@H@?$basic_usertype@VC_ViewSetup@@V?$basic_reference@$0A@@sol@@@sol@@QAEX$$QAV?$basic_string@DU?$char_traits@D@std@@V?$allocator@D@2@@std@@$$QAPQC_ViewSetup@@H@Z 00000000100d6120     LuaAPI.obj
 0001:000d51c0       ??$set@V?$basic_string@DU?$char_traits@D@std@@V?$allocator@D@2@@std@@PQC_ViewSetup@@M@?$basic_usertype@VC_ViewSetup@@V?$basic_reference@$0A@@sol@@@sol@@QAEX$$QAV?$basic_string@DU?$char_traits@D@std@@V?$allocator@D@2@@std@@$$QAPQC_ViewSetup@@M@Z 00000000100d61c0     LuaAPI.obj
 0001:000d5260       ??$set@V?$basic_string@DU?$char_traits@D@std@@V?$allocator@D@2@@std@@PQC_ViewSetup@@VVector@@@?$basic_usertype@VC_ViewSetup@@V?$basic_reference@$0A@@sol@@@sol@@QAEX$$QAV?$basic_string@DU?$char_traits@D@std@@V?$allocator@D@2@@std@@$$QAPQC_ViewSetup@@VVector@@@Z 00000000100d6260     LuaAPI.obj
 0001:000d5300       ??$set@V?$basic_string@DU?$char_traits@D@std@@V?$allocator@D@2@@std@@PQC_ViewSetup@@VQAngle@@@?$basic_usertype@VC_ViewSetup@@V?$basic_reference@$0A@@sol@@@sol@@QAEX$$QAV?$basic_string@DU?$char_traits@D@std@@V?$allocator@D@2@@std@@$$QAPQC_ViewSetup@@VQAngle@@@Z 00000000100d6300     LuaAPI.obj
 0001:000d53a0       ??$set@VC_ViewSetup@@V?$basic_string@DU?$char_traits@D@std@@V?$allocator@D@2@@std@@PQ1@H@usertype_storage_base@u_detail@sol@@QAEXPAUlua_State@@$$QAV?$basic_string@DU?$char_traits@D@std@@V?$allocator@D@2@@std@@$$QAPQC_ViewSetup@@H@Z 00000000100d63a0     LuaAPI.obj
 0001:000d5c20       ??$call_with_@$00$00@?$binding@V?$basic_string@DU?$char_traits@D@std@@V?$allocator@D@2@@std@@PQC_ViewSetup@@HV3@@u_detail@sol@@SAHPAUlua_State@@PAX@Z 00000000100d6c20     LuaAPI.obj
 0001:000d5ca0       ??$index_call_with_@$00$00@?$binding@V?$basic_string@DU?$char_traits@D@std@@V?$allocator@D@2@@std@@PQC_ViewSetup@@HV3@@u_detail@sol@@SAHPAUlua_State@@PAX@Z 00000000100d6ca0     LuaAPI.obj
 0001:000d5d20       ??$call_with_@$0A@$00@?$binding@V?$basic_string@DU?$char_traits@D@std@@V?$allocator@D@2@@std@@PQC_ViewSetup@@HV3@@u_detail@sol@@SAHPAUlua_State@@PAX@Z 00000000100d6d20     LuaAPI.obj
 0001:000d5d90       ??$index_call_with_@$0A@$00@?$binding@V?$basic_string@DU?$char_traits@D@std@@V?$allocator@D@2@@std@@PQC_ViewSetup@@HV3@@u_detail@sol@@SAHPAUlua_State@@PAX@Z 00000000100d6d90     LuaAPI.obj
 0001:000d5e00       ??$call@$0A@$00@?$binding@V?$basic_string@DU?$char_traits@D@std@@V?$allocator@D@2@@std@@PQC_ViewSetup@@HV3@@u_detail@sol@@SAHPAUlua_State@@@Z 00000000100d6e00     LuaAPI.obj
 0001:000d5e10       ?data@?$binding@V?$basic_string@DU?$char_traits@D@std@@V?$allocator@D@2@@std@@PQC_ViewSetup@@HV3@@u_detail@sol@@UAEPAXXZ 00000000100d6e10     LuaAPI.obj
 0001:000d5e20       ??_G?$binding@V?$basic_string@DU?$char_traits@D@std@@V?$allocator@D@2@@std@@PQC_ViewSetup@@HV3@@u_detail@sol@@UAEPAXI@Z 00000000100d6e20     LuaAPI.obj
 0001:000d5e40       ??$static_trampoline@$1??$call_@$0A@$00@?$binding@V?$basic_string@DU?$char_traits@D@std@@V?$allocator@D@2@@std@@PQC_ViewSetup@@HV3@@u_detail@sol@@SAHPAUlua_State@@@Z@detail@sol@@YAHPAUlua_State@@@Z 00000000100d6e40     LuaAPI.obj
 0001:000d5ff0       ??$traverse_set@V?$basic_string@DU?$char_traits@D@std@@V?$allocator@D@2@@std@@PQC_ViewSetup@@H@?$basic_table_core@$0A@V?$basic_reference@$0A@@sol@@@sol@@QAEAAV01@$$QAV?$basic_string@DU?$char_traits@D@std@@V?$allocator@D@2@@std@@$$QAPQC_ViewSetup@@H@Z 00000000100d6ff0     LuaAPI.obj
 0001:000d60b0       ?call@?$upvalue_this_member_variable@VC_ViewSetup@@PQ1@H$0A@@function_detail@sol@@SAHPAUlua_State@@@Z 00000000100d70b0     LuaAPI.obj
 0001:000d60d0       ?real_call@?$upvalue_this_member_variable@VC_ViewSetup@@PQ1@H$0A@@function_detail@sol@@SAHPAUlua_State@@@Z 00000000100d70d0     LuaAPI.obj
 0001:000d61d0       ??$set@VC_ViewSetup@@V?$basic_string@DU?$char_traits@D@std@@V?$allocator@D@2@@std@@PQ1@M@usertype_storage_base@u_detail@sol@@QAEXPAUlua_State@@$$QAV?$basic_string@DU?$char_traits@D@std@@V?$allocator@D@2@@std@@$$QAPQC_ViewSetup@@M@Z 00000000100d71d0     LuaAPI.obj
 0001:000d6a50       ??$call_with_@$00$00@?$binding@V?$basic_string@DU?$char_traits@D@std@@V?$allocator@D@2@@std@@PQC_ViewSetup@@MV3@@u_detail@sol@@SAHPAUlua_State@@PAX@Z 00000000100d7a50     LuaAPI.obj
 0001:000d6ad0       ??$index_call_with_@$00$00@?$binding@V?$basic_string@DU?$char_traits@D@std@@V?$allocator@D@2@@std@@PQC_ViewSetup@@MV3@@u_detail@sol@@SAHPAUlua_State@@PAX@Z 00000000100d7ad0     LuaAPI.obj
 0001:000d6b50       ??$call_with_@$0A@$00@?$binding@V?$basic_string@DU?$char_traits@D@std@@V?$allocator@D@2@@std@@PQC_ViewSetup@@MV3@@u_detail@sol@@SAHPAUlua_State@@PAX@Z 00000000100d7b50     LuaAPI.obj
 0001:000d6bc0       ??$index_call_with_@$0A@$00@?$binding@V?$basic_string@DU?$char_traits@D@std@@V?$allocator@D@2@@std@@PQC_ViewSetup@@MV3@@u_detail@sol@@SAHPAUlua_State@@PAX@Z 00000000100d7bc0     LuaAPI.obj
 0001:000d6c30       ??$call@$0A@$00@?$binding@V?$basic_string@DU?$char_traits@D@std@@V?$allocator@D@2@@std@@PQC_ViewSetup@@MV3@@u_detail@sol@@SAHPAUlua_State@@@Z 00000000100d7c30     LuaAPI.obj
 0001:000d6c40       ?data@?$binding@V?$basic_string@DU?$char_traits@D@std@@V?$allocator@D@2@@std@@PQC_ViewSetup@@MV3@@u_detail@sol@@UAEPAXXZ 00000000100d7c40     LuaAPI.obj
 0001:000d6c50       ??_G?$binding@V?$basic_string@DU?$char_traits@D@std@@V?$allocator@D@2@@std@@PQC_ViewSetup@@MV3@@u_detail@sol@@UAEPAXI@Z 00000000100d7c50     LuaAPI.obj
 0001:000d6c70       ??$static_trampoline@$1??$call_@$0A@$00@?$binding@V?$basic_string@DU?$char_traits@D@std@@V?$allocator@D@2@@std@@PQC_ViewSetup@@MV3@@u_detail@sol@@SAHPAUlua_State@@@Z@detail@sol@@YAHPAUlua_State@@@Z 00000000100d7c70     LuaAPI.obj
 0001:000d6e10       ??$traverse_set@V?$basic_string@DU?$char_traits@D@std@@V?$allocator@D@2@@std@@PQC_ViewSetup@@M@?$basic_table_core@$0A@V?$basic_reference@$0A@@sol@@@sol@@QAEAAV01@$$QAV?$basic_string@DU?$char_traits@D@std@@V?$allocator@D@2@@std@@$$QAPQC_ViewSetup@@M@Z 00000000100d7e10     LuaAPI.obj
 0001:000d6ed0       ?call@?$upvalue_this_member_variable@VC_ViewSetup@@PQ1@M$0A@@function_detail@sol@@SAHPAUlua_State@@@Z 00000000100d7ed0     LuaAPI.obj
 0001:000d6ef0       ?real_call@?$upvalue_this_member_variable@VC_ViewSetup@@PQ1@M$0A@@function_detail@sol@@SAHPAUlua_State@@@Z 00000000100d7ef0     LuaAPI.obj
 0001:000d6ff0       ??$set@VC_ViewSetup@@V?$basic_string@DU?$char_traits@D@std@@V?$allocator@D@2@@std@@PQ1@VVector@@@usertype_storage_base@u_detail@sol@@QAEXPAUlua_State@@$$QAV?$basic_string@DU?$char_traits@D@std@@V?$allocator@D@2@@std@@$$QAPQC_ViewSetup@@VVector@@@Z 00000000100d7ff0     LuaAPI.obj
 0001:000d7870       ??$call_with_@$00$00@?$binding@V?$basic_string@DU?$char_traits@D@std@@V?$allocator@D@2@@std@@PQC_ViewSetup@@VVector@@V3@@u_detail@sol@@SAHPAUlua_State@@PAX@Z 00000000100d8870     LuaAPI.obj
 0001:000d7900       ??$index_call_with_@$00$00@?$binding@V?$basic_string@DU?$char_traits@D@std@@V?$allocator@D@2@@std@@PQC_ViewSetup@@VVector@@V3@@u_detail@sol@@SAHPAUlua_State@@PAX@Z 00000000100d8900     LuaAPI.obj
 0001:000d7990       ??$call_with_@$0A@$00@?$binding@V?$basic_string@DU?$char_traits@D@std@@V?$allocator@D@2@@std@@PQC_ViewSetup@@VVector@@V3@@u_detail@sol@@SAHPAUlua_State@@PAX@Z 00000000100d8990     LuaAPI.obj
 0001:000d7a40       ??$index_call_with_@$0A@$00@?$binding@V?$basic_string@DU?$char_traits@D@std@@V?$allocator@D@2@@std@@PQC_ViewSetup@@VVector@@V3@@u_detail@sol@@SAHPAUlua_State@@PAX@Z 00000000100d8a40     LuaAPI.obj
 0001:000d7af0       ??$call@$0A@$00@?$binding@V?$basic_string@DU?$char_traits@D@std@@V?$allocator@D@2@@std@@PQC_ViewSetup@@VVector@@V3@@u_detail@sol@@SAHPAUlua_State@@@Z 00000000100d8af0     LuaAPI.obj
 0001:000d7b00       ?data@?$binding@V?$basic_string@DU?$char_traits@D@std@@V?$allocator@D@2@@std@@PQC_ViewSetup@@VVector@@V3@@u_detail@sol@@UAEPAXXZ 00000000100d8b00     LuaAPI.obj
 0001:000d7b10       ??_G?$binding@V?$basic_string@DU?$char_traits@D@std@@V?$allocator@D@2@@std@@PQC_ViewSetup@@VVector@@V3@@u_detail@sol@@UAEPAXI@Z 00000000100d8b10     LuaAPI.obj
 0001:000d7b30       ??$static_trampoline@$1??$call_@$0A@$00@?$binding@V?$basic_string@DU?$char_traits@D@std@@V?$allocator@D@2@@std@@PQC_ViewSetup@@VVector@@V3@@u_detail@sol@@SAHPAUlua_State@@@Z@detail@sol@@YAHPAUlua_State@@@Z 00000000100d8b30     LuaAPI.obj
 0001:000d7d20       ??$traverse_set@V?$basic_string@DU?$char_traits@D@std@@V?$allocator@D@2@@std@@PQC_ViewSetup@@VVector@@@?$basic_table_core@$0A@V?$basic_reference@$0A@@sol@@@sol@@QAEAAV01@$$QAV?$basic_string@DU?$char_traits@D@std@@V?$allocator@D@2@@std@@$$QAPQC_ViewSetup@@VVector@@@Z 00000000100d8d20     LuaAPI.obj
 0001:000d7de0       ?call@?$upvalue_this_member_variable@VC_ViewSetup@@PQ1@VVector@@$0A@@function_detail@sol@@SAHPAUlua_State@@@Z 00000000100d8de0     LuaAPI.obj
 0001:000d7e00       ?real_call@?$upvalue_this_member_variable@VC_ViewSetup@@PQ1@VVector@@$0A@@function_detail@sol@@SAHPAUlua_State@@@Z 00000000100d8e00     LuaAPI.obj
 0001:000d7f60       ??$set@VC_ViewSetup@@V?$basic_string@DU?$char_traits@D@std@@V?$allocator@D@2@@std@@PQ1@VQAngle@@@usertype_storage_base@u_detail@sol@@QAEXPAUlua_State@@$$QAV?$basic_string@DU?$char_traits@D@std@@V?$allocator@D@2@@std@@$$QAPQC_ViewSetup@@VQAngle@@@Z 00000000100d8f60     LuaAPI.obj
 0001:000d87e0       ??$call_with_@$00$00@?$binding@V?$basic_string@DU?$char_traits@D@std@@V?$allocator@D@2@@std@@PQC_ViewSetup@@VQAngle@@V3@@u_detail@sol@@SAHPAUlua_State@@PAX@Z 00000000100d97e0     LuaAPI.obj
 0001:000d8870       ??$index_call_with_@$00$00@?$binding@V?$basic_string@DU?$char_traits@D@std@@V?$allocator@D@2@@std@@PQC_ViewSetup@@VQAngle@@V3@@u_detail@sol@@SAHPAUlua_State@@PAX@Z 00000000100d9870     LuaAPI.obj
 0001:000d8900       ??$call_with_@$0A@$00@?$binding@V?$basic_string@DU?$char_traits@D@std@@V?$allocator@D@2@@std@@PQC_ViewSetup@@VQAngle@@V3@@u_detail@sol@@SAHPAUlua_State@@PAX@Z 00000000100d9900     LuaAPI.obj
 0001:000d89b0       ??$index_call_with_@$0A@$00@?$binding@V?$basic_string@DU?$char_traits@D@std@@V?$allocator@D@2@@std@@PQC_ViewSetup@@VQAngle@@V3@@u_detail@sol@@SAHPAUlua_State@@PAX@Z 00000000100d99b0     LuaAPI.obj
 0001:000d8a60       ??$call@$0A@$00@?$binding@V?$basic_string@DU?$char_traits@D@std@@V?$allocator@D@2@@std@@PQC_ViewSetup@@VQAngle@@V3@@u_detail@sol@@SAHPAUlua_State@@@Z 00000000100d9a60     LuaAPI.obj
 0001:000d8a70       ?data@?$binding@V?$basic_string@DU?$char_traits@D@std@@V?$allocator@D@2@@std@@PQC_ViewSetup@@VQAngle@@V3@@u_detail@sol@@UAEPAXXZ 00000000100d9a70     LuaAPI.obj
 0001:000d8a80       ??_G?$binding@V?$basic_string@DU?$char_traits@D@std@@V?$allocator@D@2@@std@@PQC_ViewSetup@@VQAngle@@V3@@u_detail@sol@@UAEPAXI@Z 00000000100d9a80     LuaAPI.obj
 0001:000d8aa0       ??$static_trampoline@$1??$call_@$0A@$00@?$binding@V?$basic_string@DU?$char_traits@D@std@@V?$allocator@D@2@@std@@PQC_ViewSetup@@VQAngle@@V3@@u_detail@sol@@SAHPAUlua_State@@@Z@detail@sol@@YAHPAUlua_State@@@Z 00000000100d9aa0     LuaAPI.obj
 0001:000d8c90       ??$traverse_set@V?$basic_string@DU?$char_traits@D@std@@V?$allocator@D@2@@std@@PQC_ViewSetup@@VQAngle@@@?$basic_table_core@$0A@V?$basic_reference@$0A@@sol@@@sol@@QAEAAV01@$$QAV?$basic_string@DU?$char_traits@D@std@@V?$allocator@D@2@@std@@$$QAPQC_ViewSetup@@VQAngle@@@Z 00000000100d9c90     LuaAPI.obj
 0001:000d8d50       ?call@?$upvalue_this_member_variable@VC_ViewSetup@@PQ1@VQAngle@@$0A@@function_detail@sol@@SAHPAUlua_State@@@Z 00000000100d9d50     LuaAPI.obj
 0001:000d8d70       ?real_call@?$upvalue_this_member_variable@VC_ViewSetup@@PQ1@VQAngle@@$0A@@function_detail@sol@@SAHPAUlua_State@@@Z 00000000100d9d70     LuaAPI.obj
 0001:000d8ed0       ??$new_usertype@UPlayerInfo_t@@ABV?$basic_string@DU?$char_traits@D@std@@V?$allocator@D@2@@std@@V23@PQ1@_NV23@PQ1@EV23@PQ1@_NV23@PQ1@KV23@PQ1@_JV23@PQ1@HV23@PQ1@HX@?$basic_table_core@$00V?$basic_reference@$0A@@sol@@@sol@@QAE?AV?$basic_usertype@UPlayerInfo_t@@V?$basic_reference@$0A@@sol@@@1@ABV?$basic_string@DU?$char_traits@D@std@@V?$allocator@D@2@@std@@$$QAV34@$$QAPQPlayerInfo_t@@_N1$$QAPQ5@E121$$QAPQ5@K1$$QAPQ5@_J1$$QAPQ5@H16@Z 00000000100d9ed0     LuaAPI.obj
 0001:000d8ff0       ??$new_usertype@UPlayerInfo_t@@ABV?$basic_string@DU?$char_traits@D@std@@V?$allocator@D@2@@std@@@?$basic_table_core@$00V?$basic_reference@$0A@@sol@@@sol@@QAE?AV?$basic_usertype@UPlayerInfo_t@@V?$basic_reference@$0A@@sol@@@1@ABV?$basic_string@DU?$char_traits@D@std@@V?$allocator@D@2@@std@@Uautomagic_enrollments@1@@Z 00000000100d9ff0     LuaAPI.obj
 0001:000d9100       ??$register_usertype@UPlayerInfo_t@@@u_detail@sol@@YAHPAUlua_State@@Uautomagic_enrollments@1@@Z 00000000100da100     LuaAPI.obj
 0001:000d9540       ??$delete_usertype_storage@UPlayerInfo_t@@@u_detail@sol@@YAXPAUlua_State@@@Z 00000000100da540     LuaAPI.obj
 0001:000d95d0       ??$create_usertype_storage@UPlayerInfo_t@@@u_detail@sol@@YAAAU?$usertype_storage@UPlayerInfo_t@@@01@PAUlua_State@@@Z 00000000100da5d0     LuaAPI.obj
 0001:000d96d0       ?gc_table@?$usertype_traits@UPlayerInfo_t@@@sol@@SAABV?$basic_string@DU?$char_traits@D@std@@V?$allocator@D@2@@std@@XZ 00000000100da6d0     LuaAPI.obj
 0001:000d9ac0       ?metatable@?$usertype_traits@$$CBUPlayerInfo_t@@@sol@@SAABV?$basic_string@DU?$char_traits@D@std@@V?$allocator@D@2@@std@@XZ 00000000100daac0     LuaAPI.obj
 0001:000d9e40       ?metatable@?$usertype_traits@PBUPlayerInfo_t@@@sol@@SAABV?$basic_string@DU?$char_traits@D@std@@V?$allocator@D@2@@std@@XZ 00000000100dae40     LuaAPI.obj
 0001:000da1c0       ?metatable@?$usertype_traits@PAUPlayerInfo_t@@@sol@@SAABV?$basic_string@DU?$char_traits@D@std@@V?$allocator@D@2@@std@@XZ 00000000100db1c0     LuaAPI.obj
 0001:000da540       ?metatable@?$usertype_traits@U?$unique_usertype@UPlayerInfo_t@@@detail@sol@@@sol@@SAABV?$basic_string@DU?$char_traits@D@std@@V?$allocator@D@2@@std@@XZ 00000000100db540     LuaAPI.obj
 0001:000da8c0       ?metatable@?$usertype_traits@UPlayerInfo_t@@@sol@@SAABV?$basic_string@DU?$char_traits@D@std@@V?$allocator@D@2@@std@@XZ 00000000100db8c0     LuaAPI.obj
 0001:000dac40       ??$is_check@UPlayerInfo_t@@@detail@sol@@YAHPAUlua_State@@@Z 00000000100dbc40     LuaAPI.obj
 0001:000dacc0       ??$destruct_usertype_storage@UPlayerInfo_t@@@u_detail@sol@@YAHPAUlua_State@@@Z 00000000100dbcc0     LuaAPI.obj
 0001:000dace0       ?user_gc_metatable@?$usertype_traits@U?$usertype_storage@UPlayerInfo_t@@@u_detail@sol@@@sol@@SAABV?$basic_string@DU?$char_traits@D@std@@V?$allocator@D@2@@std@@XZ 00000000100dbce0     LuaAPI.obj
 0001:000db0d0       ??$ctti_get_type_name@U?$usertype_storage@UPlayerInfo_t@@@u_detail@sol@@@detail@sol@@YA?AV?$basic_string@DU?$char_traits@D@std@@V?$allocator@D@2@@std@@XZ 00000000100dc0d0     LuaAPI.obj
 0001:000db160       ??$user_allocate@U?$usertype_storage@UPlayerInfo_t@@@u_detail@sol@@@detail@sol@@YAPAU?$usertype_storage@UPlayerInfo_t@@@u_detail@1@PAUlua_State@@@Z 00000000100dc160     LuaAPI.obj
 0001:000db380       ??$ctti_get_type_name@$$CBUPlayerInfo_t@@@detail@sol@@YA?AV?$basic_string@DU?$char_traits@D@std@@V?$allocator@D@2@@std@@XZ 00000000100dc380     LuaAPI.obj
 0001:000db410       ??$ctti_get_type_name@PBUPlayerInfo_t@@@detail@sol@@YA?AV?$basic_string@DU?$char_traits@D@std@@V?$allocator@D@2@@std@@XZ 00000000100dc410     LuaAPI.obj
 0001:000db4a0       ??$ctti_get_type_name@PAUPlayerInfo_t@@@detail@sol@@YA?AV?$basic_string@DU?$char_traits@D@std@@V?$allocator@D@2@@std@@XZ 00000000100dc4a0     LuaAPI.obj
 0001:000db530       ??$ctti_get_type_name@U?$unique_usertype@UPlayerInfo_t@@@detail@sol@@@detail@sol@@YA?AV?$basic_string@DU?$char_traits@D@std@@V?$allocator@D@2@@std@@XZ 00000000100dc530     LuaAPI.obj
 0001:000db5c0       ??$ctti_get_type_name@UPlayerInfo_t@@@detail@sol@@YA?AV?$basic_string@DU?$char_traits@D@std@@V?$allocator@D@2@@std@@XZ 00000000100dc5c0     LuaAPI.obj
 0001:000db650       ??$check@UPlayerInfo_t@@P6AHPAUlua_State@@HW4type@sol@@1PBD@_E@?$unqualified_checker@U?$as_value_tag@UPlayerInfo_t@@@detail@sol@@$06X@stack@sol@@SA_NU?$types@UPlayerInfo_t@@@2@PAUlua_State@@HW4type@2@$$QAP6AH1H22PBD@_EAAUrecord@12@@Z 00000000100dc650     LuaAPI.obj
 0001:000db940       ?qualified_name@?$usertype_traits@UPlayerInfo_t@@@sol@@SAABV?$basic_string@DU?$char_traits@D@std@@V?$allocator@D@2@@std@@XZ 00000000100dc940     LuaAPI.obj
 0001:000dba70       ?metatable@?$usertype_traits@U?$as_container_t@UPlayerInfo_t@@@sol@@@sol@@SAABV?$basic_string@DU?$char_traits@D@std@@V?$allocator@D@2@@std@@XZ 00000000100dca70     LuaAPI.obj
 0001:000dbdf0       ??$ctti_get_type_name@U?$as_container_t@UPlayerInfo_t@@@sol@@@detail@sol@@YA?AV?$basic_string@DU?$char_traits@D@std@@V?$allocator@D@2@@std@@XZ 00000000100dcdf0     LuaAPI.obj
 0001:000dbe80       ??R<lambda_1>@?0???$register_usertype@UPlayerInfo_t@@@u_detail@sol@@YAHPAUlua_State@@Uautomagic_enrollments@2@@Z@QBE?A?<auto>@@0W4submetatable_type@12@AAV?$basic_reference@$0A@@2@@Z 00000000100dce80     LuaAPI.obj
 0001:000dc470       ?user_metatable@?$usertype_traits@UPlayerInfo_t@@@sol@@SAABV?$basic_string@DU?$char_traits@D@std@@V?$allocator@D@2@@std@@XZ 00000000100dd470     LuaAPI.obj
 0001:000dc860       ??$unique_destruct@UPlayerInfo_t@@@detail@sol@@YAHPAUlua_State@@@Z 00000000100dd860     LuaAPI.obj
 0001:000dc8a0       ?type_check@?$inheritance@UPlayerInfo_t@@@detail@sol@@SA_NABV?$basic_string_view@DU?$char_traits@D@std@@@std@@@Z 00000000100dd8a0     LuaAPI.obj
 0001:000dc8e0       ?type_cast@?$inheritance@UPlayerInfo_t@@@detail@sol@@SAPAXPAXABV?$basic_string_view@DU?$char_traits@D@std@@@std@@@Z 00000000100dd8e0     LuaAPI.obj
 0001:000dc920       ??$insert_default_registrations@UPlayerInfo_t@@AAV<lambda_1>@?0???R2?0???$register_usertype@UPlayerInfo_t@@@u_detail@sol@@YAHPAUlua_State@@Uautomagic_enrollments@4@@Z@QBE?A?<auto>@@0W4submetatable_type@34@AAV?$basic_reference@$0A@@4@@Z@AAUproperties_enrollment_allowed@detail@4@@detail@sol@@YAXAAV<lambda_1>@?0???R2?0???$register_usertype@UPlayerInfo_t@@@u_detail@1@YAHPAUlua_State@@Uautomagic_enrollments@1@@Z@QBE?A?<auto>@@0W4submetatable_type@31@AAV?$basic_reference@$0A@@1@@Z@AAUproperties_enrollment_allowed@01@@Z 00000000100dd920     LuaAPI.obj
 0001:000dca60       ??$meta_index_call@$0A@@?$usertype_storage@UPlayerInfo_t@@@u_detail@sol@@SAHPAUlua_State@@@Z 00000000100dda60     LuaAPI.obj
 0001:000dca70       ??$meta_index_call@$00@?$usertype_storage@UPlayerInfo_t@@@u_detail@sol@@SAHPAUlua_State@@@Z 00000000100dda70     LuaAPI.obj
 0001:000dca80       ??$index_call@$00@?$usertype_storage@UPlayerInfo_t@@@u_detail@sol@@SAHPAUlua_State@@@Z 00000000100dda80     LuaAPI.obj
 0001:000dca90       ??$usertype_alloc_destruct@UPlayerInfo_t@@@detail@sol@@YAHPAUlua_State@@@Z 00000000100dda90     LuaAPI.obj
 0001:000dcab0       ??$comparsion_operator_wrap@UPlayerInfo_t@@Uno_comp@detail@sol@@@detail@sol@@YAHPAUlua_State@@@Z 00000000100ddab0     LuaAPI.obj
 0001:000dcb50       ?pairs_call@?$u_c_launch@U?$as_container_t@UPlayerInfo_t@@@sol@@@container_detail@sol@@SAHPAUlua_State@@@Z 00000000100ddb50     LuaAPI.obj
 0001:000dcb60       ??$get_using@V?$optional@AAUPlayerInfo_t@@@sol@@AAP6AHPAUlua_State@@HW4type@2@1PBD@_E@?$unqualified_check_getter@UPlayerInfo_t@@X@stack@sol@@SA?AV?$optional@AAUPlayerInfo_t@@@2@PAUlua_State@@HAAP6AH0HW4type@2@1PBD@_EAAUrecord@12@@Z 00000000100ddb60     LuaAPI.obj
 0001:000dcc10       ??$check@UPlayerInfo_t@@AAP6AHPAUlua_State@@HW4type@sol@@1PBD@_E@?$unqualified_checker@U?$as_value_tag@UPlayerInfo_t@@@detail@sol@@$06X@stack@sol@@SA_NU?$types@UPlayerInfo_t@@@2@PAUlua_State@@HW4type@2@AAP6AH1H22PBD@_EAAUrecord@12@@Z 00000000100ddc10     LuaAPI.obj
 0001:000dcf00       ?get_no_lua_nil_from@?$unqualified_getter@U?$as_value_tag@UPlayerInfo_t@@@detail@sol@@X@stack@sol@@SAPAUPlayerInfo_t@@PAUlua_State@@PAXHAAUrecord@23@@Z 00000000100ddf00     LuaAPI.obj
 0001:000dcfa0       ??$static_trampoline@$1?real_pairs_call@?$u_c_launch@U?$as_container_t@UPlayerInfo_t@@@sol@@@container_detail@sol@@SAHPAUlua_State@@@Z@detail@sol@@YAHPAUlua_State@@@Z 00000000100ddfa0     LuaAPI.obj
 0001:000dd170       ??$static_trampoline@$1??$index_call_@$0A@$00@?$usertype_storage@UPlayerInfo_t@@@u_detail@sol@@SAHPAUlua_State@@@Z@detail@sol@@YAHPAUlua_State@@@Z 00000000100de170     LuaAPI.obj
 0001:000dd2d0       ??$static_trampoline@$1??$index_call_@$00$00@?$usertype_storage@UPlayerInfo_t@@@u_detail@sol@@SAHPAUlua_State@@@Z@detail@sol@@YAHPAUlua_State@@@Z 00000000100de2d0     LuaAPI.obj
 0001:000dd430       ??$static_trampoline@$1??$index_call_@$00$0A@@?$usertype_storage@UPlayerInfo_t@@@u_detail@sol@@SAHPAUlua_State@@@Z@detail@sol@@YAHPAUlua_State@@@Z 00000000100de430     LuaAPI.obj
 0001:000dd590       ??$set@UPlayerInfo_t@@W4meta_function@sol@@U?$constructor_list@$$A6A?AUPlayerInfo_t@@XZ@3@@usertype_storage_base@u_detail@sol@@QAEXPAUlua_State@@$$QAW4meta_function@2@$$QAU?$constructor_list@$$A6A?AUPlayerInfo_t@@XZ@2@@Z 00000000100de590     LuaAPI.obj
 0001:000dde10       ??$call_with_@$00$0A@@?$binding@W4meta_function@sol@@U?$constructor_list@$$A6A?AUPlayerInfo_t@@XZ@2@UPlayerInfo_t@@@u_detail@sol@@SAHPAUlua_State@@PAX@Z 00000000100dee10     LuaAPI.obj
 0001:000dde20       ??$index_call_with_@$00$0A@@?$binding@W4meta_function@sol@@U?$constructor_list@$$A6A?AUPlayerInfo_t@@XZ@2@UPlayerInfo_t@@@u_detail@sol@@SAHPAUlua_State@@PAX@Z 00000000100dee20     LuaAPI.obj
 0001:000dde60       ??$call_with_@$0A@$0A@@?$binding@W4meta_function@sol@@U?$constructor_list@$$A6A?AUPlayerInfo_t@@XZ@2@UPlayerInfo_t@@@u_detail@sol@@SAHPAUlua_State@@PAX@Z 00000000100dee60     LuaAPI.obj
 0001:000dde70       ??$index_call_with_@$0A@$0A@@?$binding@W4meta_function@sol@@U?$constructor_list@$$A6A?AUPlayerInfo_t@@XZ@2@UPlayerInfo_t@@@u_detail@sol@@SAHPAUlua_State@@PAX@Z 00000000100dee70     LuaAPI.obj
 0001:000ddeb0       ??$call@$0A@$0A@@?$binding@W4meta_function@sol@@U?$constructor_list@$$A6A?AUPlayerInfo_t@@XZ@2@UPlayerInfo_t@@@u_detail@sol@@SAHPAUlua_State@@@Z 00000000100deeb0     LuaAPI.obj
 0001:000ddec0       ??$index_call@$0A@@?$usertype_storage@UPlayerInfo_t@@@u_detail@sol@@SAHPAUlua_State@@@Z 00000000100deec0     LuaAPI.obj
 0001:000dded0       ?data@?$binding@W4meta_function@sol@@U?$constructor_list@$$A6A?AUPlayerInfo_t@@XZ@2@UPlayerInfo_t@@@u_detail@sol@@UAEPAXXZ 00000000100deed0     LuaAPI.obj
 0001:000ddee0       ??_G?$binding@W4meta_function@sol@@U?$constructor_list@$$A6A?AUPlayerInfo_t@@XZ@2@UPlayerInfo_t@@@u_detail@sol@@UAEPAXI@Z 00000000100deee0     LuaAPI.obj
 0001:000ddf00       ?call@?$lua_call_wrapper@UPlayerInfo_t@@U?$constructor_list@$$A6A?AUPlayerInfo_t@@XZ@sol@@$00$0A@$0A@$0A@$00X@call_detail@sol@@SAHPAUlua_State@@AAU?$constructor_list@$$A6A?AUPlayerInfo_t@@XZ@3@@Z 00000000100def00     LuaAPI.obj
 0001:000de0d0       ??$usertype_allocate@UPlayerInfo_t@@@detail@sol@@YAPAUPlayerInfo_t@@PAUlua_State@@@Z 00000000100df0d0     LuaAPI.obj
 0001:000de3c0       ??$set_undefined_methods_on@UPlayerInfo_t@@@stack_detail@stack@sol@@YAXVstack_reference@2@@Z 00000000100df3c0     LuaAPI.obj
 0001:000de670       ??$call@$00$0A@@?$binding@W4meta_function@sol@@U?$constructor_list@$$A6A?AUPlayerInfo_t@@XZ@2@UPlayerInfo_t@@@u_detail@sol@@SAHPAUlua_State@@@Z 00000000100df670     LuaAPI.obj
 0001:000de680       ??$static_trampoline@$1??$call_@$00$0A@@?$binding@W4meta_function@sol@@U?$constructor_list@$$A6A?AUPlayerInfo_t@@XZ@2@UPlayerInfo_t@@@u_detail@sol@@SAHPAUlua_State@@@Z@detail@sol@@YAHPAUlua_State@@@Z 00000000100df680     LuaAPI.obj
 0001:000de7d0       ?call@?$lua_call_wrapper@UPlayerInfo_t@@U?$constructor_list@$$A6A?AUPlayerInfo_t@@XZ@sol@@$0A@$0A@$0A@$0A@$00X@call_detail@sol@@SAHPAUlua_State@@AAU?$constructor_list@$$A6A?AUPlayerInfo_t@@XZ@3@@Z 00000000100df7d0     LuaAPI.obj
 0001:000de9a0       ??$static_trampoline@$1??$call_@$0A@$0A@@?$binding@W4meta_function@sol@@U?$constructor_list@$$A6A?AUPlayerInfo_t@@XZ@2@UPlayerInfo_t@@@u_detail@sol@@SAHPAUlua_State@@@Z@detail@sol@@YAHPAUlua_State@@@Z 00000000100df9a0     LuaAPI.obj
 0001:000deaf0       ??$static_trampoline@$1??$index_call_@$0A@$0A@@?$usertype_storage@UPlayerInfo_t@@@u_detail@sol@@SAHPAUlua_State@@@Z@detail@sol@@YAHPAUlua_State@@@Z 00000000100dfaf0     LuaAPI.obj
 0001:000dec50       ??$traverse_set_deep@$00$0A@$0A@ABV?$basic_string@DU?$char_traits@D@std@@V?$allocator@D@2@@std@@AAV?$basic_usertype@UPlayerInfo_t@@V?$basic_reference@$0A@@sol@@@sol@@@?$basic_table_core@$00V?$basic_reference@$0A@@sol@@@sol@@ABEXHABV?$basic_string@DU?$char_traits@D@std@@V?$allocator@D@2@@std@@AAV?$basic_usertype@UPlayerInfo_t@@V?$basic_reference@$0A@@sol@@@1@@Z 00000000100dfc50     LuaAPI.obj
 0001:000decd0       ??$set@V?$basic_string@DU?$char_traits@D@std@@V?$allocator@D@2@@std@@PQPlayerInfo_t@@_N@?$basic_usertype@UPlayerInfo_t@@V?$basic_reference@$0A@@sol@@@sol@@QAEX$$QAV?$basic_string@DU?$char_traits@D@std@@V?$allocator@D@2@@std@@$$QAPQPlayerInfo_t@@_N@Z 00000000100dfcd0     LuaAPI.obj
 0001:000ded70       ??$set@V?$basic_string@DU?$char_traits@D@std@@V?$allocator@D@2@@std@@PQPlayerInfo_t@@E@?$basic_usertype@UPlayerInfo_t@@V?$basic_reference@$0A@@sol@@@sol@@QAEX$$QAV?$basic_string@DU?$char_traits@D@std@@V?$allocator@D@2@@std@@$$QAPQPlayerInfo_t@@E@Z 00000000100dfd70     LuaAPI.obj
 0001:000dee10       ??$set@V?$basic_string@DU?$char_traits@D@std@@V?$allocator@D@2@@std@@PQPlayerInfo_t@@K@?$basic_usertype@UPlayerInfo_t@@V?$basic_reference@$0A@@sol@@@sol@@QAEX$$QAV?$basic_string@DU?$char_traits@D@std@@V?$allocator@D@2@@std@@$$QAPQPlayerInfo_t@@K@Z 00000000100dfe10     LuaAPI.obj
 0001:000deeb0       ??$set@V?$basic_string@DU?$char_traits@D@std@@V?$allocator@D@2@@std@@PQPlayerInfo_t@@_J@?$basic_usertype@UPlayerInfo_t@@V?$basic_reference@$0A@@sol@@@sol@@QAEX$$QAV?$basic_string@DU?$char_traits@D@std@@V?$allocator@D@2@@std@@$$QAPQPlayerInfo_t@@_J@Z 00000000100dfeb0     LuaAPI.obj
 0001:000def50       ??$set@V?$basic_string@DU?$char_traits@D@std@@V?$allocator@D@2@@std@@PQPlayerInfo_t@@H@?$basic_usertype@UPlayerInfo_t@@V?$basic_reference@$0A@@sol@@@sol@@QAEX$$QAV?$basic_string@DU?$char_traits@D@std@@V?$allocator@D@2@@std@@$$QAPQPlayerInfo_t@@H@Z 00000000100dff50     LuaAPI.obj
 0001:000deff0       ??$set@UPlayerInfo_t@@V?$basic_string@DU?$char_traits@D@std@@V?$allocator@D@2@@std@@PQ1@_N@usertype_storage_base@u_detail@sol@@QAEXPAUlua_State@@$$QAV?$basic_string@DU?$char_traits@D@std@@V?$allocator@D@2@@std@@$$QAPQPlayerInfo_t@@_N@Z 00000000100dfff0     LuaAPI.obj
 0001:000df870       ??$call_with_@$00$00@?$binding@V?$basic_string@DU?$char_traits@D@std@@V?$allocator@D@2@@std@@PQPlayerInfo_t@@_NU3@@u_detail@sol@@SAHPAUlua_State@@PAX@Z 00000000100e0870     LuaAPI.obj
 0001:000df8e0       ??$index_call_with_@$00$00@?$binding@V?$basic_string@DU?$char_traits@D@std@@V?$allocator@D@2@@std@@PQPlayerInfo_t@@_NU3@@u_detail@sol@@SAHPAUlua_State@@PAX@Z 00000000100e08e0     LuaAPI.obj
 0001:000df950       ??$call_with_@$0A@$00@?$binding@V?$basic_string@DU?$char_traits@D@std@@V?$allocator@D@2@@std@@PQPlayerInfo_t@@_NU3@@u_detail@sol@@SAHPAUlua_State@@PAX@Z 00000000100e0950     LuaAPI.obj
 0001:000df9c0       ??$index_call_with_@$0A@$00@?$binding@V?$basic_string@DU?$char_traits@D@std@@V?$allocator@D@2@@std@@PQPlayerInfo_t@@_NU3@@u_detail@sol@@SAHPAUlua_State@@PAX@Z 00000000100e09c0     LuaAPI.obj
 0001:000dfa30       ??$call@$0A@$00@?$binding@V?$basic_string@DU?$char_traits@D@std@@V?$allocator@D@2@@std@@PQPlayerInfo_t@@_NU3@@u_detail@sol@@SAHPAUlua_State@@@Z 00000000100e0a30     LuaAPI.obj
 0001:000dfa40       ?data@?$binding@V?$basic_string@DU?$char_traits@D@std@@V?$allocator@D@2@@std@@PQPlayerInfo_t@@_NU3@@u_detail@sol@@UAEPAXXZ 00000000100e0a40     LuaAPI.obj
 0001:000dfa50       ??_G?$binding@V?$basic_string@DU?$char_traits@D@std@@V?$allocator@D@2@@std@@PQPlayerInfo_t@@_NU3@@u_detail@sol@@UAEPAXI@Z 00000000100e0a50     LuaAPI.obj
 0001:000dfa70       ??$static_trampoline@$1??$call_@$0A@$00@?$binding@V?$basic_string@DU?$char_traits@D@std@@V?$allocator@D@2@@std@@PQPlayerInfo_t@@_NU3@@u_detail@sol@@SAHPAUlua_State@@@Z@detail@sol@@YAHPAUlua_State@@@Z 00000000100e0a70     LuaAPI.obj
 0001:000dfc10       ??$traverse_set@V?$basic_string@DU?$char_traits@D@std@@V?$allocator@D@2@@std@@PQPlayerInfo_t@@_N@?$basic_table_core@$0A@V?$basic_reference@$0A@@sol@@@sol@@QAEAAV01@$$QAV?$basic_string@DU?$char_traits@D@std@@V?$allocator@D@2@@std@@$$QAPQPlayerInfo_t@@_N@Z 00000000100e0c10     LuaAPI.obj
 0001:000dfcd0       ?call@?$upvalue_this_member_variable@UPlayerInfo_t@@PQ1@_N$0A@@function_detail@sol@@SAHPAUlua_State@@@Z 00000000100e0cd0     LuaAPI.obj
 0001:000dfcf0       ?real_call@?$upvalue_this_member_variable@UPlayerInfo_t@@PQ1@_N$0A@@function_detail@sol@@SAHPAUlua_State@@@Z 00000000100e0cf0     LuaAPI.obj
 0001:000dfde0       ??$set@UPlayerInfo_t@@V?$basic_string@DU?$char_traits@D@std@@V?$allocator@D@2@@std@@PQ1@E@usertype_storage_base@u_detail@sol@@QAEXPAUlua_State@@$$QAV?$basic_string@DU?$char_traits@D@std@@V?$allocator@D@2@@std@@$$QAPQPlayerInfo_t@@E@Z 00000000100e0de0     LuaAPI.obj
 0001:000e0660       ??$call_with_@$00$00@?$binding@V?$basic_string@DU?$char_traits@D@std@@V?$allocator@D@2@@std@@PQPlayerInfo_t@@EU3@@u_detail@sol@@SAHPAUlua_State@@PAX@Z 00000000100e1660     LuaAPI.obj
 0001:000e06e0       ??$index_call_with_@$00$00@?$binding@V?$basic_string@DU?$char_traits@D@std@@V?$allocator@D@2@@std@@PQPlayerInfo_t@@EU3@@u_detail@sol@@SAHPAUlua_State@@PAX@Z 00000000100e16e0     LuaAPI.obj
 0001:000e0760       ??$call_with_@$0A@$00@?$binding@V?$basic_string@DU?$char_traits@D@std@@V?$allocator@D@2@@std@@PQPlayerInfo_t@@EU3@@u_detail@sol@@SAHPAUlua_State@@PAX@Z 00000000100e1760     LuaAPI.obj
 0001:000e07d0       ??$index_call_with_@$0A@$00@?$binding@V?$basic_string@DU?$char_traits@D@std@@V?$allocator@D@2@@std@@PQPlayerInfo_t@@EU3@@u_detail@sol@@SAHPAUlua_State@@PAX@Z 00000000100e17d0     LuaAPI.obj
 0001:000e0840       ??$call@$0A@$00@?$binding@V?$basic_string@DU?$char_traits@D@std@@V?$allocator@D@2@@std@@PQPlayerInfo_t@@EU3@@u_detail@sol@@SAHPAUlua_State@@@Z 00000000100e1840     LuaAPI.obj
 0001:000e0850       ?data@?$binding@V?$basic_string@DU?$char_traits@D@std@@V?$allocator@D@2@@std@@PQPlayerInfo_t@@EU3@@u_detail@sol@@UAEPAXXZ 00000000100e1850     LuaAPI.obj
 0001:000e0860       ??_G?$binding@V?$basic_string@DU?$char_traits@D@std@@V?$allocator@D@2@@std@@PQPlayerInfo_t@@EU3@@u_detail@sol@@UAEPAXI@Z 00000000100e1860     LuaAPI.obj
 0001:000e0880       ??$static_trampoline@$1??$call_@$0A@$00@?$binding@V?$basic_string@DU?$char_traits@D@std@@V?$allocator@D@2@@std@@PQPlayerInfo_t@@EU3@@u_detail@sol@@SAHPAUlua_State@@@Z@detail@sol@@YAHPAUlua_State@@@Z 00000000100e1880     LuaAPI.obj
 0001:000e0a30       ??$traverse_set@V?$basic_string@DU?$char_traits@D@std@@V?$allocator@D@2@@std@@PQPlayerInfo_t@@E@?$basic_table_core@$0A@V?$basic_reference@$0A@@sol@@@sol@@QAEAAV01@$$QAV?$basic_string@DU?$char_traits@D@std@@V?$allocator@D@2@@std@@$$QAPQPlayerInfo_t@@E@Z 00000000100e1a30     LuaAPI.obj
 0001:000e0af0       ?call@?$upvalue_this_member_variable@UPlayerInfo_t@@PQ1@E$0A@@function_detail@sol@@SAHPAUlua_State@@@Z 00000000100e1af0     LuaAPI.obj
 0001:000e0b10       ?real_call@?$upvalue_this_member_variable@UPlayerInfo_t@@PQ1@E$0A@@function_detail@sol@@SAHPAUlua_State@@@Z 00000000100e1b10     LuaAPI.obj
 0001:000e0c20       ??$set@UPlayerInfo_t@@V?$basic_string@DU?$char_traits@D@std@@V?$allocator@D@2@@std@@PQ1@K@usertype_storage_base@u_detail@sol@@QAEXPAUlua_State@@$$QAV?$basic_string@DU?$char_traits@D@std@@V?$allocator@D@2@@std@@$$QAPQPlayerInfo_t@@K@Z 00000000100e1c20     LuaAPI.obj
 0001:000e14a0       ??$call_with_@$00$00@?$binding@V?$basic_string@DU?$char_traits@D@std@@V?$allocator@D@2@@std@@PQPlayerInfo_t@@KU3@@u_detail@sol@@SAHPAUlua_State@@PAX@Z 00000000100e24a0     LuaAPI.obj
 0001:000e1530       ??$index_call_with_@$00$00@?$binding@V?$basic_string@DU?$char_traits@D@std@@V?$allocator@D@2@@std@@PQPlayerInfo_t@@KU3@@u_detail@sol@@SAHPAUlua_State@@PAX@Z 00000000100e2530     LuaAPI.obj
 0001:000e15c0       ??$call_with_@$0A@$00@?$binding@V?$basic_string@DU?$char_traits@D@std@@V?$allocator@D@2@@std@@PQPlayerInfo_t@@KU3@@u_detail@sol@@SAHPAUlua_State@@PAX@Z 00000000100e25c0     LuaAPI.obj
 0001:000e1630       ??$index_call_with_@$0A@$00@?$binding@V?$basic_string@DU?$char_traits@D@std@@V?$allocator@D@2@@std@@PQPlayerInfo_t@@KU3@@u_detail@sol@@SAHPAUlua_State@@PAX@Z 00000000100e2630     LuaAPI.obj
 0001:000e16a0       ??$call@$0A@$00@?$binding@V?$basic_string@DU?$char_traits@D@std@@V?$allocator@D@2@@std@@PQPlayerInfo_t@@KU3@@u_detail@sol@@SAHPAUlua_State@@@Z 00000000100e26a0     LuaAPI.obj
 0001:000e16b0       ?data@?$binding@V?$basic_string@DU?$char_traits@D@std@@V?$allocator@D@2@@std@@PQPlayerInfo_t@@KU3@@u_detail@sol@@UAEPAXXZ 00000000100e26b0     LuaAPI.obj
 0001:000e16c0       ??_G?$binding@V?$basic_string@DU?$char_traits@D@std@@V?$allocator@D@2@@std@@PQPlayerInfo_t@@KU3@@u_detail@sol@@UAEPAXI@Z 00000000100e26c0     LuaAPI.obj
 0001:000e16e0       ??$static_trampoline@$1??$call_@$0A@$00@?$binding@V?$basic_string@DU?$char_traits@D@std@@V?$allocator@D@2@@std@@PQPlayerInfo_t@@KU3@@u_detail@sol@@SAHPAUlua_State@@@Z@detail@sol@@YAHPAUlua_State@@@Z 00000000100e26e0     LuaAPI.obj
 0001:000e1890       ??$traverse_set@V?$basic_string@DU?$char_traits@D@std@@V?$allocator@D@2@@std@@PQPlayerInfo_t@@K@?$basic_table_core@$0A@V?$basic_reference@$0A@@sol@@@sol@@QAEAAV01@$$QAV?$basic_string@DU?$char_traits@D@std@@V?$allocator@D@2@@std@@$$QAPQPlayerInfo_t@@K@Z 00000000100e2890     LuaAPI.obj
 0001:000e1950       ?call@?$upvalue_this_member_variable@UPlayerInfo_t@@PQ1@K$0A@@function_detail@sol@@SAHPAUlua_State@@@Z 00000000100e2950     LuaAPI.obj
 0001:000e1970       ?real_call@?$upvalue_this_member_variable@UPlayerInfo_t@@PQ1@K$0A@@function_detail@sol@@SAHPAUlua_State@@@Z 00000000100e2970     LuaAPI.obj
 0001:000e1a80       ??$set@UPlayerInfo_t@@V?$basic_string@DU?$char_traits@D@std@@V?$allocator@D@2@@std@@PQ1@_J@usertype_storage_base@u_detail@sol@@QAEXPAUlua_State@@$$QAV?$basic_string@DU?$char_traits@D@std@@V?$allocator@D@2@@std@@$$QAPQPlayerInfo_t@@_J@Z 00000000100e2a80     LuaAPI.obj
 0001:000e2300       ??$call_with_@$00$00@?$binding@V?$basic_string@DU?$char_traits@D@std@@V?$allocator@D@2@@std@@PQPlayerInfo_t@@_JU3@@u_detail@sol@@SAHPAUlua_State@@PAX@Z 00000000100e3300     LuaAPI.obj
 0001:000e2390       ??$index_call_with_@$00$00@?$binding@V?$basic_string@DU?$char_traits@D@std@@V?$allocator@D@2@@std@@PQPlayerInfo_t@@_JU3@@u_detail@sol@@SAHPAUlua_State@@PAX@Z 00000000100e3390     LuaAPI.obj
 0001:000e2420       ??$call_with_@$0A@$00@?$binding@V?$basic_string@DU?$char_traits@D@std@@V?$allocator@D@2@@std@@PQPlayerInfo_t@@_JU3@@u_detail@sol@@SAHPAUlua_State@@PAX@Z 00000000100e3420     LuaAPI.obj
 0001:000e24a0       ??$index_call_with_@$0A@$00@?$binding@V?$basic_string@DU?$char_traits@D@std@@V?$allocator@D@2@@std@@PQPlayerInfo_t@@_JU3@@u_detail@sol@@SAHPAUlua_State@@PAX@Z 00000000100e34a0     LuaAPI.obj
 0001:000e2520       ??$call@$0A@$00@?$binding@V?$basic_string@DU?$char_traits@D@std@@V?$allocator@D@2@@std@@PQPlayerInfo_t@@_JU3@@u_detail@sol@@SAHPAUlua_State@@@Z 00000000100e3520     LuaAPI.obj
 0001:000e2530       ?data@?$binding@V?$basic_string@DU?$char_traits@D@std@@V?$allocator@D@2@@std@@PQPlayerInfo_t@@_JU3@@u_detail@sol@@UAEPAXXZ 00000000100e3530     LuaAPI.obj
 0001:000e2540       ??_G?$binding@V?$basic_string@DU?$char_traits@D@std@@V?$allocator@D@2@@std@@PQPlayerInfo_t@@_JU3@@u_detail@sol@@UAEPAXI@Z 00000000100e3540     LuaAPI.obj
 0001:000e2560       ??$static_trampoline@$1??$call_@$0A@$00@?$binding@V?$basic_string@DU?$char_traits@D@std@@V?$allocator@D@2@@std@@PQPlayerInfo_t@@_JU3@@u_detail@sol@@SAHPAUlua_State@@@Z@detail@sol@@YAHPAUlua_State@@@Z 00000000100e3560     LuaAPI.obj
 0001:000e2710       ??$traverse_set@V?$basic_string@DU?$char_traits@D@std@@V?$allocator@D@2@@std@@PQPlayerInfo_t@@_J@?$basic_table_core@$0A@V?$basic_reference@$0A@@sol@@@sol@@QAEAAV01@$$QAV?$basic_string@DU?$char_traits@D@std@@V?$allocator@D@2@@std@@$$QAPQPlayerInfo_t@@_J@Z 00000000100e3710     LuaAPI.obj
 0001:000e27d0       ?call@?$upvalue_this_member_variable@UPlayerInfo_t@@PQ1@_J$0A@@function_detail@sol@@SAHPAUlua_State@@@Z 00000000100e37d0     LuaAPI.obj
 0001:000e27f0       ?real_call@?$upvalue_this_member_variable@UPlayerInfo_t@@PQ1@_J$0A@@function_detail@sol@@SAHPAUlua_State@@@Z 00000000100e37f0     LuaAPI.obj
 0001:000e2910       ??$set@UPlayerInfo_t@@V?$basic_string@DU?$char_traits@D@std@@V?$allocator@D@2@@std@@PQ1@H@usertype_storage_base@u_detail@sol@@QAEXPAUlua_State@@$$QAV?$basic_string@DU?$char_traits@D@std@@V?$allocator@D@2@@std@@$$QAPQPlayerInfo_t@@H@Z 00000000100e3910     LuaAPI.obj
 0001:000e3190       ??$call_with_@$00$00@?$binding@V?$basic_string@DU?$char_traits@D@std@@V?$allocator@D@2@@std@@PQPlayerInfo_t@@HU3@@u_detail@sol@@SAHPAUlua_State@@PAX@Z 00000000100e4190     LuaAPI.obj
 0001:000e3210       ??$index_call_with_@$00$00@?$binding@V?$basic_string@DU?$char_traits@D@std@@V?$allocator@D@2@@std@@PQPlayerInfo_t@@HU3@@u_detail@sol@@SAHPAUlua_State@@PAX@Z 00000000100e4210     LuaAPI.obj
 0001:000e3290       ??$call_with_@$0A@$00@?$binding@V?$basic_string@DU?$char_traits@D@std@@V?$allocator@D@2@@std@@PQPlayerInfo_t@@HU3@@u_detail@sol@@SAHPAUlua_State@@PAX@Z 00000000100e4290     LuaAPI.obj
 0001:000e3300       ??$index_call_with_@$0A@$00@?$binding@V?$basic_string@DU?$char_traits@D@std@@V?$allocator@D@2@@std@@PQPlayerInfo_t@@HU3@@u_detail@sol@@SAHPAUlua_State@@PAX@Z 00000000100e4300     LuaAPI.obj
 0001:000e3370       ??$call@$0A@$00@?$binding@V?$basic_string@DU?$char_traits@D@std@@V?$allocator@D@2@@std@@PQPlayerInfo_t@@HU3@@u_detail@sol@@SAHPAUlua_State@@@Z 00000000100e4370     LuaAPI.obj
 0001:000e3380       ?data@?$binding@V?$basic_string@DU?$char_traits@D@std@@V?$allocator@D@2@@std@@PQPlayerInfo_t@@HU3@@u_detail@sol@@UAEPAXXZ 00000000100e4380     LuaAPI.obj
 0001:000e3390       ??_G?$binding@V?$basic_string@DU?$char_traits@D@std@@V?$allocator@D@2@@std@@PQPlayerInfo_t@@HU3@@u_detail@sol@@UAEPAXI@Z 00000000100e4390     LuaAPI.obj
 0001:000e33b0       ??$static_trampoline@$1??$call_@$0A@$00@?$binding@V?$basic_string@DU?$char_traits@D@std@@V?$allocator@D@2@@std@@PQPlayerInfo_t@@HU3@@u_detail@sol@@SAHPAUlua_State@@@Z@detail@sol@@YAHPAUlua_State@@@Z 00000000100e43b0     LuaAPI.obj
 0001:000e3560       ??$traverse_set@V?$basic_string@DU?$char_traits@D@std@@V?$allocator@D@2@@std@@PQPlayerInfo_t@@H@?$basic_table_core@$0A@V?$basic_reference@$0A@@sol@@@sol@@QAEAAV01@$$QAV?$basic_string@DU?$char_traits@D@std@@V?$allocator@D@2@@std@@$$QAPQPlayerInfo_t@@H@Z 00000000100e4560     LuaAPI.obj
 0001:000e3620       ?call@?$upvalue_this_member_variable@UPlayerInfo_t@@PQ1@H$0A@@function_detail@sol@@SAHPAUlua_State@@@Z 00000000100e4620     LuaAPI.obj
 0001:000e3640       ?real_call@?$upvalue_this_member_variable@UPlayerInfo_t@@PQ1@H$0A@@function_detail@sol@@SAHPAUlua_State@@@Z 00000000100e4640     LuaAPI.obj
 0001:000e3740       ??$new_usertype@VConVar@@ABV?$basic_string@DU?$char_traits@D@std@@V?$allocator@D@2@@std@@V23@P81@BEPBDXZV23@P81@BEMXZV23@P81@BEHXZV23@P81@AEXPBD@ZV23@P81@AEXM@ZV23@P81@AEXH@ZX@?$basic_table_core@$00V?$basic_reference@$0A@@sol@@@sol@@QAE?AV?$basic_usertype@VConVar@@V?$basic_reference@$0A@@sol@@@1@ABV?$basic_string@DU?$char_traits@D@std@@V?$allocator@D@2@@std@@$$QAV34@$$QAP8ConVar@@BEPBDXZ1$$QAP85@BEMXZ1$$QAP85@BEHXZ1$$QAP85@AEXPBD@Z1$$QAP85@AEXM@Z1$$QAP85@AEXH@Z@Z 00000000100e4740     LuaAPI.obj
 0001:000e3850       ??$new_usertype@VConVar@@ABV?$basic_string@DU?$char_traits@D@std@@V?$allocator@D@2@@std@@@?$basic_table_core@$00V?$basic_reference@$0A@@sol@@@sol@@QAE?AV?$basic_usertype@VConVar@@V?$basic_reference@$0A@@sol@@@1@ABV?$basic_string@DU?$char_traits@D@std@@V?$allocator@D@2@@std@@Uautomagic_enrollments@1@@Z 00000000100e4850     LuaAPI.obj
 0001:000e3960       ??$register_usertype@VConVar@@@u_detail@sol@@YAHPAUlua_State@@Uautomagic_enrollments@1@@Z 00000000100e4960     LuaAPI.obj
 0001:000e3d80       ??$delete_usertype_storage@VConVar@@@u_detail@sol@@YAXPAUlua_State@@@Z 00000000100e4d80     LuaAPI.obj
 0001:000e3e10       ??$create_usertype_storage@VConVar@@@u_detail@sol@@YAAAU?$usertype_storage@VConVar@@@01@PAUlua_State@@@Z 00000000100e4e10     LuaAPI.obj
 0001:000e3f10       ?gc_table@?$usertype_traits@VConVar@@@sol@@SAABV?$basic_string@DU?$char_traits@D@std@@V?$allocator@D@2@@std@@XZ 00000000100e4f10     LuaAPI.obj
 0001:000e4300       ?metatable@?$usertype_traits@$$CBVConVar@@@sol@@SAABV?$basic_string@DU?$char_traits@D@std@@V?$allocator@D@2@@std@@XZ 00000000100e5300     LuaAPI.obj
 0001:000e4680       ?metatable@?$usertype_traits@PBVConVar@@@sol@@SAABV?$basic_string@DU?$char_traits@D@std@@V?$allocator@D@2@@std@@XZ 00000000100e5680     LuaAPI.obj
 0001:000e4a00       ?metatable@?$usertype_traits@PAVConVar@@@sol@@SAABV?$basic_string@DU?$char_traits@D@std@@V?$allocator@D@2@@std@@XZ 00000000100e5a00     LuaAPI.obj
 0001:000e4d80       ?metatable@?$usertype_traits@U?$unique_usertype@VConVar@@@detail@sol@@@sol@@SAABV?$basic_string@DU?$char_traits@D@std@@V?$allocator@D@2@@std@@XZ 00000000100e5d80     LuaAPI.obj
 0001:000e5100       ?metatable@?$usertype_traits@VConVar@@@sol@@SAABV?$basic_string@DU?$char_traits@D@std@@V?$allocator@D@2@@std@@XZ 00000000100e6100     LuaAPI.obj
 0001:000e5480       ??$is_check@VConVar@@@detail@sol@@YAHPAUlua_State@@@Z 00000000100e6480     LuaAPI.obj
 0001:000e5500       ??$destruct_usertype_storage@VConVar@@@u_detail@sol@@YAHPAUlua_State@@@Z 00000000100e6500     LuaAPI.obj
 0001:000e5520       ?user_gc_metatable@?$usertype_traits@U?$usertype_storage@VConVar@@@u_detail@sol@@@sol@@SAABV?$basic_string@DU?$char_traits@D@std@@V?$allocator@D@2@@std@@XZ 00000000100e6520     LuaAPI.obj
 0001:000e5910       ??$ctti_get_type_name@U?$usertype_storage@VConVar@@@u_detail@sol@@@detail@sol@@YA?AV?$basic_string@DU?$char_traits@D@std@@V?$allocator@D@2@@std@@XZ 00000000100e6910     LuaAPI.obj
 0001:000e59a0       ??$user_allocate@U?$usertype_storage@VConVar@@@u_detail@sol@@@detail@sol@@YAPAU?$usertype_storage@VConVar@@@u_detail@1@PAUlua_State@@@Z 00000000100e69a0     LuaAPI.obj
 0001:000e5bc0       ??$ctti_get_type_name@$$CBVConVar@@@detail@sol@@YA?AV?$basic_string@DU?$char_traits@D@std@@V?$allocator@D@2@@std@@XZ 00000000100e6bc0     LuaAPI.obj
 0001:000e5c50       ??$ctti_get_type_name@PBVConVar@@@detail@sol@@YA?AV?$basic_string@DU?$char_traits@D@std@@V?$allocator@D@2@@std@@XZ 00000000100e6c50     LuaAPI.obj
 0001:000e5ce0       ??$ctti_get_type_name@PAVConVar@@@detail@sol@@YA?AV?$basic_string@DU?$char_traits@D@std@@V?$allocator@D@2@@std@@XZ 00000000100e6ce0     LuaAPI.obj
 0001:000e5d70       ??$ctti_get_type_name@U?$unique_usertype@VConVar@@@detail@sol@@@detail@sol@@YA?AV?$basic_string@DU?$char_traits@D@std@@V?$allocator@D@2@@std@@XZ 00000000100e6d70     LuaAPI.obj
 0001:000e5e00       ??$ctti_get_type_name@VConVar@@@detail@sol@@YA?AV?$basic_string@DU?$char_traits@D@std@@V?$allocator@D@2@@std@@XZ 00000000100e6e00     LuaAPI.obj
 0001:000e5e90       ??$check@VConVar@@P6AHPAUlua_State@@HW4type@sol@@1PBD@_E@?$unqualified_checker@U?$as_value_tag@VConVar@@@detail@sol@@$06X@stack@sol@@SA_NU?$types@VConVar@@@2@PAUlua_State@@HW4type@2@$$QAP6AH1H22PBD@_EAAUrecord@12@@Z 00000000100e6e90     LuaAPI.obj
 0001:000e6180       ?qualified_name@?$usertype_traits@VConVar@@@sol@@SAABV?$basic_string@DU?$char_traits@D@std@@V?$allocator@D@2@@std@@XZ 00000000100e7180     LuaAPI.obj
 0001:000e62b0       ?metatable@?$usertype_traits@U?$as_container_t@VConVar@@@sol@@@sol@@SAABV?$basic_string@DU?$char_traits@D@std@@V?$allocator@D@2@@std@@XZ 00000000100e72b0     LuaAPI.obj
 0001:000e6630       ??$ctti_get_type_name@U?$as_container_t@VConVar@@@sol@@@detail@sol@@YA?AV?$basic_string@DU?$char_traits@D@std@@V?$allocator@D@2@@std@@XZ 00000000100e7630     LuaAPI.obj
 0001:000e66c0       ??R<lambda_1>@?0???$register_usertype@VConVar@@@u_detail@sol@@YAHPAUlua_State@@Uautomagic_enrollments@2@@Z@QBE?A?<auto>@@0W4submetatable_type@12@AAV?$basic_reference@$0A@@2@@Z 00000000100e76c0     LuaAPI.obj
 0001:000e6cb0       ?user_metatable@?$usertype_traits@VConVar@@@sol@@SAABV?$basic_string@DU?$char_traits@D@std@@V?$allocator@D@2@@std@@XZ 00000000100e7cb0     LuaAPI.obj
 0001:000e70a0       ??$unique_destruct@VConVar@@@detail@sol@@YAHPAUlua_State@@@Z 00000000100e80a0     LuaAPI.obj
 0001:000e70e0       ?type_check@?$inheritance@VConVar@@@detail@sol@@SA_NABV?$basic_string_view@DU?$char_traits@D@std@@@std@@@Z 00000000100e80e0     LuaAPI.obj
 0001:000e7120       ?type_cast@?$inheritance@VConVar@@@detail@sol@@SAPAXPAXABV?$basic_string_view@DU?$char_traits@D@std@@@std@@@Z 00000000100e8120     LuaAPI.obj
 0001:000e7160       ??$insert_default_registrations@VConVar@@AAV<lambda_1>@?0???R2?0???$register_usertype@VConVar@@@u_detail@sol@@YAHPAUlua_State@@Uautomagic_enrollments@4@@Z@QBE?A?<auto>@@0W4submetatable_type@34@AAV?$basic_reference@$0A@@4@@Z@AAUproperties_enrollment_allowed@detail@4@@detail@sol@@YAXAAV<lambda_1>@?0???R2?0???$register_usertype@VConVar@@@u_detail@1@YAHPAUlua_State@@Uautomagic_enrollments@1@@Z@QBE?A?<auto>@@0W4submetatable_type@31@AAV?$basic_reference@$0A@@1@@Z@AAUproperties_enrollment_allowed@01@@Z 00000000100e8160     LuaAPI.obj
 0001:000e72a0       ??$meta_index_call@$0A@@?$usertype_storage@VConVar@@@u_detail@sol@@SAHPAUlua_State@@@Z 00000000100e82a0     LuaAPI.obj
 0001:000e72b0       ??$meta_index_call@$00@?$usertype_storage@VConVar@@@u_detail@sol@@SAHPAUlua_State@@@Z 00000000100e82b0     LuaAPI.obj
 0001:000e72c0       ??$index_call@$00@?$usertype_storage@VConVar@@@u_detail@sol@@SAHPAUlua_State@@@Z 00000000100e82c0     LuaAPI.obj
 0001:000e72d0       ??$usertype_alloc_destruct@VConVar@@@detail@sol@@YAHPAUlua_State@@@Z 00000000100e82d0     LuaAPI.obj
 0001:000e7300       ??$comparsion_operator_wrap@VConVar@@Uno_comp@detail@sol@@@detail@sol@@YAHPAUlua_State@@@Z 00000000100e8300     LuaAPI.obj
 0001:000e73a0       ?pairs_call@?$u_c_launch@U?$as_container_t@VConVar@@@sol@@@container_detail@sol@@SAHPAUlua_State@@@Z 00000000100e83a0     LuaAPI.obj
 0001:000e73b0       ??$get_using@V?$optional@AAVConVar@@@sol@@AAP6AHPAUlua_State@@HW4type@2@1PBD@_E@?$unqualified_check_getter@VConVar@@X@stack@sol@@SA?AV?$optional@AAVConVar@@@2@PAUlua_State@@HAAP6AH0HW4type@2@1PBD@_EAAUrecord@12@@Z 00000000100e83b0     LuaAPI.obj
 0001:000e7460       ??$check@VConVar@@AAP6AHPAUlua_State@@HW4type@sol@@1PBD@_E@?$unqualified_checker@U?$as_value_tag@VConVar@@@detail@sol@@$06X@stack@sol@@SA_NU?$types@VConVar@@@2@PAUlua_State@@HW4type@2@AAP6AH1H22PBD@_EAAUrecord@12@@Z 00000000100e8460     LuaAPI.obj
 0001:000e7750       ?get_no_lua_nil_from@?$unqualified_getter@U?$as_value_tag@VConVar@@@detail@sol@@X@stack@sol@@SAPAVConVar@@PAUlua_State@@PAXHAAUrecord@23@@Z 00000000100e8750     LuaAPI.obj
 0001:000e77f0       ??$static_trampoline@$1?real_pairs_call@?$u_c_launch@U?$as_container_t@VConVar@@@sol@@@container_detail@sol@@SAHPAUlua_State@@@Z@detail@sol@@YAHPAUlua_State@@@Z 00000000100e87f0     LuaAPI.obj
 0001:000e79c0       ??$static_trampoline@$1??$index_call_@$0A@$00@?$usertype_storage@VConVar@@@u_detail@sol@@SAHPAUlua_State@@@Z@detail@sol@@YAHPAUlua_State@@@Z 00000000100e89c0     LuaAPI.obj
 0001:000e7b20       ??$static_trampoline@$1??$index_call_@$00$00@?$usertype_storage@VConVar@@@u_detail@sol@@SAHPAUlua_State@@@Z@detail@sol@@YAHPAUlua_State@@@Z 00000000100e8b20     LuaAPI.obj
 0001:000e7c80       ??$static_trampoline@$1??$index_call_@$00$0A@@?$usertype_storage@VConVar@@@u_detail@sol@@SAHPAUlua_State@@@Z@detail@sol@@YAHPAUlua_State@@@Z 00000000100e8c80     LuaAPI.obj
 0001:000e7de0       ??$traverse_set_deep@$00$0A@$0A@ABV?$basic_string@DU?$char_traits@D@std@@V?$allocator@D@2@@std@@AAV?$basic_usertype@VConVar@@V?$basic_reference@$0A@@sol@@@sol@@@?$basic_table_core@$00V?$basic_reference@$0A@@sol@@@sol@@ABEXHABV?$basic_string@DU?$char_traits@D@std@@V?$allocator@D@2@@std@@AAV?$basic_usertype@VConVar@@V?$basic_reference@$0A@@sol@@@1@@Z 00000000100e8de0     LuaAPI.obj
 0001:000e7e60       ??$set@V?$basic_string@DU?$char_traits@D@std@@V?$allocator@D@2@@std@@P8ConVar@@BEPBDXZ@?$basic_usertype@VConVar@@V?$basic_reference@$0A@@sol@@@sol@@QAEX$$QAV?$basic_string@DU?$char_traits@D@std@@V?$allocator@D@2@@std@@$$QAP8ConVar@@BEPBDXZ@Z 00000000100e8e60     LuaAPI.obj
 0001:000e7f00       ??$set@V?$basic_string@DU?$char_traits@D@std@@V?$allocator@D@2@@std@@P8ConVar@@BEMXZ@?$basic_usertype@VConVar@@V?$basic_reference@$0A@@sol@@@sol@@QAEX$$QAV?$basic_string@DU?$char_traits@D@std@@V?$allocator@D@2@@std@@$$QAP8ConVar@@BEMXZ@Z 00000000100e8f00     LuaAPI.obj
 0001:000e7fa0       ??$set@V?$basic_string@DU?$char_traits@D@std@@V?$allocator@D@2@@std@@P8ConVar@@BEHXZ@?$basic_usertype@VConVar@@V?$basic_reference@$0A@@sol@@@sol@@QAEX$$QAV?$basic_string@DU?$char_traits@D@std@@V?$allocator@D@2@@std@@$$QAP8ConVar@@BEHXZ@Z 00000000100e8fa0     LuaAPI.obj
 0001:000e8040       ??$set@V?$basic_string@DU?$char_traits@D@std@@V?$allocator@D@2@@std@@P8ConVar@@AEXPBD@Z@?$basic_usertype@VConVar@@V?$basic_reference@$0A@@sol@@@sol@@QAEX$$QAV?$basic_string@DU?$char_traits@D@std@@V?$allocator@D@2@@std@@$$QAP8ConVar@@AEXPBD@Z@Z 00000000100e9040     LuaAPI.obj
 0001:000e80e0       ??$set@V?$basic_string@DU?$char_traits@D@std@@V?$allocator@D@2@@std@@P8ConVar@@AEXM@Z@?$basic_usertype@VConVar@@V?$basic_reference@$0A@@sol@@@sol@@QAEX$$QAV?$basic_string@DU?$char_traits@D@std@@V?$allocator@D@2@@std@@$$QAP8ConVar@@AEXM@Z@Z 00000000100e90e0     LuaAPI.obj
 0001:000e8180       ??$set@V?$basic_string@DU?$char_traits@D@std@@V?$allocator@D@2@@std@@P8ConVar@@AEXH@Z@?$basic_usertype@VConVar@@V?$basic_reference@$0A@@sol@@@sol@@QAEX$$QAV?$basic_string@DU?$char_traits@D@std@@V?$allocator@D@2@@std@@$$QAP8ConVar@@AEXH@Z@Z 00000000100e9180     LuaAPI.obj
 0001:000e8220       ??$set@VConVar@@V?$basic_string@DU?$char_traits@D@std@@V?$allocator@D@2@@std@@P81@BEPBDXZ@usertype_storage_base@u_detail@sol@@QAEXPAUlua_State@@$$QAV?$basic_string@DU?$char_traits@D@std@@V?$allocator@D@2@@std@@$$QAP8ConVar@@BEPBDXZ@Z 00000000100e9220     LuaAPI.obj
 0001:000e8aa0       ??$call_with_@$00$0A@@?$binding@V?$basic_string@DU?$char_traits@D@std@@V?$allocator@D@2@@std@@P8ConVar@@BEPBDXZV3@@u_detail@sol@@SAHPAUlua_State@@PAX@Z 00000000100e9aa0     LuaAPI.obj
 0001:000e8af0       ??$index_call_with_@$00$0A@@?$binding@V?$basic_string@DU?$char_traits@D@std@@V?$allocator@D@2@@std@@P8ConVar@@BEPBDXZV3@@u_detail@sol@@SAHPAUlua_State@@PAX@Z 00000000100e9af0     LuaAPI.obj
 0001:000e8b30       ??$call_with_@$0A@$0A@@?$binding@V?$basic_string@DU?$char_traits@D@std@@V?$allocator@D@2@@std@@P8ConVar@@BEPBDXZV3@@u_detail@sol@@SAHPAUlua_State@@PAX@Z 00000000100e9b30     LuaAPI.obj
 0001:000e8b80       ??$index_call_with_@$0A@$0A@@?$binding@V?$basic_string@DU?$char_traits@D@std@@V?$allocator@D@2@@std@@P8ConVar@@BEPBDXZV3@@u_detail@sol@@SAHPAUlua_State@@PAX@Z 00000000100e9b80     LuaAPI.obj
 0001:000e8bc0       ??$call@$0A@$0A@@?$binding@V?$basic_string@DU?$char_traits@D@std@@V?$allocator@D@2@@std@@P8ConVar@@BEPBDXZV3@@u_detail@sol@@SAHPAUlua_State@@@Z 00000000100e9bc0     LuaAPI.obj
 0001:000e8bd0       ??$index_call@$0A@@?$usertype_storage@VConVar@@@u_detail@sol@@SAHPAUlua_State@@@Z 00000000100e9bd0     LuaAPI.obj
 0001:000e8be0       ?data@?$binding@V?$basic_string@DU?$char_traits@D@std@@V?$allocator@D@2@@std@@P8ConVar@@BEPBDXZV3@@u_detail@sol@@UAEPAXXZ 00000000100e9be0     LuaAPI.obj
 0001:000e8bf0       ??_G?$binding@V?$basic_string@DU?$char_traits@D@std@@V?$allocator@D@2@@std@@P8ConVar@@BEPBDXZV3@@u_detail@sol@@UAEPAXI@Z 00000000100e9bf0     LuaAPI.obj
 0001:000e8c10       ??$call@AAP8ConVar@@BEPBDXZAAV1@@?$lua_call_wrapper@VConVar@@P81@BEPBDXZ$00$0A@$0A@$0A@$00X@call_detail@sol@@SAHPAUlua_State@@AAP8ConVar@@BEPBDXZAAV4@@Z 00000000100e9c10     LuaAPI.obj
 0001:000e8c80       ??$call@$00$0A@@?$binding@V?$basic_string@DU?$char_traits@D@std@@V?$allocator@D@2@@std@@P8ConVar@@BEPBDXZV3@@u_detail@sol@@SAHPAUlua_State@@@Z 00000000100e9c80     LuaAPI.obj
 0001:000e8c90       ??$static_trampoline@$1??$call_@$00$0A@@?$binding@V?$basic_string@DU?$char_traits@D@std@@V?$allocator@D@2@@std@@P8ConVar@@BEPBDXZV3@@u_detail@sol@@SAHPAUlua_State@@@Z@detail@sol@@YAHPAUlua_State@@@Z 00000000100e9c90     LuaAPI.obj
 0001:000e8e20       ??$call@AAP8ConVar@@BEPBDXZAAV1@@?$lua_call_wrapper@VConVar@@P81@BEPBDXZ$0A@$0A@$0A@$0A@$00X@call_detail@sol@@SAHPAUlua_State@@AAP8ConVar@@BEPBDXZAAV4@@Z 00000000100e9e20     LuaAPI.obj
 0001:000e8e90       ??$static_trampoline@$1??$call_@$0A@$0A@@?$binding@V?$basic_string@DU?$char_traits@D@std@@V?$allocator@D@2@@std@@P8ConVar@@BEPBDXZV3@@u_detail@sol@@SAHPAUlua_State@@@Z@detail@sol@@YAHPAUlua_State@@@Z 00000000100e9e90     LuaAPI.obj
 0001:000e9020       ??$static_trampoline@$1??$index_call_@$0A@$0A@@?$usertype_storage@VConVar@@@u_detail@sol@@SAHPAUlua_State@@@Z@detail@sol@@YAHPAUlua_State@@@Z 00000000100ea020     LuaAPI.obj
 0001:000e9180       ??$traverse_set@V?$basic_string@DU?$char_traits@D@std@@V?$allocator@D@2@@std@@P8ConVar@@BEPBDXZ@?$basic_table_core@$0A@V?$basic_reference@$0A@@sol@@@sol@@QAEAAV01@$$QAV?$basic_string@DU?$char_traits@D@std@@V?$allocator@D@2@@std@@$$QAP8ConVar@@BEPBDXZ@Z 00000000100ea180     LuaAPI.obj
 0001:000e92d0       ?call@?$upvalue_this_member_function@VConVar@@P81@BEPBDXZ$0A@@function_detail@sol@@SAHPAUlua_State@@@Z 00000000100ea2d0     LuaAPI.obj
 0001:000e92e0       ??$static_trampoline@$1?real_call@?$upvalue_this_member_function@VConVar@@P81@BEPBDXZ$0A@@function_detail@sol@@SAHPAUlua_State@@@Z@detail@sol@@YAHPAUlua_State@@@Z 00000000100ea2e0     LuaAPI.obj
 0001:000e9470       ?user_gc_metatable@?$usertype_traits@P8ConVar@@BEPBDXZ@sol@@SAABV?$basic_string@DU?$char_traits@D@std@@V?$allocator@D@2@@std@@XZ 00000000100ea470     LuaAPI.obj
 0001:000e9860       ??$push_with@$00ABQBDP8ConVar@@BEPBDXZ@?$unqualified_pusher@U?$user@P8ConVar@@BEPBDXZ@sol@@X@stack@sol@@SAHPAUlua_State@@ABQBD$$QAP8ConVar@@BEPBDXZ@Z 00000000100ea860     LuaAPI.obj
 0001:000e9900       ??$ctti_get_type_name@P8ConVar@@BEPBDXZ@detail@sol@@YA?AV?$basic_string@DU?$char_traits@D@std@@V?$allocator@D@2@@std@@XZ 00000000100ea900     LuaAPI.obj
 0001:000e9990       ??$user_allocate@P8ConVar@@BEPBDXZ@detail@sol@@YAPAP8ConVar@@BEPBDXZPAUlua_State@@@Z 00000000100ea990     LuaAPI.obj
 0001:000e9ba0       ??$user_alloc_destruct@P8ConVar@@BEPBDXZ@detail@sol@@YAHPAUlua_State@@@Z 00000000100eaba0     LuaAPI.obj
 0001:000e9bc0       ??$set@VConVar@@V?$basic_string@DU?$char_traits@D@std@@V?$allocator@D@2@@std@@P81@BEMXZ@usertype_storage_base@u_detail@sol@@QAEXPAUlua_State@@$$QAV?$basic_string@DU?$char_traits@D@std@@V?$allocator@D@2@@std@@$$QAP8ConVar@@BEMXZ@Z 00000000100eabc0     LuaAPI.obj
 0001:000ea440       ??$call_with_@$00$0A@@?$binding@V?$basic_string@DU?$char_traits@D@std@@V?$allocator@D@2@@std@@P8ConVar@@BEMXZV3@@u_detail@sol@@SAHPAUlua_State@@PAX@Z 00000000100eb440     LuaAPI.obj
 0001:000ea4c0       ??$index_call_with_@$00$0A@@?$binding@V?$basic_string@DU?$char_traits@D@std@@V?$allocator@D@2@@std@@P8ConVar@@BEMXZV3@@u_detail@sol@@SAHPAUlua_State@@PAX@Z 00000000100eb4c0     LuaAPI.obj
 0001:000ea500       ??$call_with_@$0A@$0A@@?$binding@V?$basic_string@DU?$char_traits@D@std@@V?$allocator@D@2@@std@@P8ConVar@@BEMXZV3@@u_detail@sol@@SAHPAUlua_State@@PAX@Z 00000000100eb500     LuaAPI.obj
 0001:000ea580       ??$index_call_with_@$0A@$0A@@?$binding@V?$basic_string@DU?$char_traits@D@std@@V?$allocator@D@2@@std@@P8ConVar@@BEMXZV3@@u_detail@sol@@SAHPAUlua_State@@PAX@Z 00000000100eb580     LuaAPI.obj
 0001:000ea5c0       ??$call@$0A@$0A@@?$binding@V?$basic_string@DU?$char_traits@D@std@@V?$allocator@D@2@@std@@P8ConVar@@BEMXZV3@@u_detail@sol@@SAHPAUlua_State@@@Z 00000000100eb5c0     LuaAPI.obj
 0001:000ea5d0       ?data@?$binding@V?$basic_string@DU?$char_traits@D@std@@V?$allocator@D@2@@std@@P8ConVar@@BEMXZV3@@u_detail@sol@@UAEPAXXZ 00000000100eb5d0     LuaAPI.obj
 0001:000ea5e0       ??_G?$binding@V?$basic_string@DU?$char_traits@D@std@@V?$allocator@D@2@@std@@P8ConVar@@BEMXZV3@@u_detail@sol@@UAEPAXI@Z 00000000100eb5e0     LuaAPI.obj
 0001:000ea600       ??$call@$00$0A@@?$binding@V?$basic_string@DU?$char_traits@D@std@@V?$allocator@D@2@@std@@P8ConVar@@BEMXZV3@@u_detail@sol@@SAHPAUlua_State@@@Z 00000000100eb600     LuaAPI.obj
 0001:000ea610       ??$static_trampoline@$1??$call_@$00$0A@@?$binding@V?$basic_string@DU?$char_traits@D@std@@V?$allocator@D@2@@std@@P8ConVar@@BEMXZV3@@u_detail@sol@@SAHPAUlua_State@@@Z@detail@sol@@YAHPAUlua_State@@@Z 00000000100eb610     LuaAPI.obj
 0001:000ea7d0       ??$static_trampoline@$1??$call_@$0A@$0A@@?$binding@V?$basic_string@DU?$char_traits@D@std@@V?$allocator@D@2@@std@@P8ConVar@@BEMXZV3@@u_detail@sol@@SAHPAUlua_State@@@Z@detail@sol@@YAHPAUlua_State@@@Z 00000000100eb7d0     LuaAPI.obj
 0001:000ea990       ??$traverse_set@V?$basic_string@DU?$char_traits@D@std@@V?$allocator@D@2@@std@@P8ConVar@@BEMXZ@?$basic_table_core@$0A@V?$basic_reference@$0A@@sol@@@sol@@QAEAAV01@$$QAV?$basic_string@DU?$char_traits@D@std@@V?$allocator@D@2@@std@@$$QAP8ConVar@@BEMXZ@Z 00000000100eb990     LuaAPI.obj
 0001:000eaae0       ?call@?$upvalue_this_member_function@VConVar@@P81@BEMXZ$0A@@function_detail@sol@@SAHPAUlua_State@@@Z 00000000100ebae0     LuaAPI.obj
 0001:000eaaf0       ??$static_trampoline@$1?real_call@?$upvalue_this_member_function@VConVar@@P81@BEMXZ$0A@@function_detail@sol@@SAHPAUlua_State@@@Z@detail@sol@@YAHPAUlua_State@@@Z 00000000100ebaf0     LuaAPI.obj
 0001:000eacc0       ?user_gc_metatable@?$usertype_traits@P8ConVar@@BEMXZ@sol@@SAABV?$basic_string@DU?$char_traits@D@std@@V?$allocator@D@2@@std@@XZ 00000000100ebcc0     LuaAPI.obj
 0001:000eb0b0       ??$push_with@$00ABQBDP8ConVar@@BEMXZ@?$unqualified_pusher@U?$user@P8ConVar@@BEMXZ@sol@@X@stack@sol@@SAHPAUlua_State@@ABQBD$$QAP8ConVar@@BEMXZ@Z 00000000100ec0b0     LuaAPI.obj
 0001:000eb150       ??$ctti_get_type_name@P8ConVar@@BEMXZ@detail@sol@@YA?AV?$basic_string@DU?$char_traits@D@std@@V?$allocator@D@2@@std@@XZ 00000000100ec150     LuaAPI.obj
 0001:000eb1e0       ??$user_allocate@P8ConVar@@BEMXZ@detail@sol@@YAPAP8ConVar@@BEMXZPAUlua_State@@@Z 00000000100ec1e0     LuaAPI.obj
 0001:000eb3f0       ??$user_alloc_destruct@P8ConVar@@BEMXZ@detail@sol@@YAHPAUlua_State@@@Z 00000000100ec3f0     LuaAPI.obj
 0001:000eb410       ??$set@VConVar@@V?$basic_string@DU?$char_traits@D@std@@V?$allocator@D@2@@std@@P81@BEHXZ@usertype_storage_base@u_detail@sol@@QAEXPAUlua_State@@$$QAV?$basic_string@DU?$char_traits@D@std@@V?$allocator@D@2@@std@@$$QAP8ConVar@@BEHXZ@Z 00000000100ec410     LuaAPI.obj
 0001:000ebc90       ??$call_with_@$00$0A@@?$binding@V?$basic_string@DU?$char_traits@D@std@@V?$allocator@D@2@@std@@P8ConVar@@BEHXZV3@@u_detail@sol@@SAHPAUlua_State@@PAX@Z 00000000100ecc90     LuaAPI.obj
 0001:000ebd10       ??$index_call_with_@$00$0A@@?$binding@V?$basic_string@DU?$char_traits@D@std@@V?$allocator@D@2@@std@@P8ConVar@@BEHXZV3@@u_detail@sol@@SAHPAUlua_State@@PAX@Z 00000000100ecd10     LuaAPI.obj
 0001:000ebd50       ??$call_with_@$0A@$0A@@?$binding@V?$basic_string@DU?$char_traits@D@std@@V?$allocator@D@2@@std@@P8ConVar@@BEHXZV3@@u_detail@sol@@SAHPAUlua_State@@PAX@Z 00000000100ecd50     LuaAPI.obj
 0001:000ebdd0       ??$index_call_with_@$0A@$0A@@?$binding@V?$basic_string@DU?$char_traits@D@std@@V?$allocator@D@2@@std@@P8ConVar@@BEHXZV3@@u_detail@sol@@SAHPAUlua_State@@PAX@Z 00000000100ecdd0     LuaAPI.obj
 0001:000ebe10       ??$call@$0A@$0A@@?$binding@V?$basic_string@DU?$char_traits@D@std@@V?$allocator@D@2@@std@@P8ConVar@@BEHXZV3@@u_detail@sol@@SAHPAUlua_State@@@Z 00000000100ece10     LuaAPI.obj
 0001:000ebe20       ?data@?$binding@V?$basic_string@DU?$char_traits@D@std@@V?$allocator@D@2@@std@@P8ConVar@@BEHXZV3@@u_detail@sol@@UAEPAXXZ 00000000100ece20     LuaAPI.obj
 0001:000ebe30       ??_G?$binding@V?$basic_string@DU?$char_traits@D@std@@V?$allocator@D@2@@std@@P8ConVar@@BEHXZV3@@u_detail@sol@@UAEPAXI@Z 00000000100ece30     LuaAPI.obj
 0001:000ebe50       ??$call@$00$0A@@?$binding@V?$basic_string@DU?$char_traits@D@std@@V?$allocator@D@2@@std@@P8ConVar@@BEHXZV3@@u_detail@sol@@SAHPAUlua_State@@@Z 00000000100ece50     LuaAPI.obj
 0001:000ebe60       ??$static_trampoline@$1??$call_@$00$0A@@?$binding@V?$basic_string@DU?$char_traits@D@std@@V?$allocator@D@2@@std@@P8ConVar@@BEHXZV3@@u_detail@sol@@SAHPAUlua_State@@@Z@detail@sol@@YAHPAUlua_State@@@Z 00000000100ece60     LuaAPI.obj
 0001:000ec010       ??$static_trampoline@$1??$call_@$0A@$0A@@?$binding@V?$basic_string@DU?$char_traits@D@std@@V?$allocator@D@2@@std@@P8ConVar@@BEHXZV3@@u_detail@sol@@SAHPAUlua_State@@@Z@detail@sol@@YAHPAUlua_State@@@Z 00000000100ed010     LuaAPI.obj
 0001:000ec1c0       ??$traverse_set@V?$basic_string@DU?$char_traits@D@std@@V?$allocator@D@2@@std@@P8ConVar@@BEHXZ@?$basic_table_core@$0A@V?$basic_reference@$0A@@sol@@@sol@@QAEAAV01@$$QAV?$basic_string@DU?$char_traits@D@std@@V?$allocator@D@2@@std@@$$QAP8ConVar@@BEHXZ@Z 00000000100ed1c0     LuaAPI.obj
 0001:000ec310       ?call@?$upvalue_this_member_function@VConVar@@P81@BEHXZ$0A@@function_detail@sol@@SAHPAUlua_State@@@Z 00000000100ed310     LuaAPI.obj
 0001:000ec320       ??$static_trampoline@$1?real_call@?$upvalue_this_member_function@VConVar@@P81@BEHXZ$0A@@function_detail@sol@@SAHPAUlua_State@@@Z@detail@sol@@YAHPAUlua_State@@@Z 00000000100ed320     LuaAPI.obj
 0001:000ec4e0       ?user_gc_metatable@?$usertype_traits@P8ConVar@@BEHXZ@sol@@SAABV?$basic_string@DU?$char_traits@D@std@@V?$allocator@D@2@@std@@XZ 00000000100ed4e0     LuaAPI.obj
 0001:000ec8d0       ??$push_with@$00ABQBDP8ConVar@@BEHXZ@?$unqualified_pusher@U?$user@P8ConVar@@BEHXZ@sol@@X@stack@sol@@SAHPAUlua_State@@ABQBD$$QAP8ConVar@@BEHXZ@Z 00000000100ed8d0     LuaAPI.obj
 0001:000ec970       ??$ctti_get_type_name@P8ConVar@@BEHXZ@detail@sol@@YA?AV?$basic_string@DU?$char_traits@D@std@@V?$allocator@D@2@@std@@XZ 00000000100ed970     LuaAPI.obj
 0001:000eca00       ??$user_allocate@P8ConVar@@BEHXZ@detail@sol@@YAPAP8ConVar@@BEHXZPAUlua_State@@@Z 00000000100eda00     LuaAPI.obj
 0001:000ecc10       ??$user_alloc_destruct@P8ConVar@@BEHXZ@detail@sol@@YAHPAUlua_State@@@Z 00000000100edc10     LuaAPI.obj
 0001:000ecc30       ??$set@VConVar@@V?$basic_string@DU?$char_traits@D@std@@V?$allocator@D@2@@std@@P81@AEXPBD@Z@usertype_storage_base@u_detail@sol@@QAEXPAUlua_State@@$$QAV?$basic_string@DU?$char_traits@D@std@@V?$allocator@D@2@@std@@$$QAP8ConVar@@AEXPBD@Z@Z 00000000100edc30     LuaAPI.obj
 0001:000ed4b0       ??$call_with_@$00$0A@@?$binding@V?$basic_string@DU?$char_traits@D@std@@V?$allocator@D@2@@std@@P8ConVar@@AEXPBD@ZV3@@u_detail@sol@@SAHPAUlua_State@@PAX@Z 00000000100ee4b0     LuaAPI.obj
 0001:000ed520       ??$index_call_with_@$00$0A@@?$binding@V?$basic_string@DU?$char_traits@D@std@@V?$allocator@D@2@@std@@P8ConVar@@AEXPBD@ZV3@@u_detail@sol@@SAHPAUlua_State@@PAX@Z 00000000100ee520     LuaAPI.obj
 0001:000ed560       ??$call_with_@$0A@$0A@@?$binding@V?$basic_string@DU?$char_traits@D@std@@V?$allocator@D@2@@std@@P8ConVar@@AEXPBD@ZV3@@u_detail@sol@@SAHPAUlua_State@@PAX@Z 00000000100ee560     LuaAPI.obj
 0001:000ed5d0       ??$index_call_with_@$0A@$0A@@?$binding@V?$basic_string@DU?$char_traits@D@std@@V?$allocator@D@2@@std@@P8ConVar@@AEXPBD@ZV3@@u_detail@sol@@SAHPAUlua_State@@PAX@Z 00000000100ee5d0     LuaAPI.obj
 0001:000ed610       ??$call@$0A@$0A@@?$binding@V?$basic_string@DU?$char_traits@D@std@@V?$allocator@D@2@@std@@P8ConVar@@AEXPBD@ZV3@@u_detail@sol@@SAHPAUlua_State@@@Z 00000000100ee610     LuaAPI.obj
 0001:000ed620       ?data@?$binding@V?$basic_string@DU?$char_traits@D@std@@V?$allocator@D@2@@std@@P8ConVar@@AEXPBD@ZV3@@u_detail@sol@@UAEPAXXZ 00000000100ee620     LuaAPI.obj
 0001:000ed630       ??_G?$binding@V?$basic_string@DU?$char_traits@D@std@@V?$allocator@D@2@@std@@P8ConVar@@AEXPBD@ZV3@@u_detail@sol@@UAEPAXI@Z 00000000100ee630     LuaAPI.obj
 0001:000ed650       ??$call@$00$0A@@?$binding@V?$basic_string@DU?$char_traits@D@std@@V?$allocator@D@2@@std@@P8ConVar@@AEXPBD@ZV3@@u_detail@sol@@SAHPAUlua_State@@@Z 00000000100ee650     LuaAPI.obj
 0001:000ed660       ??$static_trampoline@$1??$call_@$00$0A@@?$binding@V?$basic_string@DU?$char_traits@D@std@@V?$allocator@D@2@@std@@P8ConVar@@AEXPBD@ZV3@@u_detail@sol@@SAHPAUlua_State@@@Z@detail@sol@@YAHPAUlua_State@@@Z 00000000100ee660     LuaAPI.obj
 0001:000ed800       ??$static_trampoline@$1??$call_@$0A@$0A@@?$binding@V?$basic_string@DU?$char_traits@D@std@@V?$allocator@D@2@@std@@P8ConVar@@AEXPBD@ZV3@@u_detail@sol@@SAHPAUlua_State@@@Z@detail@sol@@YAHPAUlua_State@@@Z 00000000100ee800     LuaAPI.obj
 0001:000ed9a0       ??$traverse_set@V?$basic_string@DU?$char_traits@D@std@@V?$allocator@D@2@@std@@P8ConVar@@AEXPBD@Z@?$basic_table_core@$0A@V?$basic_reference@$0A@@sol@@@sol@@QAEAAV01@$$QAV?$basic_string@DU?$char_traits@D@std@@V?$allocator@D@2@@std@@$$QAP8ConVar@@AEXPBD@Z@Z 00000000100ee9a0     LuaAPI.obj
 0001:000edaf0       ?call@?$upvalue_this_member_function@VConVar@@P81@AEXPBD@Z$0A@@function_detail@sol@@SAHPAUlua_State@@@Z 00000000100eeaf0     LuaAPI.obj
 0001:000edb00       ??$static_trampoline@$1?real_call@?$upvalue_this_member_function@VConVar@@P81@AEXPBD@Z$0A@@function_detail@sol@@SAHPAUlua_State@@@Z@detail@sol@@YAHPAUlua_State@@@Z 00000000100eeb00     LuaAPI.obj
 0001:000edcb0       ?user_gc_metatable@?$usertype_traits@P8ConVar@@AEXPBD@Z@sol@@SAABV?$basic_string@DU?$char_traits@D@std@@V?$allocator@D@2@@std@@XZ 00000000100eecb0     LuaAPI.obj
 0001:000ee0a0       ??$push_with@$00ABQBDP8ConVar@@AEXPBD@Z@?$unqualified_pusher@U?$user@P8ConVar@@AEXPBD@Z@sol@@X@stack@sol@@SAHPAUlua_State@@ABQBD$$QAP8ConVar@@AEXPBD@Z@Z 00000000100ef0a0     LuaAPI.obj
 0001:000ee140       ??$ctti_get_type_name@P8ConVar@@AEXPBD@Z@detail@sol@@YA?AV?$basic_string@DU?$char_traits@D@std@@V?$allocator@D@2@@std@@XZ 00000000100ef140     LuaAPI.obj
 0001:000ee1d0       ??$user_allocate@P8ConVar@@AEXPBD@Z@detail@sol@@YAPAP8ConVar@@AEXPBD@ZPAUlua_State@@@Z 00000000100ef1d0     LuaAPI.obj
 0001:000ee3e0       ??$user_alloc_destruct@P8ConVar@@AEXPBD@Z@detail@sol@@YAHPAUlua_State@@@Z 00000000100ef3e0     LuaAPI.obj
 0001:000ee400       ??$set@VConVar@@V?$basic_string@DU?$char_traits@D@std@@V?$allocator@D@2@@std@@P81@AEXM@Z@usertype_storage_base@u_detail@sol@@QAEXPAUlua_State@@$$QAV?$basic_string@DU?$char_traits@D@std@@V?$allocator@D@2@@std@@$$QAP8ConVar@@AEXM@Z@Z 00000000100ef400     LuaAPI.obj
 0001:000eec80       ??$call_with_@$00$0A@@?$binding@V?$basic_string@DU?$char_traits@D@std@@V?$allocator@D@2@@std@@P8ConVar@@AEXM@ZV3@@u_detail@sol@@SAHPAUlua_State@@PAX@Z 00000000100efc80     LuaAPI.obj
 0001:000eecf0       ??$index_call_with_@$00$0A@@?$binding@V?$basic_string@DU?$char_traits@D@std@@V?$allocator@D@2@@std@@P8ConVar@@AEXM@ZV3@@u_detail@sol@@SAHPAUlua_State@@PAX@Z 00000000100efcf0     LuaAPI.obj
 0001:000eed30       ??$call_with_@$0A@$0A@@?$binding@V?$basic_string@DU?$char_traits@D@std@@V?$allocator@D@2@@std@@P8ConVar@@AEXM@ZV3@@u_detail@sol@@SAHPAUlua_State@@PAX@Z 00000000100efd30     LuaAPI.obj
 0001:000eeda0       ??$index_call_with_@$0A@$0A@@?$binding@V?$basic_string@DU?$char_traits@D@std@@V?$allocator@D@2@@std@@P8ConVar@@AEXM@ZV3@@u_detail@sol@@SAHPAUlua_State@@PAX@Z 00000000100efda0     LuaAPI.obj
 0001:000eede0       ??$call@$0A@$0A@@?$binding@V?$basic_string@DU?$char_traits@D@std@@V?$allocator@D@2@@std@@P8ConVar@@AEXM@ZV3@@u_detail@sol@@SAHPAUlua_State@@@Z 00000000100efde0     LuaAPI.obj
 0001:000eedf0       ?data@?$binding@V?$basic_string@DU?$char_traits@D@std@@V?$allocator@D@2@@std@@P8ConVar@@AEXM@ZV3@@u_detail@sol@@UAEPAXXZ 00000000100efdf0     LuaAPI.obj
 0001:000eee00       ??_G?$binding@V?$basic_string@DU?$char_traits@D@std@@V?$allocator@D@2@@std@@P8ConVar@@AEXM@ZV3@@u_detail@sol@@UAEPAXI@Z 00000000100efe00     LuaAPI.obj
 0001:000eee20       ??$call@$00$0A@@?$binding@V?$basic_string@DU?$char_traits@D@std@@V?$allocator@D@2@@std@@P8ConVar@@AEXM@ZV3@@u_detail@sol@@SAHPAUlua_State@@@Z 00000000100efe20     LuaAPI.obj
 0001:000eee30       ??$static_trampoline@$1??$call_@$00$0A@@?$binding@V?$basic_string@DU?$char_traits@D@std@@V?$allocator@D@2@@std@@P8ConVar@@AEXM@ZV3@@u_detail@sol@@SAHPAUlua_State@@@Z@detail@sol@@YAHPAUlua_State@@@Z 00000000100efe30     LuaAPI.obj
 0001:000eefd0       ??$static_trampoline@$1??$call_@$0A@$0A@@?$binding@V?$basic_string@DU?$char_traits@D@std@@V?$allocator@D@2@@std@@P8ConVar@@AEXM@ZV3@@u_detail@sol@@SAHPAUlua_State@@@Z@detail@sol@@YAHPAUlua_State@@@Z 00000000100effd0     LuaAPI.obj
 0001:000ef170       ??$traverse_set@V?$basic_string@DU?$char_traits@D@std@@V?$allocator@D@2@@std@@P8ConVar@@AEXM@Z@?$basic_table_core@$0A@V?$basic_reference@$0A@@sol@@@sol@@QAEAAV01@$$QAV?$basic_string@DU?$char_traits@D@std@@V?$allocator@D@2@@std@@$$QAP8ConVar@@AEXM@Z@Z 00000000100f0170     LuaAPI.obj
 0001:000ef2c0       ?call@?$upvalue_this_member_function@VConVar@@P81@AEXM@Z$0A@@function_detail@sol@@SAHPAUlua_State@@@Z 00000000100f02c0     LuaAPI.obj
 0001:000ef2d0       ??$static_trampoline@$1?real_call@?$upvalue_this_member_function@VConVar@@P81@AEXM@Z$0A@@function_detail@sol@@SAHPAUlua_State@@@Z@detail@sol@@YAHPAUlua_State@@@Z 00000000100f02d0     LuaAPI.obj
 0001:000ef480       ?user_gc_metatable@?$usertype_traits@P8ConVar@@AEXM@Z@sol@@SAABV?$basic_string@DU?$char_traits@D@std@@V?$allocator@D@2@@std@@XZ 00000000100f0480     LuaAPI.obj
 0001:000ef870       ??$push_with@$00ABQBDP8ConVar@@AEXM@Z@?$unqualified_pusher@U?$user@P8ConVar@@AEXM@Z@sol@@X@stack@sol@@SAHPAUlua_State@@ABQBD$$QAP8ConVar@@AEXM@Z@Z 00000000100f0870     LuaAPI.obj
 0001:000ef910       ??$ctti_get_type_name@P8ConVar@@AEXM@Z@detail@sol@@YA?AV?$basic_string@DU?$char_traits@D@std@@V?$allocator@D@2@@std@@XZ 00000000100f0910     LuaAPI.obj
 0001:000ef9a0       ??$user_allocate@P8ConVar@@AEXM@Z@detail@sol@@YAPAP8ConVar@@AEXM@ZPAUlua_State@@@Z 00000000100f09a0     LuaAPI.obj
 0001:000efbb0       ??$user_alloc_destruct@P8ConVar@@AEXM@Z@detail@sol@@YAHPAUlua_State@@@Z 00000000100f0bb0     LuaAPI.obj
 0001:000efbd0       ??$set@VConVar@@V?$basic_string@DU?$char_traits@D@std@@V?$allocator@D@2@@std@@P81@AEXH@Z@usertype_storage_base@u_detail@sol@@QAEXPAUlua_State@@$$QAV?$basic_string@DU?$char_traits@D@std@@V?$allocator@D@2@@std@@$$QAP8ConVar@@AEXH@Z@Z 00000000100f0bd0     LuaAPI.obj
 0001:000f0450       ??$call_with_@$00$0A@@?$binding@V?$basic_string@DU?$char_traits@D@std@@V?$allocator@D@2@@std@@P8ConVar@@AEXH@ZV3@@u_detail@sol@@SAHPAUlua_State@@PAX@Z 00000000100f1450     LuaAPI.obj
 0001:000f04d0       ??$index_call_with_@$00$0A@@?$binding@V?$basic_string@DU?$char_traits@D@std@@V?$allocator@D@2@@std@@P8ConVar@@AEXH@ZV3@@u_detail@sol@@SAHPAUlua_State@@PAX@Z 00000000100f14d0     LuaAPI.obj
 0001:000f0510       ??$call_with_@$0A@$0A@@?$binding@V?$basic_string@DU?$char_traits@D@std@@V?$allocator@D@2@@std@@P8ConVar@@AEXH@ZV3@@u_detail@sol@@SAHPAUlua_State@@PAX@Z 00000000100f1510     LuaAPI.obj
 0001:000f0590       ??$index_call_with_@$0A@$0A@@?$binding@V?$basic_string@DU?$char_traits@D@std@@V?$allocator@D@2@@std@@P8ConVar@@AEXH@ZV3@@u_detail@sol@@SAHPAUlua_State@@PAX@Z 00000000100f1590     LuaAPI.obj
 0001:000f05d0       ??$call@$0A@$0A@@?$binding@V?$basic_string@DU?$char_traits@D@std@@V?$allocator@D@2@@std@@P8ConVar@@AEXH@ZV3@@u_detail@sol@@SAHPAUlua_State@@@Z 00000000100f15d0     LuaAPI.obj
 0001:000f05e0       ?data@?$binding@V?$basic_string@DU?$char_traits@D@std@@V?$allocator@D@2@@std@@P8ConVar@@AEXH@ZV3@@u_detail@sol@@UAEPAXXZ 00000000100f15e0     LuaAPI.obj
 0001:000f05f0       ??_G?$binding@V?$basic_string@DU?$char_traits@D@std@@V?$allocator@D@2@@std@@P8ConVar@@AEXH@ZV3@@u_detail@sol@@UAEPAXI@Z 00000000100f15f0     LuaAPI.obj
 0001:000f0610       ??$call@$00$0A@@?$binding@V?$basic_string@DU?$char_traits@D@std@@V?$allocator@D@2@@std@@P8ConVar@@AEXH@ZV3@@u_detail@sol@@SAHPAUlua_State@@@Z 00000000100f1610     LuaAPI.obj
 0001:000f0620       ??$static_trampoline@$1??$call_@$00$0A@@?$binding@V?$basic_string@DU?$char_traits@D@std@@V?$allocator@D@2@@std@@P8ConVar@@AEXH@ZV3@@u_detail@sol@@SAHPAUlua_State@@@Z@detail@sol@@YAHPAUlua_State@@@Z 00000000100f1620     LuaAPI.obj
 0001:000f07d0       ??$static_trampoline@$1??$call_@$0A@$0A@@?$binding@V?$basic_string@DU?$char_traits@D@std@@V?$allocator@D@2@@std@@P8ConVar@@AEXH@ZV3@@u_detail@sol@@SAHPAUlua_State@@@Z@detail@sol@@YAHPAUlua_State@@@Z 00000000100f17d0     LuaAPI.obj
 0001:000f0980       ??$traverse_set@V?$basic_string@DU?$char_traits@D@std@@V?$allocator@D@2@@std@@P8ConVar@@AEXH@Z@?$basic_table_core@$0A@V?$basic_reference@$0A@@sol@@@sol@@QAEAAV01@$$QAV?$basic_string@DU?$char_traits@D@std@@V?$allocator@D@2@@std@@$$QAP8ConVar@@AEXH@Z@Z 00000000100f1980     LuaAPI.obj
 0001:000f0ad0       ?call@?$upvalue_this_member_function@VConVar@@P81@AEXH@Z$0A@@function_detail@sol@@SAHPAUlua_State@@@Z 00000000100f1ad0     LuaAPI.obj
 0001:000f0ae0       ??$static_trampoline@$1?real_call@?$upvalue_this_member_function@VConVar@@P81@AEXH@Z$0A@@function_detail@sol@@SAHPAUlua_State@@@Z@detail@sol@@YAHPAUlua_State@@@Z 00000000100f1ae0     LuaAPI.obj
 0001:000f0c90       ?user_gc_metatable@?$usertype_traits@P8ConVar@@AEXH@Z@sol@@SAABV?$basic_string@DU?$char_traits@D@std@@V?$allocator@D@2@@std@@XZ 00000000100f1c90     LuaAPI.obj
 0001:000f1080       ??$push_with@$00ABQBDP8ConVar@@AEXH@Z@?$unqualified_pusher@U?$user@P8ConVar@@AEXH@Z@sol@@X@stack@sol@@SAHPAUlua_State@@ABQBD$$QAP8ConVar@@AEXH@Z@Z 00000000100f2080     LuaAPI.obj
 0001:000f1120       ??$ctti_get_type_name@P8ConVar@@AEXH@Z@detail@sol@@YA?AV?$basic_string@DU?$char_traits@D@std@@V?$allocator@D@2@@std@@XZ 00000000100f2120     LuaAPI.obj
 0001:000f11b0       ??$user_allocate@P8ConVar@@AEXH@Z@detail@sol@@YAPAP8ConVar@@AEXH@ZPAUlua_State@@@Z 00000000100f21b0     LuaAPI.obj
 0001:000f13c0       ??$user_alloc_destruct@P8ConVar@@AEXH@Z@detail@sol@@YAHPAUlua_State@@@Z 00000000100f23c0     LuaAPI.obj
 0001:000f13e0       ??$new_usertype@VIGameEvent@@ABV?$basic_string@DU?$char_traits@D@std@@V?$allocator@D@2@@std@@@?$basic_table_core@$00V?$basic_reference@$0A@@sol@@@sol@@QAE?AV?$basic_usertype@VIGameEvent@@V?$basic_reference@$0A@@sol@@@1@ABV?$basic_string@DU?$char_traits@D@std@@V?$allocator@D@2@@std@@Uautomagic_enrollments@1@@Z 00000000100f23e0     LuaAPI.obj
 0001:000f14f0       ??$tuple_set@$0A@$00$01$02$03$04$05$06$07$$Z$$QAV?$basic_string@DU?$char_traits@D@std@@V?$allocator@D@2@@std@@$$QAP8IGameEvent@@BEPBDXZ$$QAV12@$$QAP83@AEPBDPBD0@Z$$QAV12@$$QAP83@AE_N0_N@Z$$QAV12@$$QAP83@AEH0H@Z$$QAV12@$$QAP83@AEM0M@Z$$QAV12@$$QAP83@AEX00@Z$$QAV12@$$QAP83@AEX01@Z$$QAV12@$$QAP83@AEX0H@Z$$QAV12@$$QAP83@AEX0M@Z@?$basic_usertype@VIGameEvent@@V?$basic_reference@$0A@@sol@@@sol@@AAEXU?$integer_sequence@I$0A@$00$01$02$03$04$05$06$07@std@@$$QAV?$tuple@$$QAV?$basic_string@DU?$char_traits@D@std@@V?$allocator@D@2@@std@@$$QAP8IGameEvent@@BEPBDXZ$$QAV12@$$QAP83@AEPBDPBD0@Z$$QAV12@$$QAP83@AE_N0_N@Z$$QAV12@$$QAP83@AEH0H@Z$$QAV12@$$QAP83@AEM0M@Z$$QAV12@$$QAP83@AEX00@Z$$QAV12@$$QAP83@AEX01@Z$$QAV12@$$QAP83@AEX0H@Z$$QAV12@$$QAP83@AEX0M@Z@3@@Z 00000000100f24f0     LuaAPI.obj
 0001:000f1570       ??$register_usertype@VIGameEvent@@@u_detail@sol@@YAHPAUlua_State@@Uautomagic_enrollments@1@@Z 00000000100f2570     LuaAPI.obj
 0001:000f1990       ??$delete_usertype_storage@VIGameEvent@@@u_detail@sol@@YAXPAUlua_State@@@Z 00000000100f2990     LuaAPI.obj
 0001:000f1a20       ??$create_usertype_storage@VIGameEvent@@@u_detail@sol@@YAAAU?$usertype_storage@VIGameEvent@@@01@PAUlua_State@@@Z 00000000100f2a20     LuaAPI.obj
 0001:000f1b20       ?gc_table@?$usertype_traits@VIGameEvent@@@sol@@SAABV?$basic_string@DU?$char_traits@D@std@@V?$allocator@D@2@@std@@XZ 00000000100f2b20     LuaAPI.obj
 0001:000f1f10       ?metatable@?$usertype_traits@$$CBVIGameEvent@@@sol@@SAABV?$basic_string@DU?$char_traits@D@std@@V?$allocator@D@2@@std@@XZ 00000000100f2f10     LuaAPI.obj
 0001:000f2290       ?metatable@?$usertype_traits@PBVIGameEvent@@@sol@@SAABV?$basic_string@DU?$char_traits@D@std@@V?$allocator@D@2@@std@@XZ 00000000100f3290     LuaAPI.obj
 0001:000f2610       ?metatable@?$usertype_traits@PAVIGameEvent@@@sol@@SAABV?$basic_string@DU?$char_traits@D@std@@V?$allocator@D@2@@std@@XZ 00000000100f3610     LuaAPI.obj
 0001:000f2990       ?metatable@?$usertype_traits@U?$unique_usertype@VIGameEvent@@@detail@sol@@@sol@@SAABV?$basic_string@DU?$char_traits@D@std@@V?$allocator@D@2@@std@@XZ 00000000100f3990     LuaAPI.obj
 0001:000f2d10       ?metatable@?$usertype_traits@VIGameEvent@@@sol@@SAABV?$basic_string@DU?$char_traits@D@std@@V?$allocator@D@2@@std@@XZ 00000000100f3d10     LuaAPI.obj
 0001:000f3090       ??$is_check@VIGameEvent@@@detail@sol@@YAHPAUlua_State@@@Z 00000000100f4090     LuaAPI.obj
 0001:000f3110       ??$destruct_usertype_storage@VIGameEvent@@@u_detail@sol@@YAHPAUlua_State@@@Z 00000000100f4110     LuaAPI.obj
 0001:000f3130       ?user_gc_metatable@?$usertype_traits@U?$usertype_storage@VIGameEvent@@@u_detail@sol@@@sol@@SAABV?$basic_string@DU?$char_traits@D@std@@V?$allocator@D@2@@std@@XZ 00000000100f4130     LuaAPI.obj
 0001:000f3520       ??$ctti_get_type_name@U?$usertype_storage@VIGameEvent@@@u_detail@sol@@@detail@sol@@YA?AV?$basic_string@DU?$char_traits@D@std@@V?$allocator@D@2@@std@@XZ 00000000100f4520     LuaAPI.obj
 0001:000f35b0       ??$user_allocate@U?$usertype_storage@VIGameEvent@@@u_detail@sol@@@detail@sol@@YAPAU?$usertype_storage@VIGameEvent@@@u_detail@1@PAUlua_State@@@Z 00000000100f45b0     LuaAPI.obj
 0001:000f37d0       ??$ctti_get_type_name@$$CBVIGameEvent@@@detail@sol@@YA?AV?$basic_string@DU?$char_traits@D@std@@V?$allocator@D@2@@std@@XZ 00000000100f47d0     LuaAPI.obj
 0001:000f3860       ??$ctti_get_type_name@PBVIGameEvent@@@detail@sol@@YA?AV?$basic_string@DU?$char_traits@D@std@@V?$allocator@D@2@@std@@XZ 00000000100f4860     LuaAPI.obj
 0001:000f38f0       ??$ctti_get_type_name@PAVIGameEvent@@@detail@sol@@YA?AV?$basic_string@DU?$char_traits@D@std@@V?$allocator@D@2@@std@@XZ 00000000100f48f0     LuaAPI.obj
 0001:000f3980       ??$ctti_get_type_name@U?$unique_usertype@VIGameEvent@@@detail@sol@@@detail@sol@@YA?AV?$basic_string@DU?$char_traits@D@std@@V?$allocator@D@2@@std@@XZ 00000000100f4980     LuaAPI.obj
 0001:000f3a10       ??$ctti_get_type_name@VIGameEvent@@@detail@sol@@YA?AV?$basic_string@DU?$char_traits@D@std@@V?$allocator@D@2@@std@@XZ 00000000100f4a10     LuaAPI.obj
 0001:000f3aa0       ??$check@VIGameEvent@@P6AHPAUlua_State@@HW4type@sol@@1PBD@_E@?$unqualified_checker@U?$as_value_tag@VIGameEvent@@@detail@sol@@$06X@stack@sol@@SA_NU?$types@VIGameEvent@@@2@PAUlua_State@@HW4type@2@$$QAP6AH1H22PBD@_EAAUrecord@12@@Z 00000000100f4aa0     LuaAPI.obj
 0001:000f3d90       ?qualified_name@?$usertype_traits@VIGameEvent@@@sol@@SAABV?$basic_string@DU?$char_traits@D@std@@V?$allocator@D@2@@std@@XZ 00000000100f4d90     LuaAPI.obj
 0001:000f3ec0       ?metatable@?$usertype_traits@U?$as_container_t@VIGameEvent@@@sol@@@sol@@SAABV?$basic_string@DU?$char_traits@D@std@@V?$allocator@D@2@@std@@XZ 00000000100f4ec0     LuaAPI.obj
 0001:000f4240       ??$ctti_get_type_name@U?$as_container_t@VIGameEvent@@@sol@@@detail@sol@@YA?AV?$basic_string@DU?$char_traits@D@std@@V?$allocator@D@2@@std@@XZ 00000000100f5240     LuaAPI.obj
 0001:000f42d0       ??R<lambda_1>@?0???$register_usertype@VIGameEvent@@@u_detail@sol@@YAHPAUlua_State@@Uautomagic_enrollments@2@@Z@QBE?A?<auto>@@0W4submetatable_type@12@AAV?$basic_reference@$0A@@2@@Z 00000000100f52d0     LuaAPI.obj
 0001:000f48c0       ?user_metatable@?$usertype_traits@VIGameEvent@@@sol@@SAABV?$basic_string@DU?$char_traits@D@std@@V?$allocator@D@2@@std@@XZ 00000000100f58c0     LuaAPI.obj
 0001:000f4cb0       ??$unique_destruct@VIGameEvent@@@detail@sol@@YAHPAUlua_State@@@Z 00000000100f5cb0     LuaAPI.obj
 0001:000f4cf0       ?type_check@?$inheritance@VIGameEvent@@@detail@sol@@SA_NABV?$basic_string_view@DU?$char_traits@D@std@@@std@@@Z 00000000100f5cf0     LuaAPI.obj
 0001:000f4d30       ?type_cast@?$inheritance@VIGameEvent@@@detail@sol@@SAPAXPAXABV?$basic_string_view@DU?$char_traits@D@std@@@std@@@Z 00000000100f5d30     LuaAPI.obj
 0001:000f4d70       ??$insert_default_registrations@VIGameEvent@@AAV<lambda_1>@?0???R2?0???$register_usertype@VIGameEvent@@@u_detail@sol@@YAHPAUlua_State@@Uautomagic_enrollments@4@@Z@QBE?A?<auto>@@0W4submetatable_type@34@AAV?$basic_reference@$0A@@4@@Z@AAUproperties_enrollment_allowed@detail@4@@detail@sol@@YAXAAV<lambda_1>@?0???R2?0???$register_usertype@VIGameEvent@@@u_detail@1@YAHPAUlua_State@@Uautomagic_enrollments@1@@Z@QBE?A?<auto>@@0W4submetatable_type@31@AAV?$basic_reference@$0A@@1@@Z@AAUproperties_enrollment_allowed@01@@Z 00000000100f5d70     LuaAPI.obj
 0001:000f4eb0       ??$meta_index_call@$0A@@?$usertype_storage@VIGameEvent@@@u_detail@sol@@SAHPAUlua_State@@@Z 00000000100f5eb0     LuaAPI.obj
 0001:000f4ec0       ??$meta_index_call@$00@?$usertype_storage@VIGameEvent@@@u_detail@sol@@SAHPAUlua_State@@@Z 00000000100f5ec0     LuaAPI.obj
 0001:000f4ed0       ??$index_call@$00@?$usertype_storage@VIGameEvent@@@u_detail@sol@@SAHPAUlua_State@@@Z 00000000100f5ed0     LuaAPI.obj
 0001:000f4ee0       ??$usertype_alloc_destruct@VIGameEvent@@@detail@sol@@YAHPAUlua_State@@@Z 00000000100f5ee0     LuaAPI.obj
 0001:000f4f10       ??$comparsion_operator_wrap@VIGameEvent@@Uno_comp@detail@sol@@@detail@sol@@YAHPAUlua_State@@@Z 00000000100f5f10     LuaAPI.obj
 0001:000f4fb0       ?pairs_call@?$u_c_launch@U?$as_container_t@VIGameEvent@@@sol@@@container_detail@sol@@SAHPAUlua_State@@@Z 00000000100f5fb0     LuaAPI.obj
 0001:000f4fc0       ??$get_using@V?$optional@AAVIGameEvent@@@sol@@AAP6AHPAUlua_State@@HW4type@2@1PBD@_E@?$unqualified_check_getter@VIGameEvent@@X@stack@sol@@SA?AV?$optional@AAVIGameEvent@@@2@PAUlua_State@@HAAP6AH0HW4type@2@1PBD@_EAAUrecord@12@@Z 00000000100f5fc0     LuaAPI.obj
 0001:000f5070       ??$check@VIGameEvent@@AAP6AHPAUlua_State@@HW4type@sol@@1PBD@_E@?$unqualified_checker@U?$as_value_tag@VIGameEvent@@@detail@sol@@$06X@stack@sol@@SA_NU?$types@VIGameEvent@@@2@PAUlua_State@@HW4type@2@AAP6AH1H22PBD@_EAAUrecord@12@@Z 00000000100f6070     LuaAPI.obj
 0001:000f5360       ?get_no_lua_nil_from@?$unqualified_getter@U?$as_value_tag@VIGameEvent@@@detail@sol@@X@stack@sol@@SAPAVIGameEvent@@PAUlua_State@@PAXHAAUrecord@23@@Z 00000000100f6360     LuaAPI.obj
 0001:000f5400       ??$static_trampoline@$1?real_pairs_call@?$u_c_launch@U?$as_container_t@VIGameEvent@@@sol@@@container_detail@sol@@SAHPAUlua_State@@@Z@detail@sol@@YAHPAUlua_State@@@Z 00000000100f6400     LuaAPI.obj
 0001:000f55d0       ??$static_trampoline@$1??$index_call_@$0A@$00@?$usertype_storage@VIGameEvent@@@u_detail@sol@@SAHPAUlua_State@@@Z@detail@sol@@YAHPAUlua_State@@@Z 00000000100f65d0     LuaAPI.obj
 0001:000f5730       ??$static_trampoline@$1??$index_call_@$00$00@?$usertype_storage@VIGameEvent@@@u_detail@sol@@SAHPAUlua_State@@@Z@detail@sol@@YAHPAUlua_State@@@Z 00000000100f6730     LuaAPI.obj
 0001:000f5890       ??$static_trampoline@$1??$index_call_@$00$0A@@?$usertype_storage@VIGameEvent@@@u_detail@sol@@SAHPAUlua_State@@@Z@detail@sol@@YAHPAUlua_State@@@Z 00000000100f6890     LuaAPI.obj
 0001:000f59f0       ??$traverse_set_deep@$00$0A@$0A@ABV?$basic_string@DU?$char_traits@D@std@@V?$allocator@D@2@@std@@AAV?$basic_usertype@VIGameEvent@@V?$basic_reference@$0A@@sol@@@sol@@@?$basic_table_core@$00V?$basic_reference@$0A@@sol@@@sol@@ABEXHABV?$basic_string@DU?$char_traits@D@std@@V?$allocator@D@2@@std@@AAV?$basic_usertype@VIGameEvent@@V?$basic_reference@$0A@@sol@@@1@@Z 00000000100f69f0     LuaAPI.obj
 0001:000f5a70       ??$set@V?$basic_string@DU?$char_traits@D@std@@V?$allocator@D@2@@std@@P8IGameEvent@@BEPBDXZ@?$basic_usertype@VIGameEvent@@V?$basic_reference@$0A@@sol@@@sol@@QAEX$$QAV?$basic_string@DU?$char_traits@D@std@@V?$allocator@D@2@@std@@$$QAP8IGameEvent@@BEPBDXZ@Z 00000000100f6a70     LuaAPI.obj
 0001:000f5b10       ??$set@V?$basic_string@DU?$char_traits@D@std@@V?$allocator@D@2@@std@@P8IGameEvent@@AEPBDPBD0@Z@?$basic_usertype@VIGameEvent@@V?$basic_reference@$0A@@sol@@@sol@@QAEX$$QAV?$basic_string@DU?$char_traits@D@std@@V?$allocator@D@2@@std@@$$QAP8IGameEvent@@AEPBDPBD1@Z@Z 00000000100f6b10     LuaAPI.obj
 0001:000f5bb0       ??$set@V?$basic_string@DU?$char_traits@D@std@@V?$allocator@D@2@@std@@P8IGameEvent@@AE_NPBD_N@Z@?$basic_usertype@VIGameEvent@@V?$basic_reference@$0A@@sol@@@sol@@QAEX$$QAV?$basic_string@DU?$char_traits@D@std@@V?$allocator@D@2@@std@@$$QAP8IGameEvent@@AE_NPBD_N@Z@Z 00000000100f6bb0     LuaAPI.obj
 0001:000f5c50       ??$set@V?$basic_string@DU?$char_traits@D@std@@V?$allocator@D@2@@std@@P8IGameEvent@@AEHPBDH@Z@?$basic_usertype@VIGameEvent@@V?$basic_reference@$0A@@sol@@@sol@@QAEX$$QAV?$basic_string@DU?$char_traits@D@std@@V?$allocator@D@2@@std@@$$QAP8IGameEvent@@AEHPBDH@Z@Z 00000000100f6c50     LuaAPI.obj
 0001:000f5cf0       ??$set@V?$basic_string@DU?$char_traits@D@std@@V?$allocator@D@2@@std@@P8IGameEvent@@AEMPBDM@Z@?$basic_usertype@VIGameEvent@@V?$basic_reference@$0A@@sol@@@sol@@QAEX$$QAV?$basic_string@DU?$char_traits@D@std@@V?$allocator@D@2@@std@@$$QAP8IGameEvent@@AEMPBDM@Z@Z 00000000100f6cf0     LuaAPI.obj
 0001:000f5d90       ??$set@V?$basic_string@DU?$char_traits@D@std@@V?$allocator@D@2@@std@@P8IGameEvent@@AEXPBD0@Z@?$basic_usertype@VIGameEvent@@V?$basic_reference@$0A@@sol@@@sol@@QAEX$$QAV?$basic_string@DU?$char_traits@D@std@@V?$allocator@D@2@@std@@$$QAP8IGameEvent@@AEXPBD1@Z@Z 00000000100f6d90     LuaAPI.obj
 0001:000f5e30       ??$set@V?$basic_string@DU?$char_traits@D@std@@V?$allocator@D@2@@std@@P8IGameEvent@@AEXPBD_N@Z@?$basic_usertype@VIGameEvent@@V?$basic_reference@$0A@@sol@@@sol@@QAEX$$QAV?$basic_string@DU?$char_traits@D@std@@V?$allocator@D@2@@std@@$$QAP8IGameEvent@@AEXPBD_N@Z@Z 00000000100f6e30     LuaAPI.obj
 0001:000f5ed0       ??$set@V?$basic_string@DU?$char_traits@D@std@@V?$allocator@D@2@@std@@P8IGameEvent@@AEXPBDH@Z@?$basic_usertype@VIGameEvent@@V?$basic_reference@$0A@@sol@@@sol@@QAEX$$QAV?$basic_string@DU?$char_traits@D@std@@V?$allocator@D@2@@std@@$$QAP8IGameEvent@@AEXPBDH@Z@Z 00000000100f6ed0     LuaAPI.obj
 0001:000f5f70       ??$set@V?$basic_string@DU?$char_traits@D@std@@V?$allocator@D@2@@std@@P8IGameEvent@@AEXPBDM@Z@?$basic_usertype@VIGameEvent@@V?$basic_reference@$0A@@sol@@@sol@@QAEX$$QAV?$basic_string@DU?$char_traits@D@std@@V?$allocator@D@2@@std@@$$QAP8IGameEvent@@AEXPBDM@Z@Z 00000000100f6f70     LuaAPI.obj
 0001:000f6010       ??$set@VIGameEvent@@V?$basic_string@DU?$char_traits@D@std@@V?$allocator@D@2@@std@@P81@BEPBDXZ@usertype_storage_base@u_detail@sol@@QAEXPAUlua_State@@$$QAV?$basic_string@DU?$char_traits@D@std@@V?$allocator@D@2@@std@@$$QAP8IGameEvent@@BEPBDXZ@Z 00000000100f7010     LuaAPI.obj
 0001:000f6880       ??$call_with_@$00$0A@@?$binding@V?$basic_string@DU?$char_traits@D@std@@V?$allocator@D@2@@std@@P8IGameEvent@@BEPBDXZV3@@u_detail@sol@@SAHPAUlua_State@@PAX@Z 00000000100f7880     LuaAPI.obj
 0001:000f68d0       ??$index_call_with_@$00$0A@@?$binding@V?$basic_string@DU?$char_traits@D@std@@V?$allocator@D@2@@std@@P8IGameEvent@@BEPBDXZV3@@u_detail@sol@@SAHPAUlua_State@@PAX@Z 00000000100f78d0     LuaAPI.obj
 0001:000f6910       ??$call_with_@$0A@$0A@@?$binding@V?$basic_string@DU?$char_traits@D@std@@V?$allocator@D@2@@std@@P8IGameEvent@@BEPBDXZV3@@u_detail@sol@@SAHPAUlua_State@@PAX@Z 00000000100f7910     LuaAPI.obj
 0001:000f6960       ??$index_call_with_@$0A@$0A@@?$binding@V?$basic_string@DU?$char_traits@D@std@@V?$allocator@D@2@@std@@P8IGameEvent@@BEPBDXZV3@@u_detail@sol@@SAHPAUlua_State@@PAX@Z 00000000100f7960     LuaAPI.obj
 0001:000f69a0       ??$call@$0A@$0A@@?$binding@V?$basic_string@DU?$char_traits@D@std@@V?$allocator@D@2@@std@@P8IGameEvent@@BEPBDXZV3@@u_detail@sol@@SAHPAUlua_State@@@Z 00000000100f79a0     LuaAPI.obj
 0001:000f69b0       ??$index_call@$0A@@?$usertype_storage@VIGameEvent@@@u_detail@sol@@SAHPAUlua_State@@@Z 00000000100f79b0     LuaAPI.obj
 0001:000f69c0       ?data@?$binding@V?$basic_string@DU?$char_traits@D@std@@V?$allocator@D@2@@std@@P8IGameEvent@@BEPBDXZV3@@u_detail@sol@@UAEPAXXZ 00000000100f79c0     LuaAPI.obj
 0001:000f69d0       ??_G?$binding@V?$basic_string@DU?$char_traits@D@std@@V?$allocator@D@2@@std@@P8IGameEvent@@BEPBDXZV3@@u_detail@sol@@UAEPAXI@Z 00000000100f79d0     LuaAPI.obj
 0001:000f69f0       ??$call@AAP8IGameEvent@@BEPBDXZAAV1@@?$lua_call_wrapper@VIGameEvent@@P81@BEPBDXZ$00$0A@$0A@$0A@$00X@call_detail@sol@@SAHPAUlua_State@@AAP8IGameEvent@@BEPBDXZAAV4@@Z 00000000100f79f0     LuaAPI.obj
 0001:000f6a60       ??$call@$00$0A@@?$binding@V?$basic_string@DU?$char_traits@D@std@@V?$allocator@D@2@@std@@P8IGameEvent@@BEPBDXZV3@@u_detail@sol@@SAHPAUlua_State@@@Z 00000000100f7a60     LuaAPI.obj
 0001:000f6a70       ??$static_trampoline@$1??$call_@$00$0A@@?$binding@V?$basic_string@DU?$char_traits@D@std@@V?$allocator@D@2@@std@@P8IGameEvent@@BEPBDXZV3@@u_detail@sol@@SAHPAUlua_State@@@Z@detail@sol@@YAHPAUlua_State@@@Z 00000000100f7a70     LuaAPI.obj
 0001:000f6c00       ??$call@AAP8IGameEvent@@BEPBDXZAAV1@@?$lua_call_wrapper@VIGameEvent@@P81@BEPBDXZ$0A@$0A@$0A@$0A@$00X@call_detail@sol@@SAHPAUlua_State@@AAP8IGameEvent@@BEPBDXZAAV4@@Z 00000000100f7c00     LuaAPI.obj
 0001:000f6c70       ??$static_trampoline@$1??$call_@$0A@$0A@@?$binding@V?$basic_string@DU?$char_traits@D@std@@V?$allocator@D@2@@std@@P8IGameEvent@@BEPBDXZV3@@u_detail@sol@@SAHPAUlua_State@@@Z@detail@sol@@YAHPAUlua_State@@@Z 00000000100f7c70     LuaAPI.obj
 0001:000f6e00       ??$static_trampoline@$1??$index_call_@$0A@$0A@@?$usertype_storage@VIGameEvent@@@u_detail@sol@@SAHPAUlua_State@@@Z@detail@sol@@YAHPAUlua_State@@@Z 00000000100f7e00     LuaAPI.obj
 0001:000f6f60       ??$traverse_set@V?$basic_string@DU?$char_traits@D@std@@V?$allocator@D@2@@std@@P8IGameEvent@@BEPBDXZ@?$basic_table_core@$0A@V?$basic_reference@$0A@@sol@@@sol@@QAEAAV01@$$QAV?$basic_string@DU?$char_traits@D@std@@V?$allocator@D@2@@std@@$$QAP8IGameEvent@@BEPBDXZ@Z 00000000100f7f60     LuaAPI.obj
 0001:000f70b0       ?call@?$upvalue_this_member_function@VIGameEvent@@P81@BEPBDXZ$0A@@function_detail@sol@@SAHPAUlua_State@@@Z 00000000100f80b0     LuaAPI.obj
 0001:000f70c0       ??$static_trampoline@$1?real_call@?$upvalue_this_member_function@VIGameEvent@@P81@BEPBDXZ$0A@@function_detail@sol@@SAHPAUlua_State@@@Z@detail@sol@@YAHPAUlua_State@@@Z 00000000100f80c0     LuaAPI.obj
 0001:000f7250       ?user_gc_metatable@?$usertype_traits@P8IGameEvent@@BEPBDXZ@sol@@SAABV?$basic_string@DU?$char_traits@D@std@@V?$allocator@D@2@@std@@XZ 00000000100f8250     LuaAPI.obj
 0001:000f7640       ??$push_with@$00ABQBDP8IGameEvent@@BEPBDXZ@?$unqualified_pusher@U?$user@P8IGameEvent@@BEPBDXZ@sol@@X@stack@sol@@SAHPAUlua_State@@ABQBD$$QAP8IGameEvent@@BEPBDXZ@Z 00000000100f8640     LuaAPI.obj
 0001:000f76d0       ??$ctti_get_type_name@P8IGameEvent@@BEPBDXZ@detail@sol@@YA?AV?$basic_string@DU?$char_traits@D@std@@V?$allocator@D@2@@std@@XZ 00000000100f86d0     LuaAPI.obj
 0001:000f7760       ??$user_allocate@P8IGameEvent@@BEPBDXZ@detail@sol@@YAPAP8IGameEvent@@BEPBDXZPAUlua_State@@@Z 00000000100f8760     LuaAPI.obj
 0001:000f7970       ??$user_alloc_destruct@P8IGameEvent@@BEPBDXZ@detail@sol@@YAHPAUlua_State@@@Z 00000000100f8970     LuaAPI.obj
 0001:000f7990       ??$set@VIGameEvent@@V?$basic_string@DU?$char_traits@D@std@@V?$allocator@D@2@@std@@P81@AEPBDPBD0@Z@usertype_storage_base@u_detail@sol@@QAEXPAUlua_State@@$$QAV?$basic_string@DU?$char_traits@D@std@@V?$allocator@D@2@@std@@$$QAP8IGameEvent@@AEPBDPBD2@Z@Z 00000000100f8990     LuaAPI.obj
 0001:000f8200       ??$call_with_@$00$0A@@?$binding@V?$basic_string@DU?$char_traits@D@std@@V?$allocator@D@2@@std@@P8IGameEvent@@AEPBDPBD0@ZV3@@u_detail@sol@@SAHPAUlua_State@@PAX@Z 00000000100f9200     LuaAPI.obj
 0001:000f8210       ??$index_call_with_@$00$0A@@?$binding@V?$basic_string@DU?$char_traits@D@std@@V?$allocator@D@2@@std@@P8IGameEvent@@AEPBDPBD0@ZV3@@u_detail@sol@@SAHPAUlua_State@@PAX@Z 00000000100f9210     LuaAPI.obj
 0001:000f8250       ??$call_with_@$0A@$0A@@?$binding@V?$basic_string@DU?$char_traits@D@std@@V?$allocator@D@2@@std@@P8IGameEvent@@AEPBDPBD0@ZV3@@u_detail@sol@@SAHPAUlua_State@@PAX@Z 00000000100f9250     LuaAPI.obj
 0001:000f8260       ??$index_call_with_@$0A@$0A@@?$binding@V?$basic_string@DU?$char_traits@D@std@@V?$allocator@D@2@@std@@P8IGameEvent@@AEPBDPBD0@ZV3@@u_detail@sol@@SAHPAUlua_State@@PAX@Z 00000000100f9260     LuaAPI.obj
 0001:000f82a0       ??$call@$0A@$0A@@?$binding@V?$basic_string@DU?$char_traits@D@std@@V?$allocator@D@2@@std@@P8IGameEvent@@AEPBDPBD0@ZV3@@u_detail@sol@@SAHPAUlua_State@@@Z 00000000100f92a0     LuaAPI.obj
 0001:000f82b0       ?data@?$binding@V?$basic_string@DU?$char_traits@D@std@@V?$allocator@D@2@@std@@P8IGameEvent@@AEPBDPBD0@ZV3@@u_detail@sol@@UAEPAXXZ 00000000100f92b0     LuaAPI.obj
 0001:000f82c0       ??_G?$binding@V?$basic_string@DU?$char_traits@D@std@@V?$allocator@D@2@@std@@P8IGameEvent@@AEPBDPBD0@ZV3@@u_detail@sol@@UAEPAXI@Z 00000000100f92c0     LuaAPI.obj
 0001:000f82e0       ??$call_wrapped@VIGameEvent@@$00$0A@$0A@$0A@$00AAP81@AEPBDPBD0@Z$$V@call_detail@sol@@YAHPAUlua_State@@AAP8IGameEvent@@AEPBDPBD1@Z@Z 00000000100f92e0     LuaAPI.obj
 0001:000f83a0       ??$call@$00$0A@@?$binding@V?$basic_string@DU?$char_traits@D@std@@V?$allocator@D@2@@std@@P8IGameEvent@@AEPBDPBD0@ZV3@@u_detail@sol@@SAHPAUlua_State@@@Z 00000000100f93a0     LuaAPI.obj
 0001:000f83b0       ??$static_trampoline@$1??$call_@$00$0A@@?$binding@V?$basic_string@DU?$char_traits@D@std@@V?$allocator@D@2@@std@@P8IGameEvent@@AEPBDPBD0@ZV3@@u_detail@sol@@SAHPAUlua_State@@@Z@detail@sol@@YAHPAUlua_State@@@Z 00000000100f93b0     LuaAPI.obj
 0001:000f8500       ??$call_wrapped@VIGameEvent@@$0A@$0A@$0A@$0A@$00AAP81@AEPBDPBD0@Z$$V@call_detail@sol@@YAHPAUlua_State@@AAP8IGameEvent@@AEPBDPBD1@Z@Z 00000000100f9500     LuaAPI.obj
 0001:000f85c0       ??$static_trampoline@$1??$call_@$0A@$0A@@?$binding@V?$basic_string@DU?$char_traits@D@std@@V?$allocator@D@2@@std@@P8IGameEvent@@AEPBDPBD0@ZV3@@u_detail@sol@@SAHPAUlua_State@@@Z@detail@sol@@YAHPAUlua_State@@@Z 00000000100f95c0     LuaAPI.obj
 0001:000f8710       ??$traverse_set@V?$basic_string@DU?$char_traits@D@std@@V?$allocator@D@2@@std@@P8IGameEvent@@AEPBDPBD0@Z@?$basic_table_core@$0A@V?$basic_reference@$0A@@sol@@@sol@@QAEAAV01@$$QAV?$basic_string@DU?$char_traits@D@std@@V?$allocator@D@2@@std@@$$QAP8IGameEvent@@AEPBDPBD1@Z@Z 00000000100f9710     LuaAPI.obj
 0001:000f8860       ?call@?$upvalue_this_member_function@VIGameEvent@@P81@AEPBDPBD0@Z$0A@@function_detail@sol@@SAHPAUlua_State@@@Z 00000000100f9860     LuaAPI.obj
 0001:000f8870       ??$static_trampoline@$1?real_call@?$upvalue_this_member_function@VIGameEvent@@P81@AEPBDPBD0@Z$0A@@function_detail@sol@@SAHPAUlua_State@@@Z@detail@sol@@YAHPAUlua_State@@@Z 00000000100f9870     LuaAPI.obj
 0001:000f89c0       ?user_gc_metatable@?$usertype_traits@P8IGameEvent@@AEPBDPBD0@Z@sol@@SAABV?$basic_string@DU?$char_traits@D@std@@V?$allocator@D@2@@std@@XZ 00000000100f99c0     LuaAPI.obj
 0001:000f8db0       ??$push_with@$00ABQBDP8IGameEvent@@AEPBDPBD0@Z@?$unqualified_pusher@U?$user@P8IGameEvent@@AEPBDPBD0@Z@sol@@X@stack@sol@@SAHPAUlua_State@@ABQBD$$QAP8IGameEvent@@AEPBDPBD2@Z@Z 00000000100f9db0     LuaAPI.obj
 0001:000f8e40       ??$ctti_get_type_name@P8IGameEvent@@AEPBDPBD0@Z@detail@sol@@YA?AV?$basic_string@DU?$char_traits@D@std@@V?$allocator@D@2@@std@@XZ 00000000100f9e40     LuaAPI.obj
 0001:000f8ed0       ??$user_allocate@P8IGameEvent@@AEPBDPBD0@Z@detail@sol@@YAPAP8IGameEvent@@AEPBDPBD0@ZPAUlua_State@@@Z 00000000100f9ed0     LuaAPI.obj
 0001:000f90e0       ??$user_alloc_destruct@P8IGameEvent@@AEPBDPBD0@Z@detail@sol@@YAHPAUlua_State@@@Z 00000000100fa0e0     LuaAPI.obj
 0001:000f9100       ??$set@VIGameEvent@@V?$basic_string@DU?$char_traits@D@std@@V?$allocator@D@2@@std@@P81@AE_NPBD_N@Z@usertype_storage_base@u_detail@sol@@QAEXPAUlua_State@@$$QAV?$basic_string@DU?$char_traits@D@std@@V?$allocator@D@2@@std@@$$QAP8IGameEvent@@AE_NPBD_N@Z@Z 00000000100fa100     LuaAPI.obj
 0001:000f9970       ??$call_with_@$00$0A@@?$binding@V?$basic_string@DU?$char_traits@D@std@@V?$allocator@D@2@@std@@P8IGameEvent@@AE_NPBD_N@ZV3@@u_detail@sol@@SAHPAUlua_State@@PAX@Z 00000000100fa970     LuaAPI.obj
 0001:000f9a10       ??$index_call_with_@$00$0A@@?$binding@V?$basic_string@DU?$char_traits@D@std@@V?$allocator@D@2@@std@@P8IGameEvent@@AE_NPBD_N@ZV3@@u_detail@sol@@SAHPAUlua_State@@PAX@Z 00000000100faa10     LuaAPI.obj
 0001:000f9a50       ??$call_with_@$0A@$0A@@?$binding@V?$basic_string@DU?$char_traits@D@std@@V?$allocator@D@2@@std@@P8IGameEvent@@AE_NPBD_N@ZV3@@u_detail@sol@@SAHPAUlua_State@@PAX@Z 00000000100faa50     LuaAPI.obj
 0001:000f9af0       ??$index_call_with_@$0A@$0A@@?$binding@V?$basic_string@DU?$char_traits@D@std@@V?$allocator@D@2@@std@@P8IGameEvent@@AE_NPBD_N@ZV3@@u_detail@sol@@SAHPAUlua_State@@PAX@Z 00000000100faaf0     LuaAPI.obj
 0001:000f9b30       ??$call@$0A@$0A@@?$binding@V?$basic_string@DU?$char_traits@D@std@@V?$allocator@D@2@@std@@P8IGameEvent@@AE_NPBD_N@ZV3@@u_detail@sol@@SAHPAUlua_State@@@Z 00000000100fab30     LuaAPI.obj
 0001:000f9b40       ?data@?$binding@V?$basic_string@DU?$char_traits@D@std@@V?$allocator@D@2@@std@@P8IGameEvent@@AE_NPBD_N@ZV3@@u_detail@sol@@UAEPAXXZ 00000000100fab40     LuaAPI.obj
 0001:000f9b50       ??_G?$binding@V?$basic_string@DU?$char_traits@D@std@@V?$allocator@D@2@@std@@P8IGameEvent@@AE_NPBD_N@ZV3@@u_detail@sol@@UAEPAXI@Z 00000000100fab50     LuaAPI.obj
 0001:000f9b70       ??$call@$00$0A@@?$binding@V?$basic_string@DU?$char_traits@D@std@@V?$allocator@D@2@@std@@P8IGameEvent@@AE_NPBD_N@ZV3@@u_detail@sol@@SAHPAUlua_State@@@Z 00000000100fab70     LuaAPI.obj
 0001:000f9b80       ??$static_trampoline@$1??$call_@$00$0A@@?$binding@V?$basic_string@DU?$char_traits@D@std@@V?$allocator@D@2@@std@@P8IGameEvent@@AE_NPBD_N@ZV3@@u_detail@sol@@SAHPAUlua_State@@@Z@detail@sol@@YAHPAUlua_State@@@Z 00000000100fab80     LuaAPI.obj
 0001:000f9d50       ??$static_trampoline@$1??$call_@$0A@$0A@@?$binding@V?$basic_string@DU?$char_traits@D@std@@V?$allocator@D@2@@std@@P8IGameEvent@@AE_NPBD_N@ZV3@@u_detail@sol@@SAHPAUlua_State@@@Z@detail@sol@@YAHPAUlua_State@@@Z 00000000100fad50     LuaAPI.obj
 0001:000f9f20       ??$traverse_set@V?$basic_string@DU?$char_traits@D@std@@V?$allocator@D@2@@std@@P8IGameEvent@@AE_NPBD_N@Z@?$basic_table_core@$0A@V?$basic_reference@$0A@@sol@@@sol@@QAEAAV01@$$QAV?$basic_string@DU?$char_traits@D@std@@V?$allocator@D@2@@std@@$$QAP8IGameEvent@@AE_NPBD_N@Z@Z 00000000100faf20     LuaAPI.obj
 0001:000fa070       ?call@?$upvalue_this_member_function@VIGameEvent@@P81@AE_NPBD_N@Z$0A@@function_detail@sol@@SAHPAUlua_State@@@Z 00000000100fb070     LuaAPI.obj
 0001:000fa080       ??$static_trampoline@$1?real_call@?$upvalue_this_member_function@VIGameEvent@@P81@AE_NPBD_N@Z$0A@@function_detail@sol@@SAHPAUlua_State@@@Z@detail@sol@@YAHPAUlua_State@@@Z 00000000100fb080     LuaAPI.obj
 0001:000fa260       ?user_gc_metatable@?$usertype_traits@P8IGameEvent@@AE_NPBD_N@Z@sol@@SAABV?$basic_string@DU?$char_traits@D@std@@V?$allocator@D@2@@std@@XZ 00000000100fb260     LuaAPI.obj
 0001:000fa650       ??$push_with@$00ABQBDP8IGameEvent@@AE_NPBD_N@Z@?$unqualified_pusher@U?$user@P8IGameEvent@@AE_NPBD_N@Z@sol@@X@stack@sol@@SAHPAUlua_State@@ABQBD$$QAP8IGameEvent@@AE_NPBD_N@Z@Z 00000000100fb650     LuaAPI.obj
 0001:000fa6e0       ??$ctti_get_type_name@P8IGameEvent@@AE_NPBD_N@Z@detail@sol@@YA?AV?$basic_string@DU?$char_traits@D@std@@V?$allocator@D@2@@std@@XZ 00000000100fb6e0     LuaAPI.obj
 0001:000fa770       ??$user_allocate@P8IGameEvent@@AE_NPBD_N@Z@detail@sol@@YAPAP8IGameEvent@@AE_NPBD_N@ZPAUlua_State@@@Z 00000000100fb770     LuaAPI.obj
 0001:000fa980       ??$user_alloc_destruct@P8IGameEvent@@AE_NPBD_N@Z@detail@sol@@YAHPAUlua_State@@@Z 00000000100fb980     LuaAPI.obj
 0001:000fa9a0       ??$set@VIGameEvent@@V?$basic_string@DU?$char_traits@D@std@@V?$allocator@D@2@@std@@P81@AEHPBDH@Z@usertype_storage_base@u_detail@sol@@QAEXPAUlua_State@@$$QAV?$basic_string@DU?$char_traits@D@std@@V?$allocator@D@2@@std@@$$QAP8IGameEvent@@AEHPBDH@Z@Z 00000000100fb9a0     LuaAPI.obj
 0001:000fb210       ??$call_with_@$00$0A@@?$binding@V?$basic_string@DU?$char_traits@D@std@@V?$allocator@D@2@@std@@P8IGameEvent@@AEHPBDH@ZV3@@u_detail@sol@@SAHPAUlua_State@@PAX@Z 00000000100fc210     LuaAPI.obj
 0001:000fb2c0       ??$index_call_with_@$00$0A@@?$binding@V?$basic_string@DU?$char_traits@D@std@@V?$allocator@D@2@@std@@P8IGameEvent@@AEHPBDH@ZV3@@u_detail@sol@@SAHPAUlua_State@@PAX@Z 00000000100fc2c0     LuaAPI.obj
 0001:000fb300       ??$call_with_@$0A@$0A@@?$binding@V?$basic_string@DU?$char_traits@D@std@@V?$allocator@D@2@@std@@P8IGameEvent@@AEHPBDH@ZV3@@u_detail@sol@@SAHPAUlua_State@@PAX@Z 00000000100fc300     LuaAPI.obj
 0001:000fb3b0       ??$index_call_with_@$0A@$0A@@?$binding@V?$basic_string@DU?$char_traits@D@std@@V?$allocator@D@2@@std@@P8IGameEvent@@AEHPBDH@ZV3@@u_detail@sol@@SAHPAUlua_State@@PAX@Z 00000000100fc3b0     LuaAPI.obj
 0001:000fb3f0       ??$call@$0A@$0A@@?$binding@V?$basic_string@DU?$char_traits@D@std@@V?$allocator@D@2@@std@@P8IGameEvent@@AEHPBDH@ZV3@@u_detail@sol@@SAHPAUlua_State@@@Z 00000000100fc3f0     LuaAPI.obj
 0001:000fb400       ?data@?$binding@V?$basic_string@DU?$char_traits@D@std@@V?$allocator@D@2@@std@@P8IGameEvent@@AEHPBDH@ZV3@@u_detail@sol@@UAEPAXXZ 00000000100fc400     LuaAPI.obj
 0001:000fb410       ??_G?$binding@V?$basic_string@DU?$char_traits@D@std@@V?$allocator@D@2@@std@@P8IGameEvent@@AEHPBDH@ZV3@@u_detail@sol@@UAEPAXI@Z 00000000100fc410     LuaAPI.obj
 0001:000fb430       ??$call@$00$0A@@?$binding@V?$basic_string@DU?$char_traits@D@std@@V?$allocator@D@2@@std@@P8IGameEvent@@AEHPBDH@ZV3@@u_detail@sol@@SAHPAUlua_State@@@Z 00000000100fc430     LuaAPI.obj
 0001:000fb440       ??$static_trampoline@$1??$call_@$00$0A@@?$binding@V?$basic_string@DU?$char_traits@D@std@@V?$allocator@D@2@@std@@P8IGameEvent@@AEHPBDH@ZV3@@u_detail@sol@@SAHPAUlua_State@@@Z@detail@sol@@YAHPAUlua_State@@@Z 00000000100fc440     LuaAPI.obj
 0001:000fb620       ??$static_trampoline@$1??$call_@$0A@$0A@@?$binding@V?$basic_string@DU?$char_traits@D@std@@V?$allocator@D@2@@std@@P8IGameEvent@@AEHPBDH@ZV3@@u_detail@sol@@SAHPAUlua_State@@@Z@detail@sol@@YAHPAUlua_State@@@Z 00000000100fc620     LuaAPI.obj
 0001:000fb800       ??$traverse_set@V?$basic_string@DU?$char_traits@D@std@@V?$allocator@D@2@@std@@P8IGameEvent@@AEHPBDH@Z@?$basic_table_core@$0A@V?$basic_reference@$0A@@sol@@@sol@@QAEAAV01@$$QAV?$basic_string@DU?$char_traits@D@std@@V?$allocator@D@2@@std@@$$QAP8IGameEvent@@AEHPBDH@Z@Z 00000000100fc800     LuaAPI.obj
 0001:000fb950       ?call@?$upvalue_this_member_function@VIGameEvent@@P81@AEHPBDH@Z$0A@@function_detail@sol@@SAHPAUlua_State@@@Z 00000000100fc950     LuaAPI.obj
 0001:000fb960       ??$static_trampoline@$1?real_call@?$upvalue_this_member_function@VIGameEvent@@P81@AEHPBDH@Z$0A@@function_detail@sol@@SAHPAUlua_State@@@Z@detail@sol@@YAHPAUlua_State@@@Z 00000000100fc960     LuaAPI.obj
 0001:000fbb40       ?user_gc_metatable@?$usertype_traits@P8IGameEvent@@AEHPBDH@Z@sol@@SAABV?$basic_string@DU?$char_traits@D@std@@V?$allocator@D@2@@std@@XZ 00000000100fcb40     LuaAPI.obj
 0001:000fbf30       ??$push_with@$00ABQBDP8IGameEvent@@AEHPBDH@Z@?$unqualified_pusher@U?$user@P8IGameEvent@@AEHPBDH@Z@sol@@X@stack@sol@@SAHPAUlua_State@@ABQBD$$QAP8IGameEvent@@AEHPBDH@Z@Z 00000000100fcf30     LuaAPI.obj
 0001:000fbfc0       ??$ctti_get_type_name@P8IGameEvent@@AEHPBDH@Z@detail@sol@@YA?AV?$basic_string@DU?$char_traits@D@std@@V?$allocator@D@2@@std@@XZ 00000000100fcfc0     LuaAPI.obj
 0001:000fc050       ??$user_allocate@P8IGameEvent@@AEHPBDH@Z@detail@sol@@YAPAP8IGameEvent@@AEHPBDH@ZPAUlua_State@@@Z 00000000100fd050     LuaAPI.obj
 0001:000fc260       ??$user_alloc_destruct@P8IGameEvent@@AEHPBDH@Z@detail@sol@@YAHPAUlua_State@@@Z 00000000100fd260     LuaAPI.obj
 0001:000fc280       ??$set@VIGameEvent@@V?$basic_string@DU?$char_traits@D@std@@V?$allocator@D@2@@std@@P81@AEMPBDM@Z@usertype_storage_base@u_detail@sol@@QAEXPAUlua_State@@$$QAV?$basic_string@DU?$char_traits@D@std@@V?$allocator@D@2@@std@@$$QAP8IGameEvent@@AEMPBDM@Z@Z 00000000100fd280     LuaAPI.obj
 0001:000fcaf0       ??$call_with_@$00$0A@@?$binding@V?$basic_string@DU?$char_traits@D@std@@V?$allocator@D@2@@std@@P8IGameEvent@@AEMPBDM@ZV3@@u_detail@sol@@SAHPAUlua_State@@PAX@Z 00000000100fdaf0     LuaAPI.obj
 0001:000fcb90       ??$index_call_with_@$00$0A@@?$binding@V?$basic_string@DU?$char_traits@D@std@@V?$allocator@D@2@@std@@P8IGameEvent@@AEMPBDM@ZV3@@u_detail@sol@@SAHPAUlua_State@@PAX@Z 00000000100fdb90     LuaAPI.obj
 0001:000fcbd0       ??$call_with_@$0A@$0A@@?$binding@V?$basic_string@DU?$char_traits@D@std@@V?$allocator@D@2@@std@@P8IGameEvent@@AEMPBDM@ZV3@@u_detail@sol@@SAHPAUlua_State@@PAX@Z 00000000100fdbd0     LuaAPI.obj
 0001:000fcc70       ??$index_call_with_@$0A@$0A@@?$binding@V?$basic_string@DU?$char_traits@D@std@@V?$allocator@D@2@@std@@P8IGameEvent@@AEMPBDM@ZV3@@u_detail@sol@@SAHPAUlua_State@@PAX@Z 00000000100fdc70     LuaAPI.obj
 0001:000fccb0       ??$call@$0A@$0A@@?$binding@V?$basic_string@DU?$char_traits@D@std@@V?$allocator@D@2@@std@@P8IGameEvent@@AEMPBDM@ZV3@@u_detail@sol@@SAHPAUlua_State@@@Z 00000000100fdcb0     LuaAPI.obj
 0001:000fccc0       ?data@?$binding@V?$basic_string@DU?$char_traits@D@std@@V?$allocator@D@2@@std@@P8IGameEvent@@AEMPBDM@ZV3@@u_detail@sol@@UAEPAXXZ 00000000100fdcc0     LuaAPI.obj
 0001:000fccd0       ??_G?$binding@V?$basic_string@DU?$char_traits@D@std@@V?$allocator@D@2@@std@@P8IGameEvent@@AEMPBDM@ZV3@@u_detail@sol@@UAEPAXI@Z 00000000100fdcd0     LuaAPI.obj
 0001:000fccf0       ??$call@$00$0A@@?$binding@V?$basic_string@DU?$char_traits@D@std@@V?$allocator@D@2@@std@@P8IGameEvent@@AEMPBDM@ZV3@@u_detail@sol@@SAHPAUlua_State@@@Z 00000000100fdcf0     LuaAPI.obj
 0001:000fcd00       ??$static_trampoline@$1??$call_@$00$0A@@?$binding@V?$basic_string@DU?$char_traits@D@std@@V?$allocator@D@2@@std@@P8IGameEvent@@AEMPBDM@ZV3@@u_detail@sol@@SAHPAUlua_State@@@Z@detail@sol@@YAHPAUlua_State@@@Z 00000000100fdd00     LuaAPI.obj
 0001:000fcee0       ??$static_trampoline@$1??$call_@$0A@$0A@@?$binding@V?$basic_string@DU?$char_traits@D@std@@V?$allocator@D@2@@std@@P8IGameEvent@@AEMPBDM@ZV3@@u_detail@sol@@SAHPAUlua_State@@@Z@detail@sol@@YAHPAUlua_State@@@Z 00000000100fdee0     LuaAPI.obj
 0001:000fd0c0       ??$traverse_set@V?$basic_string@DU?$char_traits@D@std@@V?$allocator@D@2@@std@@P8IGameEvent@@AEMPBDM@Z@?$basic_table_core@$0A@V?$basic_reference@$0A@@sol@@@sol@@QAEAAV01@$$QAV?$basic_string@DU?$char_traits@D@std@@V?$allocator@D@2@@std@@$$QAP8IGameEvent@@AEMPBDM@Z@Z 00000000100fe0c0     LuaAPI.obj
 0001:000fd210       ?call@?$upvalue_this_member_function@VIGameEvent@@P81@AEMPBDM@Z$0A@@function_detail@sol@@SAHPAUlua_State@@@Z 00000000100fe210     LuaAPI.obj
 0001:000fd220       ??$static_trampoline@$1?real_call@?$upvalue_this_member_function@VIGameEvent@@P81@AEMPBDM@Z$0A@@function_detail@sol@@SAHPAUlua_State@@@Z@detail@sol@@YAHPAUlua_State@@@Z 00000000100fe220     LuaAPI.obj
 0001:000fd410       ?user_gc_metatable@?$usertype_traits@P8IGameEvent@@AEMPBDM@Z@sol@@SAABV?$basic_string@DU?$char_traits@D@std@@V?$allocator@D@2@@std@@XZ 00000000100fe410     LuaAPI.obj
 0001:000fd800       ??$push_with@$00ABQBDP8IGameEvent@@AEMPBDM@Z@?$unqualified_pusher@U?$user@P8IGameEvent@@AEMPBDM@Z@sol@@X@stack@sol@@SAHPAUlua_State@@ABQBD$$QAP8IGameEvent@@AEMPBDM@Z@Z 00000000100fe800     LuaAPI.obj
 0001:000fd890       ??$ctti_get_type_name@P8IGameEvent@@AEMPBDM@Z@detail@sol@@YA?AV?$basic_string@DU?$char_traits@D@std@@V?$allocator@D@2@@std@@XZ 00000000100fe890     LuaAPI.obj
 0001:000fd920       ??$user_allocate@P8IGameEvent@@AEMPBDM@Z@detail@sol@@YAPAP8IGameEvent@@AEMPBDM@ZPAUlua_State@@@Z 00000000100fe920     LuaAPI.obj
 0001:000fdb30       ??$user_alloc_destruct@P8IGameEvent@@AEMPBDM@Z@detail@sol@@YAHPAUlua_State@@@Z 00000000100feb30     LuaAPI.obj
 0001:000fdb50       ??$set@VIGameEvent@@V?$basic_string@DU?$char_traits@D@std@@V?$allocator@D@2@@std@@P81@AEXPBD0@Z@usertype_storage_base@u_detail@sol@@QAEXPAUlua_State@@$$QAV?$basic_string@DU?$char_traits@D@std@@V?$allocator@D@2@@std@@$$QAP8IGameEvent@@AEXPBD2@Z@Z 00000000100feb50     LuaAPI.obj
 0001:000fe3c0       ??$call_with_@$00$0A@@?$binding@V?$basic_string@DU?$char_traits@D@std@@V?$allocator@D@2@@std@@P8IGameEvent@@AEXPBD0@ZV3@@u_detail@sol@@SAHPAUlua_State@@PAX@Z 00000000100ff3c0     LuaAPI.obj
 0001:000fe440       ??$index_call_with_@$00$0A@@?$binding@V?$basic_string@DU?$char_traits@D@std@@V?$allocator@D@2@@std@@P8IGameEvent@@AEXPBD0@ZV3@@u_detail@sol@@SAHPAUlua_State@@PAX@Z 00000000100ff440     LuaAPI.obj
 0001:000fe480       ??$call_with_@$0A@$0A@@?$binding@V?$basic_string@DU?$char_traits@D@std@@V?$allocator@D@2@@std@@P8IGameEvent@@AEXPBD0@ZV3@@u_detail@sol@@SAHPAUlua_State@@PAX@Z 00000000100ff480     LuaAPI.obj
 0001:000fe500       ??$index_call_with_@$0A@$0A@@?$binding@V?$basic_string@DU?$char_traits@D@std@@V?$allocator@D@2@@std@@P8IGameEvent@@AEXPBD0@ZV3@@u_detail@sol@@SAHPAUlua_State@@PAX@Z 00000000100ff500     LuaAPI.obj
 0001:000fe540       ??$call@$0A@$0A@@?$binding@V?$basic_string@DU?$char_traits@D@std@@V?$allocator@D@2@@std@@P8IGameEvent@@AEXPBD0@ZV3@@u_detail@sol@@SAHPAUlua_State@@@Z 00000000100ff540     LuaAPI.obj
 0001:000fe550       ?data@?$binding@V?$basic_string@DU?$char_traits@D@std@@V?$allocator@D@2@@std@@P8IGameEvent@@AEXPBD0@ZV3@@u_detail@sol@@UAEPAXXZ 00000000100ff550     LuaAPI.obj
 0001:000fe560       ??_G?$binding@V?$basic_string@DU?$char_traits@D@std@@V?$allocator@D@2@@std@@P8IGameEvent@@AEXPBD0@ZV3@@u_detail@sol@@UAEPAXI@Z 00000000100ff560     LuaAPI.obj
 0001:000fe580       ??$call@$00$0A@@?$binding@V?$basic_string@DU?$char_traits@D@std@@V?$allocator@D@2@@std@@P8IGameEvent@@AEXPBD0@ZV3@@u_detail@sol@@SAHPAUlua_State@@@Z 00000000100ff580     LuaAPI.obj
 0001:000fe590       ??$static_trampoline@$1??$call_@$00$0A@@?$binding@V?$basic_string@DU?$char_traits@D@std@@V?$allocator@D@2@@std@@P8IGameEvent@@AEXPBD0@ZV3@@u_detail@sol@@SAHPAUlua_State@@@Z@detail@sol@@YAHPAUlua_State@@@Z 00000000100ff590     LuaAPI.obj
 0001:000fe740       ??$static_trampoline@$1??$call_@$0A@$0A@@?$binding@V?$basic_string@DU?$char_traits@D@std@@V?$allocator@D@2@@std@@P8IGameEvent@@AEXPBD0@ZV3@@u_detail@sol@@SAHPAUlua_State@@@Z@detail@sol@@YAHPAUlua_State@@@Z 00000000100ff740     LuaAPI.obj
 0001:000fe8f0       ??$traverse_set@V?$basic_string@DU?$char_traits@D@std@@V?$allocator@D@2@@std@@P8IGameEvent@@AEXPBD0@Z@?$basic_table_core@$0A@V?$basic_reference@$0A@@sol@@@sol@@QAEAAV01@$$QAV?$basic_string@DU?$char_traits@D@std@@V?$allocator@D@2@@std@@$$QAP8IGameEvent@@AEXPBD1@Z@Z 00000000100ff8f0     LuaAPI.obj
 0001:000fea40       ?call@?$upvalue_this_member_function@VIGameEvent@@P81@AEXPBD0@Z$0A@@function_detail@sol@@SAHPAUlua_State@@@Z 00000000100ffa40     LuaAPI.obj
 0001:000fea50       ??$static_trampoline@$1?real_call@?$upvalue_this_member_function@VIGameEvent@@P81@AEXPBD0@Z$0A@@function_detail@sol@@SAHPAUlua_State@@@Z@detail@sol@@YAHPAUlua_State@@@Z 00000000100ffa50     LuaAPI.obj
 0001:000fec10       ?user_gc_metatable@?$usertype_traits@P8IGameEvent@@AEXPBD0@Z@sol@@SAABV?$basic_string@DU?$char_traits@D@std@@V?$allocator@D@2@@std@@XZ 00000000100ffc10     LuaAPI.obj
 0001:000ff000       ??$push_with@$00ABQBDP8IGameEvent@@AEXPBD0@Z@?$unqualified_pusher@U?$user@P8IGameEvent@@AEXPBD0@Z@sol@@X@stack@sol@@SAHPAUlua_State@@ABQBD$$QAP8IGameEvent@@AEXPBD2@Z@Z 0000000010100000     LuaAPI.obj
 0001:000ff090       ??$ctti_get_type_name@P8IGameEvent@@AEXPBD0@Z@detail@sol@@YA?AV?$basic_string@DU?$char_traits@D@std@@V?$allocator@D@2@@std@@XZ 0000000010100090     LuaAPI.obj
 0001:000ff120       ??$user_allocate@P8IGameEvent@@AEXPBD0@Z@detail@sol@@YAPAP8IGameEvent@@AEXPBD0@ZPAUlua_State@@@Z 0000000010100120     LuaAPI.obj
 0001:000ff330       ??$user_alloc_destruct@P8IGameEvent@@AEXPBD0@Z@detail@sol@@YAHPAUlua_State@@@Z 0000000010100330     LuaAPI.obj
 0001:000ff350       ??$set@VIGameEvent@@V?$basic_string@DU?$char_traits@D@std@@V?$allocator@D@2@@std@@P81@AEXPBD_N@Z@usertype_storage_base@u_detail@sol@@QAEXPAUlua_State@@$$QAV?$basic_string@DU?$char_traits@D@std@@V?$allocator@D@2@@std@@$$QAP8IGameEvent@@AEXPBD_N@Z@Z 0000000010100350     LuaAPI.obj
 0001:000ffbc0       ??$call_with_@$00$0A@@?$binding@V?$basic_string@DU?$char_traits@D@std@@V?$allocator@D@2@@std@@P8IGameEvent@@AEXPBD_N@ZV3@@u_detail@sol@@SAHPAUlua_State@@PAX@Z 0000000010100bc0     LuaAPI.obj
 0001:000ffc50       ??$index_call_with_@$00$0A@@?$binding@V?$basic_string@DU?$char_traits@D@std@@V?$allocator@D@2@@std@@P8IGameEvent@@AEXPBD_N@ZV3@@u_detail@sol@@SAHPAUlua_State@@PAX@Z 0000000010100c50     LuaAPI.obj
 0001:000ffc90       ??$call_with_@$0A@$0A@@?$binding@V?$basic_string@DU?$char_traits@D@std@@V?$allocator@D@2@@std@@P8IGameEvent@@AEXPBD_N@ZV3@@u_detail@sol@@SAHPAUlua_State@@PAX@Z 0000000010100c90     LuaAPI.obj
 0001:000ffd20       ??$index_call_with_@$0A@$0A@@?$binding@V?$basic_string@DU?$char_traits@D@std@@V?$allocator@D@2@@std@@P8IGameEvent@@AEXPBD_N@ZV3@@u_detail@sol@@SAHPAUlua_State@@PAX@Z 0000000010100d20     LuaAPI.obj
 0001:000ffd60       ??$call@$0A@$0A@@?$binding@V?$basic_string@DU?$char_traits@D@std@@V?$allocator@D@2@@std@@P8IGameEvent@@AEXPBD_N@ZV3@@u_detail@sol@@SAHPAUlua_State@@@Z 0000000010100d60     LuaAPI.obj
 0001:000ffd70       ?data@?$binding@V?$basic_string@DU?$char_traits@D@std@@V?$allocator@D@2@@std@@P8IGameEvent@@AEXPBD_N@ZV3@@u_detail@sol@@UAEPAXXZ 0000000010100d70     LuaAPI.obj
 0001:000ffd80       ??_G?$binding@V?$basic_string@DU?$char_traits@D@std@@V?$allocator@D@2@@std@@P8IGameEvent@@AEXPBD_N@ZV3@@u_detail@sol@@UAEPAXI@Z 0000000010100d80     LuaAPI.obj
 0001:000ffda0       ??$call@$00$0A@@?$binding@V?$basic_string@DU?$char_traits@D@std@@V?$allocator@D@2@@std@@P8IGameEvent@@AEXPBD_N@ZV3@@u_detail@sol@@SAHPAUlua_State@@@Z 0000000010100da0     LuaAPI.obj
 0001:000ffdb0       ??$static_trampoline@$1??$call_@$00$0A@@?$binding@V?$basic_string@DU?$char_traits@D@std@@V?$allocator@D@2@@std@@P8IGameEvent@@AEXPBD_N@ZV3@@u_detail@sol@@SAHPAUlua_State@@@Z@detail@sol@@YAHPAUlua_State@@@Z 0000000010100db0     LuaAPI.obj
 0001:000fff70       ??$static_trampoline@$1??$call_@$0A@$0A@@?$binding@V?$basic_string@DU?$char_traits@D@std@@V?$allocator@D@2@@std@@P8IGameEvent@@AEXPBD_N@ZV3@@u_detail@sol@@SAHPAUlua_State@@@Z@detail@sol@@YAHPAUlua_State@@@Z 0000000010100f70     LuaAPI.obj
 0001:00100130       ??$traverse_set@V?$basic_string@DU?$char_traits@D@std@@V?$allocator@D@2@@std@@P8IGameEvent@@AEXPBD_N@Z@?$basic_table_core@$0A@V?$basic_reference@$0A@@sol@@@sol@@QAEAAV01@$$QAV?$basic_string@DU?$char_traits@D@std@@V?$allocator@D@2@@std@@$$QAP8IGameEvent@@AEXPBD_N@Z@Z 0000000010101130     LuaAPI.obj
 0001:00100280       ?call@?$upvalue_this_member_function@VIGameEvent@@P81@AEXPBD_N@Z$0A@@function_detail@sol@@SAHPAUlua_State@@@Z 0000000010101280     LuaAPI.obj
 0001:00100290       ??$static_trampoline@$1?real_call@?$upvalue_this_member_function@VIGameEvent@@P81@AEXPBD_N@Z$0A@@function_detail@sol@@SAHPAUlua_State@@@Z@detail@sol@@YAHPAUlua_State@@@Z 0000000010101290     LuaAPI.obj
 0001:00100450       ?user_gc_metatable@?$usertype_traits@P8IGameEvent@@AEXPBD_N@Z@sol@@SAABV?$basic_string@DU?$char_traits@D@std@@V?$allocator@D@2@@std@@XZ 0000000010101450     LuaAPI.obj
 0001:00100840       ??$push_with@$00ABQBDP8IGameEvent@@AEXPBD_N@Z@?$unqualified_pusher@U?$user@P8IGameEvent@@AEXPBD_N@Z@sol@@X@stack@sol@@SAHPAUlua_State@@ABQBD$$QAP8IGameEvent@@AEXPBD_N@Z@Z 0000000010101840     LuaAPI.obj
 0001:001008d0       ??$ctti_get_type_name@P8IGameEvent@@AEXPBD_N@Z@detail@sol@@YA?AV?$basic_string@DU?$char_traits@D@std@@V?$allocator@D@2@@std@@XZ 00000000101018d0     LuaAPI.obj
 0001:00100960       ??$user_allocate@P8IGameEvent@@AEXPBD_N@Z@detail@sol@@YAPAP8IGameEvent@@AEXPBD_N@ZPAUlua_State@@@Z 0000000010101960     LuaAPI.obj
 0001:00100b70       ??$user_alloc_destruct@P8IGameEvent@@AEXPBD_N@Z@detail@sol@@YAHPAUlua_State@@@Z 0000000010101b70     LuaAPI.obj
 0001:00100b90       ??$set@VIGameEvent@@V?$basic_string@DU?$char_traits@D@std@@V?$allocator@D@2@@std@@P81@AEXPBDH@Z@usertype_storage_base@u_detail@sol@@QAEXPAUlua_State@@$$QAV?$basic_string@DU?$char_traits@D@std@@V?$allocator@D@2@@std@@$$QAP8IGameEvent@@AEXPBDH@Z@Z 0000000010101b90     LuaAPI.obj
 0001:00101400       ??$call_with_@$00$0A@@?$binding@V?$basic_string@DU?$char_traits@D@std@@V?$allocator@D@2@@std@@P8IGameEvent@@AEXPBDH@ZV3@@u_detail@sol@@SAHPAUlua_State@@PAX@Z 0000000010102400     LuaAPI.obj
 0001:00101490       ??$index_call_with_@$00$0A@@?$binding@V?$basic_string@DU?$char_traits@D@std@@V?$allocator@D@2@@std@@P8IGameEvent@@AEXPBDH@ZV3@@u_detail@sol@@SAHPAUlua_State@@PAX@Z 0000000010102490     LuaAPI.obj
 0001:001014d0       ??$call_with_@$0A@$0A@@?$binding@V?$basic_string@DU?$char_traits@D@std@@V?$allocator@D@2@@std@@P8IGameEvent@@AEXPBDH@ZV3@@u_detail@sol@@SAHPAUlua_State@@PAX@Z 00000000101024d0     LuaAPI.obj
 0001:00101560       ??$index_call_with_@$0A@$0A@@?$binding@V?$basic_string@DU?$char_traits@D@std@@V?$allocator@D@2@@std@@P8IGameEvent@@AEXPBDH@ZV3@@u_detail@sol@@SAHPAUlua_State@@PAX@Z 0000000010102560     LuaAPI.obj
 0001:001015a0       ??$call@$0A@$0A@@?$binding@V?$basic_string@DU?$char_traits@D@std@@V?$allocator@D@2@@std@@P8IGameEvent@@AEXPBDH@ZV3@@u_detail@sol@@SAHPAUlua_State@@@Z 00000000101025a0     LuaAPI.obj
 0001:001015b0       ?data@?$binding@V?$basic_string@DU?$char_traits@D@std@@V?$allocator@D@2@@std@@P8IGameEvent@@AEXPBDH@ZV3@@u_detail@sol@@UAEPAXXZ 00000000101025b0     LuaAPI.obj
 0001:001015c0       ??_G?$binding@V?$basic_string@DU?$char_traits@D@std@@V?$allocator@D@2@@std@@P8IGameEvent@@AEXPBDH@ZV3@@u_detail@sol@@UAEPAXI@Z 00000000101025c0     LuaAPI.obj
 0001:001015e0       ??$call@$00$0A@@?$binding@V?$basic_string@DU?$char_traits@D@std@@V?$allocator@D@2@@std@@P8IGameEvent@@AEXPBDH@ZV3@@u_detail@sol@@SAHPAUlua_State@@@Z 00000000101025e0     LuaAPI.obj
 0001:001015f0       ??$static_trampoline@$1??$call_@$00$0A@@?$binding@V?$basic_string@DU?$char_traits@D@std@@V?$allocator@D@2@@std@@P8IGameEvent@@AEXPBDH@ZV3@@u_detail@sol@@SAHPAUlua_State@@@Z@detail@sol@@YAHPAUlua_State@@@Z 00000000101025f0     LuaAPI.obj
 0001:001017b0       ??$static_trampoline@$1??$call_@$0A@$0A@@?$binding@V?$basic_string@DU?$char_traits@D@std@@V?$allocator@D@2@@std@@P8IGameEvent@@AEXPBDH@ZV3@@u_detail@sol@@SAHPAUlua_State@@@Z@detail@sol@@YAHPAUlua_State@@@Z 00000000101027b0     LuaAPI.obj
 0001:00101970       ??$traverse_set@V?$basic_string@DU?$char_traits@D@std@@V?$allocator@D@2@@std@@P8IGameEvent@@AEXPBDH@Z@?$basic_table_core@$0A@V?$basic_reference@$0A@@sol@@@sol@@QAEAAV01@$$QAV?$basic_string@DU?$char_traits@D@std@@V?$allocator@D@2@@std@@$$QAP8IGameEvent@@AEXPBDH@Z@Z 0000000010102970     LuaAPI.obj
 0001:00101ac0       ?call@?$upvalue_this_member_function@VIGameEvent@@P81@AEXPBDH@Z$0A@@function_detail@sol@@SAHPAUlua_State@@@Z 0000000010102ac0     LuaAPI.obj
 0001:00101ad0       ??$static_trampoline@$1?real_call@?$upvalue_this_member_function@VIGameEvent@@P81@AEXPBDH@Z$0A@@function_detail@sol@@SAHPAUlua_State@@@Z@detail@sol@@YAHPAUlua_State@@@Z 0000000010102ad0     LuaAPI.obj
 0001:00101c90       ?user_gc_metatable@?$usertype_traits@P8IGameEvent@@AEXPBDH@Z@sol@@SAABV?$basic_string@DU?$char_traits@D@std@@V?$allocator@D@2@@std@@XZ 0000000010102c90     LuaAPI.obj
 0001:00102080       ??$push_with@$00ABQBDP8IGameEvent@@AEXPBDH@Z@?$unqualified_pusher@U?$user@P8IGameEvent@@AEXPBDH@Z@sol@@X@stack@sol@@SAHPAUlua_State@@ABQBD$$QAP8IGameEvent@@AEXPBDH@Z@Z 0000000010103080     LuaAPI.obj
 0001:00102110       ??$ctti_get_type_name@P8IGameEvent@@AEXPBDH@Z@detail@sol@@YA?AV?$basic_string@DU?$char_traits@D@std@@V?$allocator@D@2@@std@@XZ 0000000010103110     LuaAPI.obj
 0001:001021a0       ??$user_allocate@P8IGameEvent@@AEXPBDH@Z@detail@sol@@YAPAP8IGameEvent@@AEXPBDH@ZPAUlua_State@@@Z 00000000101031a0     LuaAPI.obj
 0001:001023b0       ??$user_alloc_destruct@P8IGameEvent@@AEXPBDH@Z@detail@sol@@YAHPAUlua_State@@@Z 00000000101033b0     LuaAPI.obj
 0001:001023d0       ??$set@VIGameEvent@@V?$basic_string@DU?$char_traits@D@std@@V?$allocator@D@2@@std@@P81@AEXPBDM@Z@usertype_storage_base@u_detail@sol@@QAEXPAUlua_State@@$$QAV?$basic_string@DU?$char_traits@D@std@@V?$allocator@D@2@@std@@$$QAP8IGameEvent@@AEXPBDM@Z@Z 00000000101033d0     LuaAPI.obj
 0001:00102c40       ??$call_with_@$00$0A@@?$binding@V?$basic_string@DU?$char_traits@D@std@@V?$allocator@D@2@@std@@P8IGameEvent@@AEXPBDM@ZV3@@u_detail@sol@@SAHPAUlua_State@@PAX@Z 0000000010103c40     LuaAPI.obj
 0001:00102cc0       ??$index_call_with_@$00$0A@@?$binding@V?$basic_string@DU?$char_traits@D@std@@V?$allocator@D@2@@std@@P8IGameEvent@@AEXPBDM@ZV3@@u_detail@sol@@SAHPAUlua_State@@PAX@Z 0000000010103cc0     LuaAPI.obj
 0001:00102d00       ??$call_with_@$0A@$0A@@?$binding@V?$basic_string@DU?$char_traits@D@std@@V?$allocator@D@2@@std@@P8IGameEvent@@AEXPBDM@ZV3@@u_detail@sol@@SAHPAUlua_State@@PAX@Z 0000000010103d00     LuaAPI.obj
 0001:00102d80       ??$index_call_with_@$0A@$0A@@?$binding@V?$basic_string@DU?$char_traits@D@std@@V?$allocator@D@2@@std@@P8IGameEvent@@AEXPBDM@ZV3@@u_detail@sol@@SAHPAUlua_State@@PAX@Z 0000000010103d80     LuaAPI.obj
 0001:00102dc0       ??$call@$0A@$0A@@?$binding@V?$basic_string@DU?$char_traits@D@std@@V?$allocator@D@2@@std@@P8IGameEvent@@AEXPBDM@ZV3@@u_detail@sol@@SAHPAUlua_State@@@Z 0000000010103dc0     LuaAPI.obj
 0001:00102dd0       ?data@?$binding@V?$basic_string@DU?$char_traits@D@std@@V?$allocator@D@2@@std@@P8IGameEvent@@AEXPBDM@ZV3@@u_detail@sol@@UAEPAXXZ 0000000010103dd0     LuaAPI.obj
 0001:00102de0       ??_G?$binding@V?$basic_string@DU?$char_traits@D@std@@V?$allocator@D@2@@std@@P8IGameEvent@@AEXPBDM@ZV3@@u_detail@sol@@UAEPAXI@Z 0000000010103de0     LuaAPI.obj
 0001:00102e00       ??$call@$00$0A@@?$binding@V?$basic_string@DU?$char_traits@D@std@@V?$allocator@D@2@@std@@P8IGameEvent@@AEXPBDM@ZV3@@u_detail@sol@@SAHPAUlua_State@@@Z 0000000010103e00     LuaAPI.obj
 0001:00102e10       ??$static_trampoline@$1??$call_@$00$0A@@?$binding@V?$basic_string@DU?$char_traits@D@std@@V?$allocator@D@2@@std@@P8IGameEvent@@AEXPBDM@ZV3@@u_detail@sol@@SAHPAUlua_State@@@Z@detail@sol@@YAHPAUlua_State@@@Z 0000000010103e10     LuaAPI.obj
 0001:00102fc0       ??$static_trampoline@$1??$call_@$0A@$0A@@?$binding@V?$basic_string@DU?$char_traits@D@std@@V?$allocator@D@2@@std@@P8IGameEvent@@AEXPBDM@ZV3@@u_detail@sol@@SAHPAUlua_State@@@Z@detail@sol@@YAHPAUlua_State@@@Z 0000000010103fc0     LuaAPI.obj
 0001:00103170       ??$traverse_set@V?$basic_string@DU?$char_traits@D@std@@V?$allocator@D@2@@std@@P8IGameEvent@@AEXPBDM@Z@?$basic_table_core@$0A@V?$basic_reference@$0A@@sol@@@sol@@QAEAAV01@$$QAV?$basic_string@DU?$char_traits@D@std@@V?$allocator@D@2@@std@@$$QAP8IGameEvent@@AEXPBDM@Z@Z 0000000010104170     LuaAPI.obj
 0001:001032c0       ?call@?$upvalue_this_member_function@VIGameEvent@@P81@AEXPBDM@Z$0A@@function_detail@sol@@SAHPAUlua_State@@@Z 00000000101042c0     LuaAPI.obj
 0001:001032d0       ??$static_trampoline@$1?real_call@?$upvalue_this_member_function@VIGameEvent@@P81@AEXPBDM@Z$0A@@function_detail@sol@@SAHPAUlua_State@@@Z@detail@sol@@YAHPAUlua_State@@@Z 00000000101042d0     LuaAPI.obj
 0001:00103490       ?user_gc_metatable@?$usertype_traits@P8IGameEvent@@AEXPBDM@Z@sol@@SAABV?$basic_string@DU?$char_traits@D@std@@V?$allocator@D@2@@std@@XZ 0000000010104490     LuaAPI.obj
 0001:00103880       ??$push_with@$00ABQBDP8IGameEvent@@AEXPBDM@Z@?$unqualified_pusher@U?$user@P8IGameEvent@@AEXPBDM@Z@sol@@X@stack@sol@@SAHPAUlua_State@@ABQBD$$QAP8IGameEvent@@AEXPBDM@Z@Z 0000000010104880     LuaAPI.obj
 0001:00103910       ??$ctti_get_type_name@P8IGameEvent@@AEXPBDM@Z@detail@sol@@YA?AV?$basic_string@DU?$char_traits@D@std@@V?$allocator@D@2@@std@@XZ 0000000010104910     LuaAPI.obj
 0001:001039a0       ??$user_allocate@P8IGameEvent@@AEXPBDM@Z@detail@sol@@YAPAP8IGameEvent@@AEXPBDM@ZPAUlua_State@@@Z 00000000101049a0     LuaAPI.obj
 0001:00103bb0       ??$user_alloc_destruct@P8IGameEvent@@AEXPBDM@Z@detail@sol@@YAHPAUlua_State@@@Z 0000000010104bb0     LuaAPI.obj
 0001:00103bd0       ??$new_usertype@VIMaterial@@ABV?$basic_string@DU?$char_traits@D@std@@V?$allocator@D@2@@std@@V23@P81@AEXMMM@ZV23@P81@AEXM@ZV23@P81@BEPBDXZV23@P81@BE_NXZV23@P81@AEXW4MaterialVarFlags_t@@_N@ZX@?$basic_table_core@$00V?$basic_reference@$0A@@sol@@@sol@@QAE?AV?$basic_usertype@VIMaterial@@V?$basic_reference@$0A@@sol@@@1@ABV?$basic_string@DU?$char_traits@D@std@@V?$allocator@D@2@@std@@$$QAV34@$$QAP8IMaterial@@AEXMMM@Z1$$QAP85@AEXM@Z1$$QAP85@BEPBDXZ1$$QAP85@BE_NXZ1$$QAP85@AEXW4MaterialVarFlags_t@@_N@Z@Z 0000000010104bd0     LuaAPI.obj
 0001:00103cd0       ??$new_usertype@VIMaterial@@ABV?$basic_string@DU?$char_traits@D@std@@V?$allocator@D@2@@std@@@?$basic_table_core@$00V?$basic_reference@$0A@@sol@@@sol@@QAE?AV?$basic_usertype@VIMaterial@@V?$basic_reference@$0A@@sol@@@1@ABV?$basic_string@DU?$char_traits@D@std@@V?$allocator@D@2@@std@@Uautomagic_enrollments@1@@Z 0000000010104cd0     LuaAPI.obj
 0001:00103de0       ??$register_usertype@VIMaterial@@@u_detail@sol@@YAHPAUlua_State@@Uautomagic_enrollments@1@@Z 0000000010104de0     LuaAPI.obj
 0001:00104200       ??$delete_usertype_storage@VIMaterial@@@u_detail@sol@@YAXPAUlua_State@@@Z 0000000010105200     LuaAPI.obj
 0001:00104290       ??$create_usertype_storage@VIMaterial@@@u_detail@sol@@YAAAU?$usertype_storage@VIMaterial@@@01@PAUlua_State@@@Z 0000000010105290     LuaAPI.obj
 0001:00104390       ?gc_table@?$usertype_traits@VIMaterial@@@sol@@SAABV?$basic_string@DU?$char_traits@D@std@@V?$allocator@D@2@@std@@XZ 0000000010105390     LuaAPI.obj
 0001:00104780       ?metatable@?$usertype_traits@$$CBVIMaterial@@@sol@@SAABV?$basic_string@DU?$char_traits@D@std@@V?$allocator@D@2@@std@@XZ 0000000010105780     LuaAPI.obj
 0001:00104b00       ?metatable@?$usertype_traits@PBVIMaterial@@@sol@@SAABV?$basic_string@DU?$char_traits@D@std@@V?$allocator@D@2@@std@@XZ 0000000010105b00     LuaAPI.obj
 0001:00104e80       ?metatable@?$usertype_traits@PAVIMaterial@@@sol@@SAABV?$basic_string@DU?$char_traits@D@std@@V?$allocator@D@2@@std@@XZ 0000000010105e80     LuaAPI.obj
 0001:00105200       ?metatable@?$usertype_traits@U?$unique_usertype@VIMaterial@@@detail@sol@@@sol@@SAABV?$basic_string@DU?$char_traits@D@std@@V?$allocator@D@2@@std@@XZ 0000000010106200     LuaAPI.obj
 0001:00105580       ?metatable@?$usertype_traits@VIMaterial@@@sol@@SAABV?$basic_string@DU?$char_traits@D@std@@V?$allocator@D@2@@std@@XZ 0000000010106580     LuaAPI.obj
 0001:00105900       ??$is_check@VIMaterial@@@detail@sol@@YAHPAUlua_State@@@Z 0000000010106900     LuaAPI.obj
 0001:00105980       ??$destruct_usertype_storage@VIMaterial@@@u_detail@sol@@YAHPAUlua_State@@@Z 0000000010106980     LuaAPI.obj
 0001:001059a0       ?user_gc_metatable@?$usertype_traits@U?$usertype_storage@VIMaterial@@@u_detail@sol@@@sol@@SAABV?$basic_string@DU?$char_traits@D@std@@V?$allocator@D@2@@std@@XZ 00000000101069a0     LuaAPI.obj
 0001:00105d90       ??$ctti_get_type_name@U?$usertype_storage@VIMaterial@@@u_detail@sol@@@detail@sol@@YA?AV?$basic_string@DU?$char_traits@D@std@@V?$allocator@D@2@@std@@XZ 0000000010106d90     LuaAPI.obj
 0001:00105e20       ??$user_allocate@U?$usertype_storage@VIMaterial@@@u_detail@sol@@@detail@sol@@YAPAU?$usertype_storage@VIMaterial@@@u_detail@1@PAUlua_State@@@Z 0000000010106e20     LuaAPI.obj
 0001:00106040       ??$ctti_get_type_name@$$CBVIMaterial@@@detail@sol@@YA?AV?$basic_string@DU?$char_traits@D@std@@V?$allocator@D@2@@std@@XZ 0000000010107040     LuaAPI.obj
 0001:001060d0       ??$ctti_get_type_name@PBVIMaterial@@@detail@sol@@YA?AV?$basic_string@DU?$char_traits@D@std@@V?$allocator@D@2@@std@@XZ 00000000101070d0     LuaAPI.obj
 0001:00106160       ??$ctti_get_type_name@PAVIMaterial@@@detail@sol@@YA?AV?$basic_string@DU?$char_traits@D@std@@V?$allocator@D@2@@std@@XZ 0000000010107160     LuaAPI.obj
 0001:001061f0       ??$ctti_get_type_name@U?$unique_usertype@VIMaterial@@@detail@sol@@@detail@sol@@YA?AV?$basic_string@DU?$char_traits@D@std@@V?$allocator@D@2@@std@@XZ 00000000101071f0     LuaAPI.obj
 0001:00106280       ??$ctti_get_type_name@VIMaterial@@@detail@sol@@YA?AV?$basic_string@DU?$char_traits@D@std@@V?$allocator@D@2@@std@@XZ 0000000010107280     LuaAPI.obj
 0001:00106310       ??$check@VIMaterial@@P6AHPAUlua_State@@HW4type@sol@@1PBD@_E@?$unqualified_checker@U?$as_value_tag@VIMaterial@@@detail@sol@@$06X@stack@sol@@SA_NU?$types@VIMaterial@@@2@PAUlua_State@@HW4type@2@$$QAP6AH1H22PBD@_EAAUrecord@12@@Z 0000000010107310     LuaAPI.obj
 0001:00106600       ?qualified_name@?$usertype_traits@VIMaterial@@@sol@@SAABV?$basic_string@DU?$char_traits@D@std@@V?$allocator@D@2@@std@@XZ 0000000010107600     LuaAPI.obj
 0001:00106730       ?metatable@?$usertype_traits@U?$as_container_t@VIMaterial@@@sol@@@sol@@SAABV?$basic_string@DU?$char_traits@D@std@@V?$allocator@D@2@@std@@XZ 0000000010107730     LuaAPI.obj
 0001:00106ab0       ??$ctti_get_type_name@U?$as_container_t@VIMaterial@@@sol@@@detail@sol@@YA?AV?$basic_string@DU?$char_traits@D@std@@V?$allocator@D@2@@std@@XZ 0000000010107ab0     LuaAPI.obj
 0001:00106b40       ??R<lambda_1>@?0???$register_usertype@VIMaterial@@@u_detail@sol@@YAHPAUlua_State@@Uautomagic_enrollments@2@@Z@QBE?A?<auto>@@0W4submetatable_type@12@AAV?$basic_reference@$0A@@2@@Z 0000000010107b40     LuaAPI.obj
 0001:00107130       ?user_metatable@?$usertype_traits@VIMaterial@@@sol@@SAABV?$basic_string@DU?$char_traits@D@std@@V?$allocator@D@2@@std@@XZ 0000000010108130     LuaAPI.obj
 0001:00107520       ??$unique_destruct@VIMaterial@@@detail@sol@@YAHPAUlua_State@@@Z 0000000010108520     LuaAPI.obj
 0001:00107560       ?type_check@?$inheritance@VIMaterial@@@detail@sol@@SA_NABV?$basic_string_view@DU?$char_traits@D@std@@@std@@@Z 0000000010108560     LuaAPI.obj
 0001:001075a0       ?type_cast@?$inheritance@VIMaterial@@@detail@sol@@SAPAXPAXABV?$basic_string_view@DU?$char_traits@D@std@@@std@@@Z 00000000101085a0     LuaAPI.obj
 0001:001075e0       ??$insert_default_registrations@VIMaterial@@AAV<lambda_1>@?0???R2?0???$register_usertype@VIMaterial@@@u_detail@sol@@YAHPAUlua_State@@Uautomagic_enrollments@4@@Z@QBE?A?<auto>@@0W4submetatable_type@34@AAV?$basic_reference@$0A@@4@@Z@AAUproperties_enrollment_allowed@detail@4@@detail@sol@@YAXAAV<lambda_1>@?0???R2?0???$register_usertype@VIMaterial@@@u_detail@1@YAHPAUlua_State@@Uautomagic_enrollments@1@@Z@QBE?A?<auto>@@0W4submetatable_type@31@AAV?$basic_reference@$0A@@1@@Z@AAUproperties_enrollment_allowed@01@@Z 00000000101085e0     LuaAPI.obj
 0001:00107720       ??$meta_index_call@$0A@@?$usertype_storage@VIMaterial@@@u_detail@sol@@SAHPAUlua_State@@@Z 0000000010108720     LuaAPI.obj
 0001:00107730       ??$meta_index_call@$00@?$usertype_storage@VIMaterial@@@u_detail@sol@@SAHPAUlua_State@@@Z 0000000010108730     LuaAPI.obj
 0001:00107740       ??$index_call@$00@?$usertype_storage@VIMaterial@@@u_detail@sol@@SAHPAUlua_State@@@Z 0000000010108740     LuaAPI.obj
 0001:00107750       ??$usertype_alloc_destruct@VIMaterial@@@detail@sol@@YAHPAUlua_State@@@Z 0000000010108750     LuaAPI.obj
 0001:00107770       ??$comparsion_operator_wrap@VIMaterial@@Uno_comp@detail@sol@@@detail@sol@@YAHPAUlua_State@@@Z 0000000010108770     LuaAPI.obj
 0001:00107810       ?pairs_call@?$u_c_launch@U?$as_container_t@VIMaterial@@@sol@@@container_detail@sol@@SAHPAUlua_State@@@Z 0000000010108810     LuaAPI.obj
 0001:00107820       ??$get_using@V?$optional@AAVIMaterial@@@sol@@AAP6AHPAUlua_State@@HW4type@2@1PBD@_E@?$unqualified_check_getter@VIMaterial@@X@stack@sol@@SA?AV?$optional@AAVIMaterial@@@2@PAUlua_State@@HAAP6AH0HW4type@2@1PBD@_EAAUrecord@12@@Z 0000000010108820     LuaAPI.obj
 0001:001078d0       ??$check@VIMaterial@@AAP6AHPAUlua_State@@HW4type@sol@@1PBD@_E@?$unqualified_checker@U?$as_value_tag@VIMaterial@@@detail@sol@@$06X@stack@sol@@SA_NU?$types@VIMaterial@@@2@PAUlua_State@@HW4type@2@AAP6AH1H22PBD@_EAAUrecord@12@@Z 00000000101088d0     LuaAPI.obj
 0001:00107bc0       ?get_no_lua_nil_from@?$unqualified_getter@U?$as_value_tag@VIMaterial@@@detail@sol@@X@stack@sol@@SAPAVIMaterial@@PAUlua_State@@PAXHAAUrecord@23@@Z 0000000010108bc0     LuaAPI.obj
 0001:00107c60       ??$static_trampoline@$1?real_pairs_call@?$u_c_launch@U?$as_container_t@VIMaterial@@@sol@@@container_detail@sol@@SAHPAUlua_State@@@Z@detail@sol@@YAHPAUlua_State@@@Z 0000000010108c60     LuaAPI.obj
 0001:00107e30       ??$static_trampoline@$1??$index_call_@$0A@$00@?$usertype_storage@VIMaterial@@@u_detail@sol@@SAHPAUlua_State@@@Z@detail@sol@@YAHPAUlua_State@@@Z 0000000010108e30     LuaAPI.obj
 0001:00107f90       ??$static_trampoline@$1??$index_call_@$00$00@?$usertype_storage@VIMaterial@@@u_detail@sol@@SAHPAUlua_State@@@Z@detail@sol@@YAHPAUlua_State@@@Z 0000000010108f90     LuaAPI.obj
 0001:001080f0       ??$static_trampoline@$1??$index_call_@$00$0A@@?$usertype_storage@VIMaterial@@@u_detail@sol@@SAHPAUlua_State@@@Z@detail@sol@@YAHPAUlua_State@@@Z 00000000101090f0     LuaAPI.obj
 0001:00108250       ??$traverse_set_deep@$00$0A@$0A@ABV?$basic_string@DU?$char_traits@D@std@@V?$allocator@D@2@@std@@AAV?$basic_usertype@VIMaterial@@V?$basic_reference@$0A@@sol@@@sol@@@?$basic_table_core@$00V?$basic_reference@$0A@@sol@@@sol@@ABEXHABV?$basic_string@DU?$char_traits@D@std@@V?$allocator@D@2@@std@@AAV?$basic_usertype@VIMaterial@@V?$basic_reference@$0A@@sol@@@1@@Z 0000000010109250     LuaAPI.obj
 0001:001082d0       ??$set@V?$basic_string@DU?$char_traits@D@std@@V?$allocator@D@2@@std@@P8IMaterial@@AEXMMM@Z@?$basic_usertype@VIMaterial@@V?$basic_reference@$0A@@sol@@@sol@@QAEX$$QAV?$basic_string@DU?$char_traits@D@std@@V?$allocator@D@2@@std@@$$QAP8IMaterial@@AEXMMM@Z@Z 00000000101092d0     LuaAPI.obj
 0001:00108370       ??$set@V?$basic_string@DU?$char_traits@D@std@@V?$allocator@D@2@@std@@P8IMaterial@@AEXM@Z@?$basic_usertype@VIMaterial@@V?$basic_reference@$0A@@sol@@@sol@@QAEX$$QAV?$basic_string@DU?$char_traits@D@std@@V?$allocator@D@2@@std@@$$QAP8IMaterial@@AEXM@Z@Z 0000000010109370     LuaAPI.obj
 0001:00108410       ??$set@V?$basic_string@DU?$char_traits@D@std@@V?$allocator@D@2@@std@@P8IMaterial@@BEPBDXZ@?$basic_usertype@VIMaterial@@V?$basic_reference@$0A@@sol@@@sol@@QAEX$$QAV?$basic_string@DU?$char_traits@D@std@@V?$allocator@D@2@@std@@$$QAP8IMaterial@@BEPBDXZ@Z 0000000010109410     LuaAPI.obj
 0001:001084b0       ??$set@V?$basic_string@DU?$char_traits@D@std@@V?$allocator@D@2@@std@@P8IMaterial@@BE_NXZ@?$basic_usertype@VIMaterial@@V?$basic_reference@$0A@@sol@@@sol@@QAEX$$QAV?$basic_string@DU?$char_traits@D@std@@V?$allocator@D@2@@std@@$$QAP8IMaterial@@BE_NXZ@Z 00000000101094b0     LuaAPI.obj
 0001:00108550       ??$set@V?$basic_string@DU?$char_traits@D@std@@V?$allocator@D@2@@std@@P8IMaterial@@AEXW4MaterialVarFlags_t@@_N@Z@?$basic_usertype@VIMaterial@@V?$basic_reference@$0A@@sol@@@sol@@QAEX$$QAV?$basic_string@DU?$char_traits@D@std@@V?$allocator@D@2@@std@@$$QAP8IMaterial@@AEXW4MaterialVarFlags_t@@_N@Z@Z 0000000010109550     LuaAPI.obj
 0001:001085f0       ??$set@VIMaterial@@V?$basic_string@DU?$char_traits@D@std@@V?$allocator@D@2@@std@@P81@AEXMMM@Z@usertype_storage_base@u_detail@sol@@QAEXPAUlua_State@@$$QAV?$basic_string@DU?$char_traits@D@std@@V?$allocator@D@2@@std@@$$QAP8IMaterial@@AEXMMM@Z@Z 00000000101095f0     LuaAPI.obj
 0001:00108e60       ??$call_with_@$00$0A@@?$binding@V?$basic_string@DU?$char_traits@D@std@@V?$allocator@D@2@@std@@P8IMaterial@@AEXMMM@ZV3@@u_detail@sol@@SAHPAUlua_State@@PAX@Z 0000000010109e60     LuaAPI.obj
 0001:00108f00       ??$index_call_with_@$00$0A@@?$binding@V?$basic_string@DU?$char_traits@D@std@@V?$allocator@D@2@@std@@P8IMaterial@@AEXMMM@ZV3@@u_detail@sol@@SAHPAUlua_State@@PAX@Z 0000000010109f00     LuaAPI.obj
 0001:00108f40       ??$call_with_@$0A@$0A@@?$binding@V?$basic_string@DU?$char_traits@D@std@@V?$allocator@D@2@@std@@P8IMaterial@@AEXMMM@ZV3@@u_detail@sol@@SAHPAUlua_State@@PAX@Z 0000000010109f40     LuaAPI.obj
 0001:00108fe0       ??$index_call_with_@$0A@$0A@@?$binding@V?$basic_string@DU?$char_traits@D@std@@V?$allocator@D@2@@std@@P8IMaterial@@AEXMMM@ZV3@@u_detail@sol@@SAHPAUlua_State@@PAX@Z 0000000010109fe0     LuaAPI.obj
 0001:00109020       ??$call@$0A@$0A@@?$binding@V?$basic_string@DU?$char_traits@D@std@@V?$allocator@D@2@@std@@P8IMaterial@@AEXMMM@ZV3@@u_detail@sol@@SAHPAUlua_State@@@Z 000000001010a020     LuaAPI.obj
 0001:00109030       ??$index_call@$0A@@?$usertype_storage@VIMaterial@@@u_detail@sol@@SAHPAUlua_State@@@Z 000000001010a030     LuaAPI.obj
 0001:00109040       ?data@?$binding@V?$basic_string@DU?$char_traits@D@std@@V?$allocator@D@2@@std@@P8IMaterial@@AEXMMM@ZV3@@u_detail@sol@@UAEPAXXZ 000000001010a040     LuaAPI.obj
 0001:00109050       ??_G?$binding@V?$basic_string@DU?$char_traits@D@std@@V?$allocator@D@2@@std@@P8IMaterial@@AEXMMM@ZV3@@u_detail@sol@@UAEPAXI@Z 000000001010a050     LuaAPI.obj
 0001:00109070       ??$call@$00$0A@@?$binding@V?$basic_string@DU?$char_traits@D@std@@V?$allocator@D@2@@std@@P8IMaterial@@AEXMMM@ZV3@@u_detail@sol@@SAHPAUlua_State@@@Z 000000001010a070     LuaAPI.obj
 0001:00109080       ??$static_trampoline@$1??$call_@$00$0A@@?$binding@V?$basic_string@DU?$char_traits@D@std@@V?$allocator@D@2@@std@@P8IMaterial@@AEXMMM@ZV3@@u_detail@sol@@SAHPAUlua_State@@@Z@detail@sol@@YAHPAUlua_State@@@Z 000000001010a080     LuaAPI.obj
 0001:00109250       ??$static_trampoline@$1??$call_@$0A@$0A@@?$binding@V?$basic_string@DU?$char_traits@D@std@@V?$allocator@D@2@@std@@P8IMaterial@@AEXMMM@ZV3@@u_detail@sol@@SAHPAUlua_State@@@Z@detail@sol@@YAHPAUlua_State@@@Z 000000001010a250     LuaAPI.obj
 0001:00109420       ??$static_trampoline@$1??$index_call_@$0A@$0A@@?$usertype_storage@VIMaterial@@@u_detail@sol@@SAHPAUlua_State@@@Z@detail@sol@@YAHPAUlua_State@@@Z 000000001010a420     LuaAPI.obj
 0001:00109580       ??$traverse_set@V?$basic_string@DU?$char_traits@D@std@@V?$allocator@D@2@@std@@P8IMaterial@@AEXMMM@Z@?$basic_table_core@$0A@V?$basic_reference@$0A@@sol@@@sol@@QAEAAV01@$$QAV?$basic_string@DU?$char_traits@D@std@@V?$allocator@D@2@@std@@$$QAP8IMaterial@@AEXMMM@Z@Z 000000001010a580     LuaAPI.obj
 0001:001096d0       ?call@?$upvalue_this_member_function@VIMaterial@@P81@AEXMMM@Z$0A@@function_detail@sol@@SAHPAUlua_State@@@Z 000000001010a6d0     LuaAPI.obj
 0001:001096e0       ??$static_trampoline@$1?real_call@?$upvalue_this_member_function@VIMaterial@@P81@AEXMMM@Z$0A@@function_detail@sol@@SAHPAUlua_State@@@Z@detail@sol@@YAHPAUlua_State@@@Z 000000001010a6e0     LuaAPI.obj
 0001:001098c0       ?user_gc_metatable@?$usertype_traits@P8IMaterial@@AEXMMM@Z@sol@@SAABV?$basic_string@DU?$char_traits@D@std@@V?$allocator@D@2@@std@@XZ 000000001010a8c0     LuaAPI.obj
 0001:00109cb0       ??$push_with@$00ABQBDP8IMaterial@@AEXMMM@Z@?$unqualified_pusher@U?$user@P8IMaterial@@AEXMMM@Z@sol@@X@stack@sol@@SAHPAUlua_State@@ABQBD$$QAP8IMaterial@@AEXMMM@Z@Z 000000001010acb0     LuaAPI.obj
 0001:00109d40       ??$ctti_get_type_name@P8IMaterial@@AEXMMM@Z@detail@sol@@YA?AV?$basic_string@DU?$char_traits@D@std@@V?$allocator@D@2@@std@@XZ 000000001010ad40     LuaAPI.obj
 0001:00109dd0       ??$user_allocate@P8IMaterial@@AEXMMM@Z@detail@sol@@YAPAP8IMaterial@@AEXMMM@ZPAUlua_State@@@Z 000000001010add0     LuaAPI.obj
 0001:00109fe0       ??$user_alloc_destruct@P8IMaterial@@AEXMMM@Z@detail@sol@@YAHPAUlua_State@@@Z 000000001010afe0     LuaAPI.obj
 0001:0010a000       ??$set@VIMaterial@@V?$basic_string@DU?$char_traits@D@std@@V?$allocator@D@2@@std@@P81@AEXM@Z@usertype_storage_base@u_detail@sol@@QAEXPAUlua_State@@$$QAV?$basic_string@DU?$char_traits@D@std@@V?$allocator@D@2@@std@@$$QAP8IMaterial@@AEXM@Z@Z 000000001010b000     LuaAPI.obj
 0001:0010a870       ??$call_with_@$00$0A@@?$binding@V?$basic_string@DU?$char_traits@D@std@@V?$allocator@D@2@@std@@P8IMaterial@@AEXM@ZV3@@u_detail@sol@@SAHPAUlua_State@@PAX@Z 000000001010b870     LuaAPI.obj
 0001:0010a8e0       ??$index_call_with_@$00$0A@@?$binding@V?$basic_string@DU?$char_traits@D@std@@V?$allocator@D@2@@std@@P8IMaterial@@AEXM@ZV3@@u_detail@sol@@SAHPAUlua_State@@PAX@Z 000000001010b8e0     LuaAPI.obj
 0001:0010a920       ??$call_with_@$0A@$0A@@?$binding@V?$basic_string@DU?$char_traits@D@std@@V?$allocator@D@2@@std@@P8IMaterial@@AEXM@ZV3@@u_detail@sol@@SAHPAUlua_State@@PAX@Z 000000001010b920     LuaAPI.obj
 0001:0010a990       ??$index_call_with_@$0A@$0A@@?$binding@V?$basic_string@DU?$char_traits@D@std@@V?$allocator@D@2@@std@@P8IMaterial@@AEXM@ZV3@@u_detail@sol@@SAHPAUlua_State@@PAX@Z 000000001010b990     LuaAPI.obj
 0001:0010a9d0       ??$call@$0A@$0A@@?$binding@V?$basic_string@DU?$char_traits@D@std@@V?$allocator@D@2@@std@@P8IMaterial@@AEXM@ZV3@@u_detail@sol@@SAHPAUlua_State@@@Z 000000001010b9d0     LuaAPI.obj
 0001:0010a9e0       ?data@?$binding@V?$basic_string@DU?$char_traits@D@std@@V?$allocator@D@2@@std@@P8IMaterial@@AEXM@ZV3@@u_detail@sol@@UAEPAXXZ 000000001010b9e0     LuaAPI.obj
 0001:0010a9f0       ??_G?$binding@V?$basic_string@DU?$char_traits@D@std@@V?$allocator@D@2@@std@@P8IMaterial@@AEXM@ZV3@@u_detail@sol@@UAEPAXI@Z 000000001010b9f0     LuaAPI.obj
 0001:0010aa10       ??$call@$00$0A@@?$binding@V?$basic_string@DU?$char_traits@D@std@@V?$allocator@D@2@@std@@P8IMaterial@@AEXM@ZV3@@u_detail@sol@@SAHPAUlua_State@@@Z 000000001010ba10     LuaAPI.obj
 0001:0010aa20       ??$static_trampoline@$1??$call_@$00$0A@@?$binding@V?$basic_string@DU?$char_traits@D@std@@V?$allocator@D@2@@std@@P8IMaterial@@AEXM@ZV3@@u_detail@sol@@SAHPAUlua_State@@@Z@detail@sol@@YAHPAUlua_State@@@Z 000000001010ba20     LuaAPI.obj
 0001:0010abc0       ??$static_trampoline@$1??$call_@$0A@$0A@@?$binding@V?$basic_string@DU?$char_traits@D@std@@V?$allocator@D@2@@std@@P8IMaterial@@AEXM@ZV3@@u_detail@sol@@SAHPAUlua_State@@@Z@detail@sol@@YAHPAUlua_State@@@Z 000000001010bbc0     LuaAPI.obj
 0001:0010ad60       ??$traverse_set@V?$basic_string@DU?$char_traits@D@std@@V?$allocator@D@2@@std@@P8IMaterial@@AEXM@Z@?$basic_table_core@$0A@V?$basic_reference@$0A@@sol@@@sol@@QAEAAV01@$$QAV?$basic_string@DU?$char_traits@D@std@@V?$allocator@D@2@@std@@$$QAP8IMaterial@@AEXM@Z@Z 000000001010bd60     LuaAPI.obj
 0001:0010aeb0       ?call@?$upvalue_this_member_function@VIMaterial@@P81@AEXM@Z$0A@@function_detail@sol@@SAHPAUlua_State@@@Z 000000001010beb0     LuaAPI.obj
 0001:0010aec0       ??$static_trampoline@$1?real_call@?$upvalue_this_member_function@VIMaterial@@P81@AEXM@Z$0A@@function_detail@sol@@SAHPAUlua_State@@@Z@detail@sol@@YAHPAUlua_State@@@Z 000000001010bec0     LuaAPI.obj
 0001:0010b070       ?user_gc_metatable@?$usertype_traits@P8IMaterial@@AEXM@Z@sol@@SAABV?$basic_string@DU?$char_traits@D@std@@V?$allocator@D@2@@std@@XZ 000000001010c070     LuaAPI.obj
 0001:0010b460       ??$push_with@$00ABQBDP8IMaterial@@AEXM@Z@?$unqualified_pusher@U?$user@P8IMaterial@@AEXM@Z@sol@@X@stack@sol@@SAHPAUlua_State@@ABQBD$$QAP8IMaterial@@AEXM@Z@Z 000000001010c460     LuaAPI.obj
 0001:0010b4f0       ??$ctti_get_type_name@P8IMaterial@@AEXM@Z@detail@sol@@YA?AV?$basic_string@DU?$char_traits@D@std@@V?$allocator@D@2@@std@@XZ 000000001010c4f0     LuaAPI.obj
 0001:0010b580       ??$user_allocate@P8IMaterial@@AEXM@Z@detail@sol@@YAPAP8IMaterial@@AEXM@ZPAUlua_State@@@Z 000000001010c580     LuaAPI.obj
 0001:0010b790       ??$user_alloc_destruct@P8IMaterial@@AEXM@Z@detail@sol@@YAHPAUlua_State@@@Z 000000001010c790     LuaAPI.obj
 0001:0010b7b0       ??$set@VIMaterial@@V?$basic_string@DU?$char_traits@D@std@@V?$allocator@D@2@@std@@P81@BEPBDXZ@usertype_storage_base@u_detail@sol@@QAEXPAUlua_State@@$$QAV?$basic_string@DU?$char_traits@D@std@@V?$allocator@D@2@@std@@$$QAP8IMaterial@@BEPBDXZ@Z 000000001010c7b0     LuaAPI.obj
 0001:0010c020       ??$call_with_@$00$0A@@?$binding@V?$basic_string@DU?$char_traits@D@std@@V?$allocator@D@2@@std@@P8IMaterial@@BEPBDXZV3@@u_detail@sol@@SAHPAUlua_State@@PAX@Z 000000001010d020     LuaAPI.obj
 0001:0010c070       ??$index_call_with_@$00$0A@@?$binding@V?$basic_string@DU?$char_traits@D@std@@V?$allocator@D@2@@std@@P8IMaterial@@BEPBDXZV3@@u_detail@sol@@SAHPAUlua_State@@PAX@Z 000000001010d070     LuaAPI.obj
 0001:0010c0b0       ??$call_with_@$0A@$0A@@?$binding@V?$basic_string@DU?$char_traits@D@std@@V?$allocator@D@2@@std@@P8IMaterial@@BEPBDXZV3@@u_detail@sol@@SAHPAUlua_State@@PAX@Z 000000001010d0b0     LuaAPI.obj
 0001:0010c100       ??$index_call_with_@$0A@$0A@@?$binding@V?$basic_string@DU?$char_traits@D@std@@V?$allocator@D@2@@std@@P8IMaterial@@BEPBDXZV3@@u_detail@sol@@SAHPAUlua_State@@PAX@Z 000000001010d100     LuaAPI.obj
 0001:0010c140       ??$call@$0A@$0A@@?$binding@V?$basic_string@DU?$char_traits@D@std@@V?$allocator@D@2@@std@@P8IMaterial@@BEPBDXZV3@@u_detail@sol@@SAHPAUlua_State@@@Z 000000001010d140     LuaAPI.obj
 0001:0010c150       ?data@?$binding@V?$basic_string@DU?$char_traits@D@std@@V?$allocator@D@2@@std@@P8IMaterial@@BEPBDXZV3@@u_detail@sol@@UAEPAXXZ 000000001010d150     LuaAPI.obj
 0001:0010c160       ??_G?$binding@V?$basic_string@DU?$char_traits@D@std@@V?$allocator@D@2@@std@@P8IMaterial@@BEPBDXZV3@@u_detail@sol@@UAEPAXI@Z 000000001010d160     LuaAPI.obj
 0001:0010c180       ??$call@AAP8IMaterial@@BEPBDXZAAV1@@?$lua_call_wrapper@VIMaterial@@P81@BEPBDXZ$00$0A@$0A@$0A@$00X@call_detail@sol@@SAHPAUlua_State@@AAP8IMaterial@@BEPBDXZAAV4@@Z 000000001010d180     LuaAPI.obj
 0001:0010c1f0       ??$call@$00$0A@@?$binding@V?$basic_string@DU?$char_traits@D@std@@V?$allocator@D@2@@std@@P8IMaterial@@BEPBDXZV3@@u_detail@sol@@SAHPAUlua_State@@@Z 000000001010d1f0     LuaAPI.obj
 0001:0010c200       ??$static_trampoline@$1??$call_@$00$0A@@?$binding@V?$basic_string@DU?$char_traits@D@std@@V?$allocator@D@2@@std@@P8IMaterial@@BEPBDXZV3@@u_detail@sol@@SAHPAUlua_State@@@Z@detail@sol@@YAHPAUlua_State@@@Z 000000001010d200     LuaAPI.obj
 0001:0010c390       ??$call@AAP8IMaterial@@BEPBDXZAAV1@@?$lua_call_wrapper@VIMaterial@@P81@BEPBDXZ$0A@$0A@$0A@$0A@$00X@call_detail@sol@@SAHPAUlua_State@@AAP8IMaterial@@BEPBDXZAAV4@@Z 000000001010d390     LuaAPI.obj
 0001:0010c400       ??$static_trampoline@$1??$call_@$0A@$0A@@?$binding@V?$basic_string@DU?$char_traits@D@std@@V?$allocator@D@2@@std@@P8IMaterial@@BEPBDXZV3@@u_detail@sol@@SAHPAUlua_State@@@Z@detail@sol@@YAHPAUlua_State@@@Z 000000001010d400     LuaAPI.obj
 0001:0010c590       ??$traverse_set@V?$basic_string@DU?$char_traits@D@std@@V?$allocator@D@2@@std@@P8IMaterial@@BEPBDXZ@?$basic_table_core@$0A@V?$basic_reference@$0A@@sol@@@sol@@QAEAAV01@$$QAV?$basic_string@DU?$char_traits@D@std@@V?$allocator@D@2@@std@@$$QAP8IMaterial@@BEPBDXZ@Z 000000001010d590     LuaAPI.obj
 0001:0010c6e0       ?call@?$upvalue_this_member_function@VIMaterial@@P81@BEPBDXZ$0A@@function_detail@sol@@SAHPAUlua_State@@@Z 000000001010d6e0     LuaAPI.obj
 0001:0010c6f0       ??$static_trampoline@$1?real_call@?$upvalue_this_member_function@VIMaterial@@P81@BEPBDXZ$0A@@function_detail@sol@@SAHPAUlua_State@@@Z@detail@sol@@YAHPAUlua_State@@@Z 000000001010d6f0     LuaAPI.obj
 0001:0010c880       ?user_gc_metatable@?$usertype_traits@P8IMaterial@@BEPBDXZ@sol@@SAABV?$basic_string@DU?$char_traits@D@std@@V?$allocator@D@2@@std@@XZ 000000001010d880     LuaAPI.obj
 0001:0010cc70       ??$push_with@$00ABQBDP8IMaterial@@BEPBDXZ@?$unqualified_pusher@U?$user@P8IMaterial@@BEPBDXZ@sol@@X@stack@sol@@SAHPAUlua_State@@ABQBD$$QAP8IMaterial@@BEPBDXZ@Z 000000001010dc70     LuaAPI.obj
 0001:0010cd00       ??$ctti_get_type_name@P8IMaterial@@BEPBDXZ@detail@sol@@YA?AV?$basic_string@DU?$char_traits@D@std@@V?$allocator@D@2@@std@@XZ 000000001010dd00     LuaAPI.obj
 0001:0010cd90       ??$user_allocate@P8IMaterial@@BEPBDXZ@detail@sol@@YAPAP8IMaterial@@BEPBDXZPAUlua_State@@@Z 000000001010dd90     LuaAPI.obj
 0001:0010cfa0       ??$user_alloc_destruct@P8IMaterial@@BEPBDXZ@detail@sol@@YAHPAUlua_State@@@Z 000000001010dfa0     LuaAPI.obj
 0001:0010cfc0       ??$set@VIMaterial@@V?$basic_string@DU?$char_traits@D@std@@V?$allocator@D@2@@std@@P81@BE_NXZ@usertype_storage_base@u_detail@sol@@QAEXPAUlua_State@@$$QAV?$basic_string@DU?$char_traits@D@std@@V?$allocator@D@2@@std@@$$QAP8IMaterial@@BE_NXZ@Z 000000001010dfc0     LuaAPI.obj
 0001:0010d830       ??$call_with_@$00$0A@@?$binding@V?$basic_string@DU?$char_traits@D@std@@V?$allocator@D@2@@std@@P8IMaterial@@BE_NXZV3@@u_detail@sol@@SAHPAUlua_State@@PAX@Z 000000001010e830     LuaAPI.obj
 0001:0010d8a0       ??$index_call_with_@$00$0A@@?$binding@V?$basic_string@DU?$char_traits@D@std@@V?$allocator@D@2@@std@@P8IMaterial@@BE_NXZV3@@u_detail@sol@@SAHPAUlua_State@@PAX@Z 000000001010e8a0     LuaAPI.obj
 0001:0010d8e0       ??$call_with_@$0A@$0A@@?$binding@V?$basic_string@DU?$char_traits@D@std@@V?$allocator@D@2@@std@@P8IMaterial@@BE_NXZV3@@u_detail@sol@@SAHPAUlua_State@@PAX@Z 000000001010e8e0     LuaAPI.obj
 0001:0010d950       ??$index_call_with_@$0A@$0A@@?$binding@V?$basic_string@DU?$char_traits@D@std@@V?$allocator@D@2@@std@@P8IMaterial@@BE_NXZV3@@u_detail@sol@@SAHPAUlua_State@@PAX@Z 000000001010e950     LuaAPI.obj
 0001:0010d990       ??$call@$0A@$0A@@?$binding@V?$basic_string@DU?$char_traits@D@std@@V?$allocator@D@2@@std@@P8IMaterial@@BE_NXZV3@@u_detail@sol@@SAHPAUlua_State@@@Z 000000001010e990     LuaAPI.obj
 0001:0010d9a0       ?data@?$binding@V?$basic_string@DU?$char_traits@D@std@@V?$allocator@D@2@@std@@P8IMaterial@@BE_NXZV3@@u_detail@sol@@UAEPAXXZ 000000001010e9a0     LuaAPI.obj
 0001:0010d9b0       ??_G?$binding@V?$basic_string@DU?$char_traits@D@std@@V?$allocator@D@2@@std@@P8IMaterial@@BE_NXZV3@@u_detail@sol@@UAEPAXI@Z 000000001010e9b0     LuaAPI.obj
 0001:0010d9d0       ??$call@$00$0A@@?$binding@V?$basic_string@DU?$char_traits@D@std@@V?$allocator@D@2@@std@@P8IMaterial@@BE_NXZV3@@u_detail@sol@@SAHPAUlua_State@@@Z 000000001010e9d0     LuaAPI.obj
 0001:0010d9e0       ??$static_trampoline@$1??$call_@$00$0A@@?$binding@V?$basic_string@DU?$char_traits@D@std@@V?$allocator@D@2@@std@@P8IMaterial@@BE_NXZV3@@u_detail@sol@@SAHPAUlua_State@@@Z@detail@sol@@YAHPAUlua_State@@@Z 000000001010e9e0     LuaAPI.obj
 0001:0010db80       ??$static_trampoline@$1??$call_@$0A@$0A@@?$binding@V?$basic_string@DU?$char_traits@D@std@@V?$allocator@D@2@@std@@P8IMaterial@@BE_NXZV3@@u_detail@sol@@SAHPAUlua_State@@@Z@detail@sol@@YAHPAUlua_State@@@Z 000000001010eb80     LuaAPI.obj
 0001:0010dd20       ??$traverse_set@V?$basic_string@DU?$char_traits@D@std@@V?$allocator@D@2@@std@@P8IMaterial@@BE_NXZ@?$basic_table_core@$0A@V?$basic_reference@$0A@@sol@@@sol@@QAEAAV01@$$QAV?$basic_string@DU?$char_traits@D@std@@V?$allocator@D@2@@std@@$$QAP8IMaterial@@BE_NXZ@Z 000000001010ed20     LuaAPI.obj
 0001:0010de70       ?call@?$upvalue_this_member_function@VIMaterial@@P81@BE_NXZ$0A@@function_detail@sol@@SAHPAUlua_State@@@Z 000000001010ee70     LuaAPI.obj
 0001:0010de80       ??$static_trampoline@$1?real_call@?$upvalue_this_member_function@VIMaterial@@P81@BE_NXZ$0A@@function_detail@sol@@SAHPAUlua_State@@@Z@detail@sol@@YAHPAUlua_State@@@Z 000000001010ee80     LuaAPI.obj
 0001:0010e030       ?user_gc_metatable@?$usertype_traits@P8IMaterial@@BE_NXZ@sol@@SAABV?$basic_string@DU?$char_traits@D@std@@V?$allocator@D@2@@std@@XZ 000000001010f030     LuaAPI.obj
 0001:0010e420       ??$push_with@$00ABQBDP8IMaterial@@BE_NXZ@?$unqualified_pusher@U?$user@P8IMaterial@@BE_NXZ@sol@@X@stack@sol@@SAHPAUlua_State@@ABQBD$$QAP8IMaterial@@BE_NXZ@Z 000000001010f420     LuaAPI.obj
 0001:0010e4b0       ??$ctti_get_type_name@P8IMaterial@@BE_NXZ@detail@sol@@YA?AV?$basic_string@DU?$char_traits@D@std@@V?$allocator@D@2@@std@@XZ 000000001010f4b0     LuaAPI.obj
 0001:0010e540       ??$user_allocate@P8IMaterial@@BE_NXZ@detail@sol@@YAPAP8IMaterial@@BE_NXZPAUlua_State@@@Z 000000001010f540     LuaAPI.obj
 0001:0010e750       ??$user_alloc_destruct@P8IMaterial@@BE_NXZ@detail@sol@@YAHPAUlua_State@@@Z 000000001010f750     LuaAPI.obj
 0001:0010e770       ??$set@VIMaterial@@V?$basic_string@DU?$char_traits@D@std@@V?$allocator@D@2@@std@@P81@AEXW4MaterialVarFlags_t@@_N@Z@usertype_storage_base@u_detail@sol@@QAEXPAUlua_State@@$$QAV?$basic_string@DU?$char_traits@D@std@@V?$allocator@D@2@@std@@$$QAP8IMaterial@@AEXW4MaterialVarFlags_t@@_N@Z@Z 000000001010f770     LuaAPI.obj
 0001:0010efe0       ??$call_with_@$00$0A@@?$binding@V?$basic_string@DU?$char_traits@D@std@@V?$allocator@D@2@@std@@P8IMaterial@@AEXW4MaterialVarFlags_t@@_N@ZV3@@u_detail@sol@@SAHPAUlua_State@@PAX@Z 000000001010ffe0     LuaAPI.obj
 0001:0010eff0       ??$index_call_with_@$00$0A@@?$binding@V?$basic_string@DU?$char_traits@D@std@@V?$allocator@D@2@@std@@P8IMaterial@@AEXW4MaterialVarFlags_t@@_N@ZV3@@u_detail@sol@@SAHPAUlua_State@@PAX@Z 000000001010fff0     LuaAPI.obj
 0001:0010f030       ??$call_with_@$0A@$0A@@?$binding@V?$basic_string@DU?$char_traits@D@std@@V?$allocator@D@2@@std@@P8IMaterial@@AEXW4MaterialVarFlags_t@@_N@ZV3@@u_detail@sol@@SAHPAUlua_State@@PAX@Z 0000000010110030     LuaAPI.obj
 0001:0010f040       ??$index_call_with_@$0A@$0A@@?$binding@V?$basic_string@DU?$char_traits@D@std@@V?$allocator@D@2@@std@@P8IMaterial@@AEXW4MaterialVarFlags_t@@_N@ZV3@@u_detail@sol@@SAHPAUlua_State@@PAX@Z 0000000010110040     LuaAPI.obj
 0001:0010f080       ??$call@$0A@$0A@@?$binding@V?$basic_string@DU?$char_traits@D@std@@V?$allocator@D@2@@std@@P8IMaterial@@AEXW4MaterialVarFlags_t@@_N@ZV3@@u_detail@sol@@SAHPAUlua_State@@@Z 0000000010110080     LuaAPI.obj
 0001:0010f090       ?data@?$binding@V?$basic_string@DU?$char_traits@D@std@@V?$allocator@D@2@@std@@P8IMaterial@@AEXW4MaterialVarFlags_t@@_N@ZV3@@u_detail@sol@@UAEPAXXZ 0000000010110090     LuaAPI.obj
 0001:0010f0a0       ??_G?$binding@V?$basic_string@DU?$char_traits@D@std@@V?$allocator@D@2@@std@@P8IMaterial@@AEXW4MaterialVarFlags_t@@_N@ZV3@@u_detail@sol@@UAEPAXI@Z 00000000101100a0     LuaAPI.obj
 0001:0010f0c0       ??$call@AAP8IMaterial@@AEXW4MaterialVarFlags_t@@_N@Z$$V@?$lua_call_wrapper@VIMaterial@@P81@AEXW4MaterialVarFlags_t@@_N@Z$00$0A@$0A@$0A@$00X@call_detail@sol@@SAHPAUlua_State@@AAP8IMaterial@@AEXW4MaterialVarFlags_t@@_N@Z@Z 00000000101100c0     LuaAPI.obj
 0001:0010f190       ??$call@$00$0A@@?$binding@V?$basic_string@DU?$char_traits@D@std@@V?$allocator@D@2@@std@@P8IMaterial@@AEXW4MaterialVarFlags_t@@_N@ZV3@@u_detail@sol@@SAHPAUlua_State@@@Z 0000000010110190     LuaAPI.obj
 0001:0010f1a0       ??$static_trampoline@$1??$call_@$00$0A@@?$binding@V?$basic_string@DU?$char_traits@D@std@@V?$allocator@D@2@@std@@P8IMaterial@@AEXW4MaterialVarFlags_t@@_N@ZV3@@u_detail@sol@@SAHPAUlua_State@@@Z@detail@sol@@YAHPAUlua_State@@@Z 00000000101101a0     LuaAPI.obj
 0001:0010f2f0       ??$call@AAP8IMaterial@@AEXW4MaterialVarFlags_t@@_N@Z$$V@?$lua_call_wrapper@VIMaterial@@P81@AEXW4MaterialVarFlags_t@@_N@Z$0A@$0A@$0A@$0A@$00X@call_detail@sol@@SAHPAUlua_State@@AAP8IMaterial@@AEXW4MaterialVarFlags_t@@_N@Z@Z 00000000101102f0     LuaAPI.obj
 0001:0010f3c0       ??$static_trampoline@$1??$call_@$0A@$0A@@?$binding@V?$basic_string@DU?$char_traits@D@std@@V?$allocator@D@2@@std@@P8IMaterial@@AEXW4MaterialVarFlags_t@@_N@ZV3@@u_detail@sol@@SAHPAUlua_State@@@Z@detail@sol@@YAHPAUlua_State@@@Z 00000000101103c0     LuaAPI.obj
 0001:0010f510       ??$traverse_set@V?$basic_string@DU?$char_traits@D@std@@V?$allocator@D@2@@std@@P8IMaterial@@AEXW4MaterialVarFlags_t@@_N@Z@?$basic_table_core@$0A@V?$basic_reference@$0A@@sol@@@sol@@QAEAAV01@$$QAV?$basic_string@DU?$char_traits@D@std@@V?$allocator@D@2@@std@@$$QAP8IMaterial@@AEXW4MaterialVarFlags_t@@_N@Z@Z 0000000010110510     LuaAPI.obj
 0001:0010f660       ?call@?$upvalue_this_member_function@VIMaterial@@P81@AEXW4MaterialVarFlags_t@@_N@Z$0A@@function_detail@sol@@SAHPAUlua_State@@@Z 0000000010110660     LuaAPI.obj
 0001:0010f670       ??$static_trampoline@$1?real_call@?$upvalue_this_member_function@VIMaterial@@P81@AEXW4MaterialVarFlags_t@@_N@Z$0A@@function_detail@sol@@SAHPAUlua_State@@@Z@detail@sol@@YAHPAUlua_State@@@Z 0000000010110670     LuaAPI.obj
 0001:0010f7c0       ?user_gc_metatable@?$usertype_traits@P8IMaterial@@AEXW4MaterialVarFlags_t@@_N@Z@sol@@SAABV?$basic_string@DU?$char_traits@D@std@@V?$allocator@D@2@@std@@XZ 00000000101107c0     LuaAPI.obj
 0001:0010fbb0       ??$push_with@$00ABQBDP8IMaterial@@AEXW4MaterialVarFlags_t@@_N@Z@?$unqualified_pusher@U?$user@P8IMaterial@@AEXW4MaterialVarFlags_t@@_N@Z@sol@@X@stack@sol@@SAHPAUlua_State@@ABQBD$$QAP8IMaterial@@AEXW4MaterialVarFlags_t@@_N@Z@Z 0000000010110bb0     LuaAPI.obj
 0001:0010fc40       ??$ctti_get_type_name@P8IMaterial@@AEXW4MaterialVarFlags_t@@_N@Z@detail@sol@@YA?AV?$basic_string@DU?$char_traits@D@std@@V?$allocator@D@2@@std@@XZ 0000000010110c40     LuaAPI.obj
 0001:0010fcd0       ??$user_allocate@P8IMaterial@@AEXW4MaterialVarFlags_t@@_N@Z@detail@sol@@YAPAP8IMaterial@@AEXW4MaterialVarFlags_t@@_N@ZPAUlua_State@@@Z 0000000010110cd0     LuaAPI.obj
 0001:0010fee0       ??$user_alloc_destruct@P8IMaterial@@AEXW4MaterialVarFlags_t@@_N@Z@detail@sol@@YAHPAUlua_State@@@Z 0000000010110ee0     LuaAPI.obj
 0001:0010ff00       ??$new_usertype@VINetChannel@@ABV?$basic_string@DU?$char_traits@D@std@@V?$allocator@D@2@@std@@@?$basic_table_core@$00V?$basic_reference@$0A@@sol@@@sol@@QAE?AV?$basic_usertype@VINetChannel@@V?$basic_reference@$0A@@sol@@@1@ABV?$basic_string@DU?$char_traits@D@std@@V?$allocator@D@2@@std@@Uautomagic_enrollments@1@@Z 0000000010110f00     LuaAPI.obj
 0001:00110010       ??$tuple_set@$0A@$00$01$02$03$04$05$06$07$08$$Z$$QAV?$basic_string@DU?$char_traits@D@std@@V?$allocator@D@2@@std@@$$QAP8INetChannel@@BEPBDXZ$$QAV12@$$QAP83@BEPBDXZ$$QAV12@$$QAP83@BE_NXZ$$QAV12@$$QAP83@BEMH@Z$$QAV12@$$QAP83@BEMH@Z$$QAV12@$$QAP83@BEMH@Z$$QAV12@$$QAP83@BEMH@Z$$QAV12@$$QAP83@BEMH@Z$$QAV12@$$QAP83@BEMH@Z$$QAV12@$$QAP83@BEHH@Z@?$basic_usertype@VINetChannel@@V?$basic_reference@$0A@@sol@@@sol@@AAEXU?$integer_sequence@I$0A@$00$01$02$03$04$05$06$07$08@std@@$$QAV?$tuple@$$QAV?$basic_string@DU?$char_traits@D@std@@V?$allocator@D@2@@std@@$$QAP8INetChannel@@BEPBDXZ$$QAV12@$$QAP83@BEPBDXZ$$QAV12@$$QAP83@BE_NXZ$$QAV12@$$QAP83@BEMH@Z$$QAV12@$$QAP83@BEMH@Z$$QAV12@$$QAP83@BEMH@Z$$QAV12@$$QAP83@BEMH@Z$$QAV12@$$QAP83@BEMH@Z$$QAV12@$$QAP83@BEMH@Z$$QAV12@$$QAP83@BEHH@Z@3@@Z 0000000010111010     LuaAPI.obj
 0001:001100a0       ??$register_usertype@VINetChannel@@@u_detail@sol@@YAHPAUlua_State@@Uautomagic_enrollments@1@@Z 00000000101110a0     LuaAPI.obj
 0001:001104c0       ??$delete_usertype_storage@VINetChannel@@@u_detail@sol@@YAXPAUlua_State@@@Z 00000000101114c0     LuaAPI.obj
 0001:00110550       ??$create_usertype_storage@VINetChannel@@@u_detail@sol@@YAAAU?$usertype_storage@VINetChannel@@@01@PAUlua_State@@@Z 0000000010111550     LuaAPI.obj
 0001:00110650       ?gc_table@?$usertype_traits@VINetChannel@@@sol@@SAABV?$basic_string@DU?$char_traits@D@std@@V?$allocator@D@2@@std@@XZ 0000000010111650     LuaAPI.obj
 0001:00110a40       ?metatable@?$usertype_traits@$$CBVINetChannel@@@sol@@SAABV?$basic_string@DU?$char_traits@D@std@@V?$allocator@D@2@@std@@XZ 0000000010111a40     LuaAPI.obj
 0001:00110dc0       ?metatable@?$usertype_traits@PBVINetChannel@@@sol@@SAABV?$basic_string@DU?$char_traits@D@std@@V?$allocator@D@2@@std@@XZ 0000000010111dc0     LuaAPI.obj
 0001:00111140       ?metatable@?$usertype_traits@PAVINetChannel@@@sol@@SAABV?$basic_string@DU?$char_traits@D@std@@V?$allocator@D@2@@std@@XZ 0000000010112140     LuaAPI.obj
 0001:001114c0       ?metatable@?$usertype_traits@U?$unique_usertype@VINetChannel@@@detail@sol@@@sol@@SAABV?$basic_string@DU?$char_traits@D@std@@V?$allocator@D@2@@std@@XZ 00000000101124c0     LuaAPI.obj
 0001:00111840       ?metatable@?$usertype_traits@VINetChannel@@@sol@@SAABV?$basic_string@DU?$char_traits@D@std@@V?$allocator@D@2@@std@@XZ 0000000010112840     LuaAPI.obj
 0001:00111bc0       ??$is_check@VINetChannel@@@detail@sol@@YAHPAUlua_State@@@Z 0000000010112bc0     LuaAPI.obj
 0001:00111c40       ??$destruct_usertype_storage@VINetChannel@@@u_detail@sol@@YAHPAUlua_State@@@Z 0000000010112c40     LuaAPI.obj
 0001:00111c60       ?user_gc_metatable@?$usertype_traits@U?$usertype_storage@VINetChannel@@@u_detail@sol@@@sol@@SAABV?$basic_string@DU?$char_traits@D@std@@V?$allocator@D@2@@std@@XZ 0000000010112c60     LuaAPI.obj
 0001:00112050       ??$ctti_get_type_name@U?$usertype_storage@VINetChannel@@@u_detail@sol@@@detail@sol@@YA?AV?$basic_string@DU?$char_traits@D@std@@V?$allocator@D@2@@std@@XZ 0000000010113050     LuaAPI.obj
 0001:001120e0       ??$user_allocate@U?$usertype_storage@VINetChannel@@@u_detail@sol@@@detail@sol@@YAPAU?$usertype_storage@VINetChannel@@@u_detail@1@PAUlua_State@@@Z 00000000101130e0     LuaAPI.obj
 0001:00112300       ??$ctti_get_type_name@$$CBVINetChannel@@@detail@sol@@YA?AV?$basic_string@DU?$char_traits@D@std@@V?$allocator@D@2@@std@@XZ 0000000010113300     LuaAPI.obj
 0001:00112390       ??$ctti_get_type_name@PBVINetChannel@@@detail@sol@@YA?AV?$basic_string@DU?$char_traits@D@std@@V?$allocator@D@2@@std@@XZ 0000000010113390     LuaAPI.obj
 0001:00112420       ??$ctti_get_type_name@PAVINetChannel@@@detail@sol@@YA?AV?$basic_string@DU?$char_traits@D@std@@V?$allocator@D@2@@std@@XZ 0000000010113420     LuaAPI.obj
 0001:001124b0       ??$ctti_get_type_name@U?$unique_usertype@VINetChannel@@@detail@sol@@@detail@sol@@YA?AV?$basic_string@DU?$char_traits@D@std@@V?$allocator@D@2@@std@@XZ 00000000101134b0     LuaAPI.obj
 0001:00112540       ??$ctti_get_type_name@VINetChannel@@@detail@sol@@YA?AV?$basic_string@DU?$char_traits@D@std@@V?$allocator@D@2@@std@@XZ 0000000010113540     LuaAPI.obj
 0001:001125d0       ??$check@VINetChannel@@P6AHPAUlua_State@@HW4type@sol@@1PBD@_E@?$unqualified_checker@U?$as_value_tag@VINetChannel@@@detail@sol@@$06X@stack@sol@@SA_NU?$types@VINetChannel@@@2@PAUlua_State@@HW4type@2@$$QAP6AH1H22PBD@_EAAUrecord@12@@Z 00000000101135d0     LuaAPI.obj
 0001:001128c0       ?qualified_name@?$usertype_traits@VINetChannel@@@sol@@SAABV?$basic_string@DU?$char_traits@D@std@@V?$allocator@D@2@@std@@XZ 00000000101138c0     LuaAPI.obj
 0001:001129f0       ?metatable@?$usertype_traits@U?$as_container_t@VINetChannel@@@sol@@@sol@@SAABV?$basic_string@DU?$char_traits@D@std@@V?$allocator@D@2@@std@@XZ 00000000101139f0     LuaAPI.obj
 0001:00112d70       ??$ctti_get_type_name@U?$as_container_t@VINetChannel@@@sol@@@detail@sol@@YA?AV?$basic_string@DU?$char_traits@D@std@@V?$allocator@D@2@@std@@XZ 0000000010113d70     LuaAPI.obj
 0001:00112e00       ??R<lambda_1>@?0???$register_usertype@VINetChannel@@@u_detail@sol@@YAHPAUlua_State@@Uautomagic_enrollments@2@@Z@QBE?A?<auto>@@0W4submetatable_type@12@AAV?$basic_reference@$0A@@2@@Z 0000000010113e00     LuaAPI.obj
 0001:001133f0       ?user_metatable@?$usertype_traits@VINetChannel@@@sol@@SAABV?$basic_string@DU?$char_traits@D@std@@V?$allocator@D@2@@std@@XZ 00000000101143f0     LuaAPI.obj
 0001:001137e0       ??$unique_destruct@VINetChannel@@@detail@sol@@YAHPAUlua_State@@@Z 00000000101147e0     LuaAPI.obj
 0001:00113820       ?type_check@?$inheritance@VINetChannel@@@detail@sol@@SA_NABV?$basic_string_view@DU?$char_traits@D@std@@@std@@@Z 0000000010114820     LuaAPI.obj
 0001:00113860       ?type_cast@?$inheritance@VINetChannel@@@detail@sol@@SAPAXPAXABV?$basic_string_view@DU?$char_traits@D@std@@@std@@@Z 0000000010114860     LuaAPI.obj
 0001:001138a0       ??$insert_default_registrations@VINetChannel@@AAV<lambda_1>@?0???R2?0???$register_usertype@VINetChannel@@@u_detail@sol@@YAHPAUlua_State@@Uautomagic_enrollments@4@@Z@QBE?A?<auto>@@0W4submetatable_type@34@AAV?$basic_reference@$0A@@4@@Z@AAUproperties_enrollment_allowed@detail@4@@detail@sol@@YAXAAV<lambda_1>@?0???R2?0???$register_usertype@VINetChannel@@@u_detail@1@YAHPAUlua_State@@Uautomagic_enrollments@1@@Z@QBE?A?<auto>@@0W4submetatable_type@31@AAV?$basic_reference@$0A@@1@@Z@AAUproperties_enrollment_allowed@01@@Z 00000000101148a0     LuaAPI.obj
 0001:001139e0       ??$meta_index_call@$0A@@?$usertype_storage@VINetChannel@@@u_detail@sol@@SAHPAUlua_State@@@Z 00000000101149e0     LuaAPI.obj
 0001:001139f0       ??$meta_index_call@$00@?$usertype_storage@VINetChannel@@@u_detail@sol@@SAHPAUlua_State@@@Z 00000000101149f0     LuaAPI.obj
 0001:00113a00       ??$index_call@$00@?$usertype_storage@VINetChannel@@@u_detail@sol@@SAHPAUlua_State@@@Z 0000000010114a00     LuaAPI.obj
 0001:00113a10       ??$usertype_alloc_destruct@VINetChannel@@@detail@sol@@YAHPAUlua_State@@@Z 0000000010114a10     LuaAPI.obj
 0001:00113a30       ??$comparsion_operator_wrap@VINetChannel@@Uno_comp@detail@sol@@@detail@sol@@YAHPAUlua_State@@@Z 0000000010114a30     LuaAPI.obj
 0001:00113ad0       ?pairs_call@?$u_c_launch@U?$as_container_t@VINetChannel@@@sol@@@container_detail@sol@@SAHPAUlua_State@@@Z 0000000010114ad0     LuaAPI.obj
 0001:00113ae0       ??$get_using@V?$optional@AAVINetChannel@@@sol@@AAP6AHPAUlua_State@@HW4type@2@1PBD@_E@?$unqualified_check_getter@VINetChannel@@X@stack@sol@@SA?AV?$optional@AAVINetChannel@@@2@PAUlua_State@@HAAP6AH0HW4type@2@1PBD@_EAAUrecord@12@@Z 0000000010114ae0     LuaAPI.obj
 0001:00113b90       ??$check@VINetChannel@@AAP6AHPAUlua_State@@HW4type@sol@@1PBD@_E@?$unqualified_checker@U?$as_value_tag@VINetChannel@@@detail@sol@@$06X@stack@sol@@SA_NU?$types@VINetChannel@@@2@PAUlua_State@@HW4type@2@AAP6AH1H22PBD@_EAAUrecord@12@@Z 0000000010114b90     LuaAPI.obj
 0001:00113e80       ?get_no_lua_nil_from@?$unqualified_getter@U?$as_value_tag@VINetChannel@@@detail@sol@@X@stack@sol@@SAPAVINetChannel@@PAUlua_State@@PAXHAAUrecord@23@@Z 0000000010114e80     LuaAPI.obj
 0001:00113f20       ??$static_trampoline@$1?real_pairs_call@?$u_c_launch@U?$as_container_t@VINetChannel@@@sol@@@container_detail@sol@@SAHPAUlua_State@@@Z@detail@sol@@YAHPAUlua_State@@@Z 0000000010114f20     LuaAPI.obj
 0001:001140f0       ??$static_trampoline@$1??$index_call_@$0A@$00@?$usertype_storage@VINetChannel@@@u_detail@sol@@SAHPAUlua_State@@@Z@detail@sol@@YAHPAUlua_State@@@Z 00000000101150f0     LuaAPI.obj
 0001:00114250       ??$static_trampoline@$1??$index_call_@$00$00@?$usertype_storage@VINetChannel@@@u_detail@sol@@SAHPAUlua_State@@@Z@detail@sol@@YAHPAUlua_State@@@Z 0000000010115250     LuaAPI.obj
 0001:001143b0       ??$static_trampoline@$1??$index_call_@$00$0A@@?$usertype_storage@VINetChannel@@@u_detail@sol@@SAHPAUlua_State@@@Z@detail@sol@@YAHPAUlua_State@@@Z 00000000101153b0     LuaAPI.obj
 0001:00114510       ??$traverse_set_deep@$00$0A@$0A@ABV?$basic_string@DU?$char_traits@D@std@@V?$allocator@D@2@@std@@AAV?$basic_usertype@VINetChannel@@V?$basic_reference@$0A@@sol@@@sol@@@?$basic_table_core@$00V?$basic_reference@$0A@@sol@@@sol@@ABEXHABV?$basic_string@DU?$char_traits@D@std@@V?$allocator@D@2@@std@@AAV?$basic_usertype@VINetChannel@@V?$basic_reference@$0A@@sol@@@1@@Z 0000000010115510     LuaAPI.obj
 0001:00114590       ??$set@V?$basic_string@DU?$char_traits@D@std@@V?$allocator@D@2@@std@@P8INetChannel@@BEPBDXZ@?$basic_usertype@VINetChannel@@V?$basic_reference@$0A@@sol@@@sol@@QAEX$$QAV?$basic_string@DU?$char_traits@D@std@@V?$allocator@D@2@@std@@$$QAP8INetChannel@@BEPBDXZ@Z 0000000010115590     LuaAPI.obj
 0001:00114630       ??$set@V?$basic_string@DU?$char_traits@D@std@@V?$allocator@D@2@@std@@P8INetChannel@@BE_NXZ@?$basic_usertype@VINetChannel@@V?$basic_reference@$0A@@sol@@@sol@@QAEX$$QAV?$basic_string@DU?$char_traits@D@std@@V?$allocator@D@2@@std@@$$QAP8INetChannel@@BE_NXZ@Z 0000000010115630     LuaAPI.obj
 0001:001146d0       ??$set@V?$basic_string@DU?$char_traits@D@std@@V?$allocator@D@2@@std@@P8INetChannel@@BEMH@Z@?$basic_usertype@VINetChannel@@V?$basic_reference@$0A@@sol@@@sol@@QAEX$$QAV?$basic_string@DU?$char_traits@D@std@@V?$allocator@D@2@@std@@$$QAP8INetChannel@@BEMH@Z@Z 00000000101156d0     LuaAPI.obj
 0001:00114770       ??$set@V?$basic_string@DU?$char_traits@D@std@@V?$allocator@D@2@@std@@P8INetChannel@@BEHH@Z@?$basic_usertype@VINetChannel@@V?$basic_reference@$0A@@sol@@@sol@@QAEX$$QAV?$basic_string@DU?$char_traits@D@std@@V?$allocator@D@2@@std@@$$QAP8INetChannel@@BEHH@Z@Z 0000000010115770     LuaAPI.obj
 0001:00114810       ??$set@VINetChannel@@V?$basic_string@DU?$char_traits@D@std@@V?$allocator@D@2@@std@@P81@BEPBDXZ@usertype_storage_base@u_detail@sol@@QAEXPAUlua_State@@$$QAV?$basic_string@DU?$char_traits@D@std@@V?$allocator@D@2@@std@@$$QAP8INetChannel@@BEPBDXZ@Z 0000000010115810     LuaAPI.obj
 0001:00115080       ??$call_with_@$00$0A@@?$binding@V?$basic_string@DU?$char_traits@D@std@@V?$allocator@D@2@@std@@P8INetChannel@@BEPBDXZV3@@u_detail@sol@@SAHPAUlua_State@@PAX@Z 0000000010116080     LuaAPI.obj
 0001:001150d0       ??$index_call_with_@$00$0A@@?$binding@V?$basic_string@DU?$char_traits@D@std@@V?$allocator@D@2@@std@@P8INetChannel@@BEPBDXZV3@@u_detail@sol@@SAHPAUlua_State@@PAX@Z 00000000101160d0     LuaAPI.obj
 0001:00115110       ??$call_with_@$0A@$0A@@?$binding@V?$basic_string@DU?$char_traits@D@std@@V?$allocator@D@2@@std@@P8INetChannel@@BEPBDXZV3@@u_detail@sol@@SAHPAUlua_State@@PAX@Z 0000000010116110     LuaAPI.obj
 0001:00115160       ??$index_call_with_@$0A@$0A@@?$binding@V?$basic_string@DU?$char_traits@D@std@@V?$allocator@D@2@@std@@P8INetChannel@@BEPBDXZV3@@u_detail@sol@@SAHPAUlua_State@@PAX@Z 0000000010116160     LuaAPI.obj
 0001:001151a0       ??$call@$0A@$0A@@?$binding@V?$basic_string@DU?$char_traits@D@std@@V?$allocator@D@2@@std@@P8INetChannel@@BEPBDXZV3@@u_detail@sol@@SAHPAUlua_State@@@Z 00000000101161a0     LuaAPI.obj
 0001:001151b0       ??$index_call@$0A@@?$usertype_storage@VINetChannel@@@u_detail@sol@@SAHPAUlua_State@@@Z 00000000101161b0     LuaAPI.obj
 0001:001151c0       ?data@?$binding@V?$basic_string@DU?$char_traits@D@std@@V?$allocator@D@2@@std@@P8INetChannel@@BEPBDXZV3@@u_detail@sol@@UAEPAXXZ 00000000101161c0     LuaAPI.obj
 0001:001151d0       ??_G?$binding@V?$basic_string@DU?$char_traits@D@std@@V?$allocator@D@2@@std@@P8INetChannel@@BEPBDXZV3@@u_detail@sol@@UAEPAXI@Z 00000000101161d0     LuaAPI.obj
 0001:001151f0       ??$call@AAP8INetChannel@@BEPBDXZAAV1@@?$lua_call_wrapper@VINetChannel@@P81@BEPBDXZ$00$0A@$0A@$0A@$00X@call_detail@sol@@SAHPAUlua_State@@AAP8INetChannel@@BEPBDXZAAV4@@Z 00000000101161f0     LuaAPI.obj
 0001:00115260       ??$call@$00$0A@@?$binding@V?$basic_string@DU?$char_traits@D@std@@V?$allocator@D@2@@std@@P8INetChannel@@BEPBDXZV3@@u_detail@sol@@SAHPAUlua_State@@@Z 0000000010116260     LuaAPI.obj
 0001:00115270       ??$static_trampoline@$1??$call_@$00$0A@@?$binding@V?$basic_string@DU?$char_traits@D@std@@V?$allocator@D@2@@std@@P8INetChannel@@BEPBDXZV3@@u_detail@sol@@SAHPAUlua_State@@@Z@detail@sol@@YAHPAUlua_State@@@Z 0000000010116270     LuaAPI.obj
 0001:00115400       ??$call@AAP8INetChannel@@BEPBDXZAAV1@@?$lua_call_wrapper@VINetChannel@@P81@BEPBDXZ$0A@$0A@$0A@$0A@$00X@call_detail@sol@@SAHPAUlua_State@@AAP8INetChannel@@BEPBDXZAAV4@@Z 0000000010116400     LuaAPI.obj
 0001:00115470       ??$static_trampoline@$1??$call_@$0A@$0A@@?$binding@V?$basic_string@DU?$char_traits@D@std@@V?$allocator@D@2@@std@@P8INetChannel@@BEPBDXZV3@@u_detail@sol@@SAHPAUlua_State@@@Z@detail@sol@@YAHPAUlua_State@@@Z 0000000010116470     LuaAPI.obj
 0001:00115600       ??$static_trampoline@$1??$index_call_@$0A@$0A@@?$usertype_storage@VINetChannel@@@u_detail@sol@@SAHPAUlua_State@@@Z@detail@sol@@YAHPAUlua_State@@@Z 0000000010116600     LuaAPI.obj
 0001:00115760       ??$traverse_set@V?$basic_string@DU?$char_traits@D@std@@V?$allocator@D@2@@std@@P8INetChannel@@BEPBDXZ@?$basic_table_core@$0A@V?$basic_reference@$0A@@sol@@@sol@@QAEAAV01@$$QAV?$basic_string@DU?$char_traits@D@std@@V?$allocator@D@2@@std@@$$QAP8INetChannel@@BEPBDXZ@Z 0000000010116760     LuaAPI.obj
 0001:001158b0       ?call@?$upvalue_this_member_function@VINetChannel@@P81@BEPBDXZ$0A@@function_detail@sol@@SAHPAUlua_State@@@Z 00000000101168b0     LuaAPI.obj
 0001:001158c0       ??$static_trampoline@$1?real_call@?$upvalue_this_member_function@VINetChannel@@P81@BEPBDXZ$0A@@function_detail@sol@@SAHPAUlua_State@@@Z@detail@sol@@YAHPAUlua_State@@@Z 00000000101168c0     LuaAPI.obj
 0001:00115a50       ?user_gc_metatable@?$usertype_traits@P8INetChannel@@BEPBDXZ@sol@@SAABV?$basic_string@DU?$char_traits@D@std@@V?$allocator@D@2@@std@@XZ 0000000010116a50     LuaAPI.obj
 0001:00115e40       ??$push_with@$00ABQBDP8INetChannel@@BEPBDXZ@?$unqualified_pusher@U?$user@P8INetChannel@@BEPBDXZ@sol@@X@stack@sol@@SAHPAUlua_State@@ABQBD$$QAP8INetChannel@@BEPBDXZ@Z 0000000010116e40     LuaAPI.obj
 0001:00115ed0       ??$ctti_get_type_name@P8INetChannel@@BEPBDXZ@detail@sol@@YA?AV?$basic_string@DU?$char_traits@D@std@@V?$allocator@D@2@@std@@XZ 0000000010116ed0     LuaAPI.obj
 0001:00115f60       ??$user_allocate@P8INetChannel@@BEPBDXZ@detail@sol@@YAPAP8INetChannel@@BEPBDXZPAUlua_State@@@Z 0000000010116f60     LuaAPI.obj
 0001:00116170       ??$user_alloc_destruct@P8INetChannel@@BEPBDXZ@detail@sol@@YAHPAUlua_State@@@Z 0000000010117170     LuaAPI.obj
 0001:00116190       ??$set@VINetChannel@@V?$basic_string@DU?$char_traits@D@std@@V?$allocator@D@2@@std@@P81@BE_NXZ@usertype_storage_base@u_detail@sol@@QAEXPAUlua_State@@$$QAV?$basic_string@DU?$char_traits@D@std@@V?$allocator@D@2@@std@@$$QAP8INetChannel@@BE_NXZ@Z 0000000010117190     LuaAPI.obj
 0001:00116a00       ??$call_with_@$00$0A@@?$binding@V?$basic_string@DU?$char_traits@D@std@@V?$allocator@D@2@@std@@P8INetChannel@@BE_NXZV3@@u_detail@sol@@SAHPAUlua_State@@PAX@Z 0000000010117a00     LuaAPI.obj
 0001:00116a70       ??$index_call_with_@$00$0A@@?$binding@V?$basic_string@DU?$char_traits@D@std@@V?$allocator@D@2@@std@@P8INetChannel@@BE_NXZV3@@u_detail@sol@@SAHPAUlua_State@@PAX@Z 0000000010117a70     LuaAPI.obj
 0001:00116ab0       ??$call_with_@$0A@$0A@@?$binding@V?$basic_string@DU?$char_traits@D@std@@V?$allocator@D@2@@std@@P8INetChannel@@BE_NXZV3@@u_detail@sol@@SAHPAUlua_State@@PAX@Z 0000000010117ab0     LuaAPI.obj
 0001:00116b20       ??$index_call_with_@$0A@$0A@@?$binding@V?$basic_string@DU?$char_traits@D@std@@V?$allocator@D@2@@std@@P8INetChannel@@BE_NXZV3@@u_detail@sol@@SAHPAUlua_State@@PAX@Z 0000000010117b20     LuaAPI.obj
 0001:00116b60       ??$call@$0A@$0A@@?$binding@V?$basic_string@DU?$char_traits@D@std@@V?$allocator@D@2@@std@@P8INetChannel@@BE_NXZV3@@u_detail@sol@@SAHPAUlua_State@@@Z 0000000010117b60     LuaAPI.obj
 0001:00116b70       ?data@?$binding@V?$basic_string@DU?$char_traits@D@std@@V?$allocator@D@2@@std@@P8INetChannel@@BE_NXZV3@@u_detail@sol@@UAEPAXXZ 0000000010117b70     LuaAPI.obj
 0001:00116b80       ??_G?$binding@V?$basic_string@DU?$char_traits@D@std@@V?$allocator@D@2@@std@@P8INetChannel@@BE_NXZV3@@u_detail@sol@@UAEPAXI@Z 0000000010117b80     LuaAPI.obj
 0001:00116ba0       ??$call@$00$0A@@?$binding@V?$basic_string@DU?$char_traits@D@std@@V?$allocator@D@2@@std@@P8INetChannel@@BE_NXZV3@@u_detail@sol@@SAHPAUlua_State@@@Z 0000000010117ba0     LuaAPI.obj
 0001:00116bb0       ??$static_trampoline@$1??$call_@$00$0A@@?$binding@V?$basic_string@DU?$char_traits@D@std@@V?$allocator@D@2@@std@@P8INetChannel@@BE_NXZV3@@u_detail@sol@@SAHPAUlua_State@@@Z@detail@sol@@YAHPAUlua_State@@@Z 0000000010117bb0     LuaAPI.obj
 0001:00116d50       ??$static_trampoline@$1??$call_@$0A@$0A@@?$binding@V?$basic_string@DU?$char_traits@D@std@@V?$allocator@D@2@@std@@P8INetChannel@@BE_NXZV3@@u_detail@sol@@SAHPAUlua_State@@@Z@detail@sol@@YAHPAUlua_State@@@Z 0000000010117d50     LuaAPI.obj
 0001:00116ef0       ??$traverse_set@V?$basic_string@DU?$char_traits@D@std@@V?$allocator@D@2@@std@@P8INetChannel@@BE_NXZ@?$basic_table_core@$0A@V?$basic_reference@$0A@@sol@@@sol@@QAEAAV01@$$QAV?$basic_string@DU?$char_traits@D@std@@V?$allocator@D@2@@std@@$$QAP8INetChannel@@BE_NXZ@Z 0000000010117ef0     LuaAPI.obj
 0001:00117040       ?call@?$upvalue_this_member_function@VINetChannel@@P81@BE_NXZ$0A@@function_detail@sol@@SAHPAUlua_State@@@Z 0000000010118040     LuaAPI.obj
 0001:00117050       ??$static_trampoline@$1?real_call@?$upvalue_this_member_function@VINetChannel@@P81@BE_NXZ$0A@@function_detail@sol@@SAHPAUlua_State@@@Z@detail@sol@@YAHPAUlua_State@@@Z 0000000010118050     LuaAPI.obj
 0001:00117200       ?user_gc_metatable@?$usertype_traits@P8INetChannel@@BE_NXZ@sol@@SAABV?$basic_string@DU?$char_traits@D@std@@V?$allocator@D@2@@std@@XZ 0000000010118200     LuaAPI.obj
 0001:001175f0       ??$push_with@$00ABQBDP8INetChannel@@BE_NXZ@?$unqualified_pusher@U?$user@P8INetChannel@@BE_NXZ@sol@@X@stack@sol@@SAHPAUlua_State@@ABQBD$$QAP8INetChannel@@BE_NXZ@Z 00000000101185f0     LuaAPI.obj
 0001:00117680       ??$ctti_get_type_name@P8INetChannel@@BE_NXZ@detail@sol@@YA?AV?$basic_string@DU?$char_traits@D@std@@V?$allocator@D@2@@std@@XZ 0000000010118680     LuaAPI.obj
 0001:00117710       ??$user_allocate@P8INetChannel@@BE_NXZ@detail@sol@@YAPAP8INetChannel@@BE_NXZPAUlua_State@@@Z 0000000010118710     LuaAPI.obj
 0001:00117920       ??$user_alloc_destruct@P8INetChannel@@BE_NXZ@detail@sol@@YAHPAUlua_State@@@Z 0000000010118920     LuaAPI.obj
 0001:00117940       ??$set@VINetChannel@@V?$basic_string@DU?$char_traits@D@std@@V?$allocator@D@2@@std@@P81@BEMH@Z@usertype_storage_base@u_detail@sol@@QAEXPAUlua_State@@$$QAV?$basic_string@DU?$char_traits@D@std@@V?$allocator@D@2@@std@@$$QAP8INetChannel@@BEMH@Z@Z 0000000010118940     LuaAPI.obj
 0001:001181b0       ??$call_with_@$00$0A@@?$binding@V?$basic_string@DU?$char_traits@D@std@@V?$allocator@D@2@@std@@P8INetChannel@@BEMH@ZV3@@u_detail@sol@@SAHPAUlua_State@@PAX@Z 00000000101191b0     LuaAPI.obj
 0001:00118240       ??$index_call_with_@$00$0A@@?$binding@V?$basic_string@DU?$char_traits@D@std@@V?$allocator@D@2@@std@@P8INetChannel@@BEMH@ZV3@@u_detail@sol@@SAHPAUlua_State@@PAX@Z 0000000010119240     LuaAPI.obj
 0001:00118280       ??$call_with_@$0A@$0A@@?$binding@V?$basic_string@DU?$char_traits@D@std@@V?$allocator@D@2@@std@@P8INetChannel@@BEMH@ZV3@@u_detail@sol@@SAHPAUlua_State@@PAX@Z 0000000010119280     LuaAPI.obj
 0001:00118310       ??$index_call_with_@$0A@$0A@@?$binding@V?$basic_string@DU?$char_traits@D@std@@V?$allocator@D@2@@std@@P8INetChannel@@BEMH@ZV3@@u_detail@sol@@SAHPAUlua_State@@PAX@Z 0000000010119310     LuaAPI.obj
 0001:00118350       ??$call@$0A@$0A@@?$binding@V?$basic_string@DU?$char_traits@D@std@@V?$allocator@D@2@@std@@P8INetChannel@@BEMH@ZV3@@u_detail@sol@@SAHPAUlua_State@@@Z 0000000010119350     LuaAPI.obj
 0001:00118360       ?data@?$binding@V?$basic_string@DU?$char_traits@D@std@@V?$allocator@D@2@@std@@P8INetChannel@@BEMH@ZV3@@u_detail@sol@@UAEPAXXZ 0000000010119360     LuaAPI.obj
 0001:00118370       ??_G?$binding@V?$basic_string@DU?$char_traits@D@std@@V?$allocator@D@2@@std@@P8INetChannel@@BEMH@ZV3@@u_detail@sol@@UAEPAXI@Z 0000000010119370     LuaAPI.obj
 0001:00118390       ??$call@$00$0A@@?$binding@V?$basic_string@DU?$char_traits@D@std@@V?$allocator@D@2@@std@@P8INetChannel@@BEMH@ZV3@@u_detail@sol@@SAHPAUlua_State@@@Z 0000000010119390     LuaAPI.obj
 0001:001183a0       ??$static_trampoline@$1??$call_@$00$0A@@?$binding@V?$basic_string@DU?$char_traits@D@std@@V?$allocator@D@2@@std@@P8INetChannel@@BEMH@ZV3@@u_detail@sol@@SAHPAUlua_State@@@Z@detail@sol@@YAHPAUlua_State@@@Z 00000000101193a0     LuaAPI.obj
 0001:00118570       ??$static_trampoline@$1??$call_@$0A@$0A@@?$binding@V?$basic_string@DU?$char_traits@D@std@@V?$allocator@D@2@@std@@P8INetChannel@@BEMH@ZV3@@u_detail@sol@@SAHPAUlua_State@@@Z@detail@sol@@YAHPAUlua_State@@@Z 0000000010119570     LuaAPI.obj
 0001:00118740       ??$traverse_set@V?$basic_string@DU?$char_traits@D@std@@V?$allocator@D@2@@std@@P8INetChannel@@BEMH@Z@?$basic_table_core@$0A@V?$basic_reference@$0A@@sol@@@sol@@QAEAAV01@$$QAV?$basic_string@DU?$char_traits@D@std@@V?$allocator@D@2@@std@@$$QAP8INetChannel@@BEMH@Z@Z 0000000010119740     LuaAPI.obj
 0001:00118890       ?call@?$upvalue_this_member_function@VINetChannel@@P81@BEMH@Z$0A@@function_detail@sol@@SAHPAUlua_State@@@Z 0000000010119890     LuaAPI.obj
 0001:001188a0       ??$static_trampoline@$1?real_call@?$upvalue_this_member_function@VINetChannel@@P81@BEMH@Z$0A@@function_detail@sol@@SAHPAUlua_State@@@Z@detail@sol@@YAHPAUlua_State@@@Z 00000000101198a0     LuaAPI.obj
 0001:00118a80       ?user_gc_metatable@?$usertype_traits@P8INetChannel@@BEMH@Z@sol@@SAABV?$basic_string@DU?$char_traits@D@std@@V?$allocator@D@2@@std@@XZ 0000000010119a80     LuaAPI.obj
 0001:00118e70       ??$push_with@$00ABQBDP8INetChannel@@BEMH@Z@?$unqualified_pusher@U?$user@P8INetChannel@@BEMH@Z@sol@@X@stack@sol@@SAHPAUlua_State@@ABQBD$$QAP8INetChannel@@BEMH@Z@Z 0000000010119e70     LuaAPI.obj
 0001:00118f00       ??$ctti_get_type_name@P8INetChannel@@BEMH@Z@detail@sol@@YA?AV?$basic_string@DU?$char_traits@D@std@@V?$allocator@D@2@@std@@XZ 0000000010119f00     LuaAPI.obj
 0001:00118f90       ??$user_allocate@P8INetChannel@@BEMH@Z@detail@sol@@YAPAP8INetChannel@@BEMH@ZPAUlua_State@@@Z 0000000010119f90     LuaAPI.obj
 0001:001191a0       ??$user_alloc_destruct@P8INetChannel@@BEMH@Z@detail@sol@@YAHPAUlua_State@@@Z 000000001011a1a0     LuaAPI.obj
 0001:001191c0       ??$set@VINetChannel@@V?$basic_string@DU?$char_traits@D@std@@V?$allocator@D@2@@std@@P81@BEHH@Z@usertype_storage_base@u_detail@sol@@QAEXPAUlua_State@@$$QAV?$basic_string@DU?$char_traits@D@std@@V?$allocator@D@2@@std@@$$QAP8INetChannel@@BEHH@Z@Z 000000001011a1c0     LuaAPI.obj
 0001:00119a30       ??$call_with_@$00$0A@@?$binding@V?$basic_string@DU?$char_traits@D@std@@V?$allocator@D@2@@std@@P8INetChannel@@BEHH@ZV3@@u_detail@sol@@SAHPAUlua_State@@PAX@Z 000000001011aa30     LuaAPI.obj
 0001:00119ac0       ??$index_call_with_@$00$0A@@?$binding@V?$basic_string@DU?$char_traits@D@std@@V?$allocator@D@2@@std@@P8INetChannel@@BEHH@ZV3@@u_detail@sol@@SAHPAUlua_State@@PAX@Z 000000001011aac0     LuaAPI.obj
 0001:00119b00       ??$call_with_@$0A@$0A@@?$binding@V?$basic_string@DU?$char_traits@D@std@@V?$allocator@D@2@@std@@P8INetChannel@@BEHH@ZV3@@u_detail@sol@@SAHPAUlua_State@@PAX@Z 000000001011ab00     LuaAPI.obj
 0001:00119b90       ??$index_call_with_@$0A@$0A@@?$binding@V?$basic_string@DU?$char_traits@D@std@@V?$allocator@D@2@@std@@P8INetChannel@@BEHH@ZV3@@u_detail@sol@@SAHPAUlua_State@@PAX@Z 000000001011ab90     LuaAPI.obj
 0001:00119bd0       ??$call@$0A@$0A@@?$binding@V?$basic_string@DU?$char_traits@D@std@@V?$allocator@D@2@@std@@P8INetChannel@@BEHH@ZV3@@u_detail@sol@@SAHPAUlua_State@@@Z 000000001011abd0     LuaAPI.obj
 0001:00119be0       ?data@?$binding@V?$basic_string@DU?$char_traits@D@std@@V?$allocator@D@2@@std@@P8INetChannel@@BEHH@ZV3@@u_detail@sol@@UAEPAXXZ 000000001011abe0     LuaAPI.obj
 0001:00119bf0       ??_G?$binding@V?$basic_string@DU?$char_traits@D@std@@V?$allocator@D@2@@std@@P8INetChannel@@BEHH@ZV3@@u_detail@sol@@UAEPAXI@Z 000000001011abf0     LuaAPI.obj
 0001:00119c10       ??$call@$00$0A@@?$binding@V?$basic_string@DU?$char_traits@D@std@@V?$allocator@D@2@@std@@P8INetChannel@@BEHH@ZV3@@u_detail@sol@@SAHPAUlua_State@@@Z 000000001011ac10     LuaAPI.obj
 0001:00119c20       ??$static_trampoline@$1??$call_@$00$0A@@?$binding@V?$basic_string@DU?$char_traits@D@std@@V?$allocator@D@2@@std@@P8INetChannel@@BEHH@ZV3@@u_detail@sol@@SAHPAUlua_State@@@Z@detail@sol@@YAHPAUlua_State@@@Z 000000001011ac20     LuaAPI.obj
 0001:00119de0       ??$static_trampoline@$1??$call_@$0A@$0A@@?$binding@V?$basic_string@DU?$char_traits@D@std@@V?$allocator@D@2@@std@@P8INetChannel@@BEHH@ZV3@@u_detail@sol@@SAHPAUlua_State@@@Z@detail@sol@@YAHPAUlua_State@@@Z 000000001011ade0     LuaAPI.obj
 0001:00119fa0       ??$traverse_set@V?$basic_string@DU?$char_traits@D@std@@V?$allocator@D@2@@std@@P8INetChannel@@BEHH@Z@?$basic_table_core@$0A@V?$basic_reference@$0A@@sol@@@sol@@QAEAAV01@$$QAV?$basic_string@DU?$char_traits@D@std@@V?$allocator@D@2@@std@@$$QAP8INetChannel@@BEHH@Z@Z 000000001011afa0     LuaAPI.obj
 0001:0011a0f0       ?call@?$upvalue_this_member_function@VINetChannel@@P81@BEHH@Z$0A@@function_detail@sol@@SAHPAUlua_State@@@Z 000000001011b0f0     LuaAPI.obj
 0001:0011a100       ??$static_trampoline@$1?real_call@?$upvalue_this_member_function@VINetChannel@@P81@BEHH@Z$0A@@function_detail@sol@@SAHPAUlua_State@@@Z@detail@sol@@YAHPAUlua_State@@@Z 000000001011b100     LuaAPI.obj
 0001:0011a2d0       ?user_gc_metatable@?$usertype_traits@P8INetChannel@@BEHH@Z@sol@@SAABV?$basic_string@DU?$char_traits@D@std@@V?$allocator@D@2@@std@@XZ 000000001011b2d0     LuaAPI.obj
 0001:0011a6c0       ??$push_with@$00ABQBDP8INetChannel@@BEHH@Z@?$unqualified_pusher@U?$user@P8INetChannel@@BEHH@Z@sol@@X@stack@sol@@SAHPAUlua_State@@ABQBD$$QAP8INetChannel@@BEHH@Z@Z 000000001011b6c0     LuaAPI.obj
 0001:0011a750       ??$ctti_get_type_name@P8INetChannel@@BEHH@Z@detail@sol@@YA?AV?$basic_string@DU?$char_traits@D@std@@V?$allocator@D@2@@std@@XZ 000000001011b750     LuaAPI.obj
 0001:0011a7e0       ??$user_allocate@P8INetChannel@@BEHH@Z@detail@sol@@YAPAP8INetChannel@@BEHH@ZPAUlua_State@@@Z 000000001011b7e0     LuaAPI.obj
 0001:0011a9f0       ??$user_alloc_destruct@P8INetChannel@@BEHH@Z@detail@sol@@YAHPAUlua_State@@@Z 000000001011b9f0     LuaAPI.obj
 0001:0011aa10       ??$traverse_set@V?$tuple@AAY0BB@$$CBD@std@@U?$function_arguments@U?$function_sig@$$V@sol@@A6AXV?$basic_string@DU?$char_traits@D@std@@V?$allocator@D@2@@std@@@Z@sol@@@?$basic_table_core@$0A@V?$basic_reference@$0A@@sol@@@sol@@QAEAAV01@$$QAV?$tuple@AAY0BB@$$CBD@std@@$$QAU?$function_arguments@U?$function_sig@$$V@sol@@A6AXV?$basic_string@DU?$char_traits@D@std@@V?$allocator@D@2@@std@@@Z@1@@Z 000000001011ba10     LuaAPI.obj
 0001:0011aae0       ?call@?$upvalue_free_function@A6AXV?$basic_string@DU?$char_traits@D@std@@V?$allocator@D@2@@std@@@Z$0A@@function_detail@sol@@SAHPAUlua_State@@@Z 000000001011bae0     LuaAPI.obj
 0001:0011aaf0       ??$static_trampoline@$1?real_call@?$upvalue_free_function@A6AXV?$basic_string@DU?$char_traits@D@std@@V?$allocator@D@2@@std@@@Z$0A@@function_detail@sol@@SAHPAUlua_State@@@Z@detail@sol@@YAHPAUlua_State@@@Z 000000001011baf0     LuaAPI.obj
 0001:0011ad40       ??$call@V?$basic_string@DU?$char_traits@D@std@@V?$allocator@D@2@@std@@@?$wrapper@P6AXV?$basic_string@DU?$char_traits@D@std@@V?$allocator@D@2@@std@@@ZX@sol@@SA?A?<decltype-auto>@@AAP6AXV?$basic_string@DU?$char_traits@D@std@@V?$allocator@D@2@@std@@@Z$$QAV34@@Z 000000001011bd40     LuaAPI.obj
 0001:0011ad80       ??$traverse_set@V?$tuple@AAY0N@$$CBD@std@@U?$function_arguments@U?$function_sig@$$V@sol@@A6A?AV?$basic_string@DU?$char_traits@D@std@@V?$allocator@D@2@@std@@XZ@sol@@@?$basic_table_core@$0A@V?$basic_reference@$0A@@sol@@@sol@@QAEAAV01@$$QAV?$tuple@AAY0N@$$CBD@std@@$$QAU?$function_arguments@U?$function_sig@$$V@sol@@A6A?AV?$basic_string@DU?$char_traits@D@std@@V?$allocator@D@2@@std@@XZ@1@@Z 000000001011bd80     LuaAPI.obj
 0001:0011ae50       ?call@?$upvalue_free_function@A6A?AV?$basic_string@DU?$char_traits@D@std@@V?$allocator@D@2@@std@@XZ$0A@@function_detail@sol@@SAHPAUlua_State@@@Z 000000001011be50     LuaAPI.obj
 0001:0011ae60       ??$static_trampoline@$1?real_call@?$upvalue_free_function@A6A?AV?$basic_string@DU?$char_traits@D@std@@V?$allocator@D@2@@std@@XZ$0A@@function_detail@sol@@SAHPAUlua_State@@@Z@detail@sol@@YAHPAUlua_State@@@Z 000000001011be60     LuaAPI.obj
 0001:0011b030       ??$traverse_set@V?$tuple@AAY0BC@$$CBD@std@@U?$function_arguments@U?$function_sig@$$V@sol@@A6A?AV?$basic_string@DU?$char_traits@D@std@@V?$allocator@D@2@@std@@XZ@sol@@@?$basic_table_core@$0A@V?$basic_reference@$0A@@sol@@@sol@@QAEAAV01@$$QAV?$tuple@AAY0BC@$$CBD@std@@$$QAU?$function_arguments@U?$function_sig@$$V@sol@@A6A?AV?$basic_string@DU?$char_traits@D@std@@V?$allocator@D@2@@std@@XZ@1@@Z 000000001011c030     LuaAPI.obj
 0001:0011b100       ??$traverse_set@V?$tuple@AAY0P@$$CBD@std@@U?$function_arguments@U?$function_sig@$$V@sol@@A6AHXZ@sol@@@?$basic_table_core@$0A@V?$basic_reference@$0A@@sol@@@sol@@QAEAAV01@$$QAV?$tuple@AAY0P@$$CBD@std@@$$QAU?$function_arguments@U?$function_sig@$$V@sol@@A6AHXZ@1@@Z 000000001011c100     LuaAPI.obj
 0001:0011b1d0       ?call@?$upvalue_free_function@A6AHXZ$0A@@function_detail@sol@@SAHPAUlua_State@@@Z 000000001011c1d0     LuaAPI.obj
 0001:0011b1e0       ??$static_trampoline@$1?real_call@?$upvalue_free_function@A6AHXZ$0A@@function_detail@sol@@SAHPAUlua_State@@@Z@detail@sol@@YAHPAUlua_State@@@Z 000000001011c1e0     LuaAPI.obj
 0001:0011b350       ??$traverse_set@V?$tuple@AAY0O@$$CBD@std@@U?$function_arguments@U?$function_sig@$$V@sol@@A6APAVINetChannel@@XZ@sol@@@?$basic_table_core@$0A@V?$basic_reference@$0A@@sol@@@sol@@QAEAAV01@$$QAV?$tuple@AAY0O@$$CBD@std@@$$QAU?$function_arguments@U?$function_sig@$$V@sol@@A6APAVINetChannel@@XZ@1@@Z 000000001011c350     LuaAPI.obj
 0001:0011b420       ?call@?$upvalue_free_function@A6APAVINetChannel@@XZ$0A@@function_detail@sol@@SAHPAUlua_State@@@Z 000000001011c420     LuaAPI.obj
 0001:0011b430       ??$static_trampoline@$1?real_call@?$upvalue_free_function@A6APAVINetChannel@@XZ$0A@@function_detail@sol@@SAHPAUlua_State@@@Z@detail@sol@@YAHPAUlua_State@@@Z 000000001011c430     LuaAPI.obj
 0001:0011b5d0       ??$set_undefined_methods_on@PAVINetChannel@@@stack_detail@stack@sol@@YAXVstack_reference@2@@Z 000000001011c5d0     LuaAPI.obj
 0001:0011b850       ??$usertype_allocate_pointer@VINetChannel@@@detail@sol@@YAPAPAVINetChannel@@PAUlua_State@@@Z 000000001011c850     LuaAPI.obj
 0001:0011ba60       ??$traverse_set@V?$tuple@AAY0O@$$CBD@std@@U?$function_arguments@U?$function_sig@$$V@sol@@A6A?AVVector2D@@XZ@sol@@@?$basic_table_core@$0A@V?$basic_reference@$0A@@sol@@@sol@@QAEAAV01@$$QAV?$tuple@AAY0O@$$CBD@std@@$$QAU?$function_arguments@U?$function_sig@$$V@sol@@A6A?AVVector2D@@XZ@1@@Z 000000001011ca60     LuaAPI.obj
 0001:0011bb30       ?call@?$upvalue_free_function@A6A?AVVector2D@@XZ$0A@@function_detail@sol@@SAHPAUlua_State@@@Z 000000001011cb30     LuaAPI.obj
 0001:0011bb40       ??$static_trampoline@$1?real_call@?$upvalue_free_function@A6A?AVVector2D@@XZ$0A@@function_detail@sol@@SAHPAUlua_State@@@Z@detail@sol@@YAHPAUlua_State@@@Z 000000001011cb40     LuaAPI.obj
 0001:0011bce0       ??$traverse_set@V?$tuple@AAY0O@$$CBD@std@@U?$function_arguments@U?$function_sig@$$V@sol@@A6A?AVQAngle@@XZ@sol@@@?$basic_table_core@$0A@V?$basic_reference@$0A@@sol@@@sol@@QAEAAV01@$$QAV?$tuple@AAY0O@$$CBD@std@@$$QAU?$function_arguments@U?$function_sig@$$V@sol@@A6A?AVQAngle@@XZ@1@@Z 000000001011cce0     LuaAPI.obj
 0001:0011bdb0       ?call@?$upvalue_free_function@A6A?AVQAngle@@XZ$0A@@function_detail@sol@@SAHPAUlua_State@@@Z 000000001011cdb0     LuaAPI.obj
 0001:0011bdc0       ??$static_trampoline@$1?real_call@?$upvalue_free_function@A6A?AVQAngle@@XZ$0A@@function_detail@sol@@SAHPAUlua_State@@@Z@detail@sol@@YAHPAUlua_State@@@Z 000000001011cdc0     LuaAPI.obj
 0001:0011bf60       ??$traverse_set@V?$tuple@AAY0M@$$CBD@std@@U?$function_arguments@U?$function_sig@$$V@sol@@A6A_NXZ@sol@@@?$basic_table_core@$0A@V?$basic_reference@$0A@@sol@@@sol@@QAEAAV01@$$QAV?$tuple@AAY0M@$$CBD@std@@$$QAU?$function_arguments@U?$function_sig@$$V@sol@@A6A_NXZ@1@@Z 000000001011cf60     LuaAPI.obj
 0001:0011c030       ?call@?$upvalue_free_function@A6A_NXZ$0A@@function_detail@sol@@SAHPAUlua_State@@@Z 000000001011d030     LuaAPI.obj
 0001:0011c040       ??$static_trampoline@$1?real_call@?$upvalue_free_function@A6A_NXZ$0A@@function_detail@sol@@SAHPAUlua_State@@@Z@detail@sol@@YAHPAUlua_State@@@Z 000000001011d040     LuaAPI.obj
 0001:0011c1a0       ??$traverse_set@V?$tuple@AAY08$$CBD@std@@U?$function_arguments@U?$function_sig@$$V@sol@@A6A_NXZ@sol@@@?$basic_table_core@$0A@V?$basic_reference@$0A@@sol@@@sol@@QAEAAV01@$$QAV?$tuple@AAY08$$CBD@std@@$$QAU?$function_arguments@U?$function_sig@$$V@sol@@A6A_NXZ@1@@Z 000000001011d1a0     LuaAPI.obj
 0001:0011c270       ??$traverse_set@V?$tuple@AAY0BB@$$CBD@std@@U?$function_arguments@U?$function_sig@$$V@sol@@A6AHXZ@sol@@@?$basic_table_core@$0A@V?$basic_reference@$0A@@sol@@@sol@@QAEAAV01@$$QAV?$tuple@AAY0BB@$$CBD@std@@$$QAU?$function_arguments@U?$function_sig@$$V@sol@@A6AHXZ@1@@Z 000000001011d270     LuaAPI.obj
 0001:0011c340       ??$traverse_set@V?$tuple@AAY0O@$$CBD@std@@U?$function_arguments@U?$function_sig@$$V@sol@@A6APAUPlayerInfo_t@@H@Z@sol@@@?$basic_table_core@$0A@V?$basic_reference@$0A@@sol@@@sol@@QAEAAV01@$$QAV?$tuple@AAY0O@$$CBD@std@@$$QAU?$function_arguments@U?$function_sig@$$V@sol@@A6APAUPlayerInfo_t@@H@Z@1@@Z 000000001011d340     LuaAPI.obj
 0001:0011c410       ?call@?$upvalue_free_function@A6APAUPlayerInfo_t@@H@Z$0A@@function_detail@sol@@SAHPAUlua_State@@@Z 000000001011d410     LuaAPI.obj
 0001:0011c420       ??$static_trampoline@$1?real_call@?$upvalue_free_function@A6APAUPlayerInfo_t@@H@Z$0A@@function_detail@sol@@SAHPAUlua_State@@@Z@detail@sol@@YAHPAUlua_State@@@Z 000000001011d420     LuaAPI.obj
 0001:0011c5e0       ??$set_undefined_methods_on@PAUPlayerInfo_t@@@stack_detail@stack@sol@@YAXVstack_reference@2@@Z 000000001011d5e0     LuaAPI.obj
 0001:0011c860       ??$usertype_allocate_pointer@UPlayerInfo_t@@@detail@sol@@YAPAPAUPlayerInfo_t@@PAUlua_State@@@Z 000000001011d860     LuaAPI.obj
 0001:0011ca70       ??$traverse_set@AAY0P@$$CBDAAV?$basic_table_core@$0A@V?$basic_reference@$0A@@sol@@@sol@@@?$basic_table_core@$00V?$basic_reference@$0A@@sol@@@sol@@QAEAAV01@AAY0P@$$CBDAAV?$basic_table_core@$0A@V?$basic_reference@$0A@@sol@@@1@@Z 000000001011da70     LuaAPI.obj
 0001:0011caf0       ??$traverse_set@V?$tuple@AAY0BB@$$CBD@std@@U?$function_arguments@U?$function_sig@$$V@sol@@A6AH_N@Z@sol@@@?$basic_table_core@$0A@V?$basic_reference@$0A@@sol@@@sol@@QAEAAV01@$$QAV?$tuple@AAY0BB@$$CBD@std@@$$QAU?$function_arguments@U?$function_sig@$$V@sol@@A6AH_N@Z@1@@Z 000000001011daf0     LuaAPI.obj
 0001:0011cbc0       ?call@?$upvalue_free_function@A6AH_N@Z$0A@@function_detail@sol@@SAHPAUlua_State@@@Z 000000001011dbc0     LuaAPI.obj
 0001:0011cbd0       ??$static_trampoline@$1?real_call@?$upvalue_free_function@A6AH_N@Z$0A@@function_detail@sol@@SAHPAUlua_State@@@Z@detail@sol@@YAHPAUlua_State@@@Z 000000001011dbd0     LuaAPI.obj
 0001:0011cd60       ??$traverse_set@V?$tuple@AAY0BG@$$CBD@std@@U?$function_arguments@U?$function_sig@$$V@sol@@A6AHXZ@sol@@@?$basic_table_core@$0A@V?$basic_reference@$0A@@sol@@@sol@@QAEAAV01@$$QAV?$tuple@AAY0BG@$$CBD@std@@$$QAU?$function_arguments@U?$function_sig@$$V@sol@@A6AHXZ@1@@Z 000000001011dd60     LuaAPI.obj
 0001:0011ce30       ??$traverse_set@V?$tuple@AAY0BK@$$CBD@std@@U?$function_arguments@U?$function_sig@$$V@sol@@A6APAVC_BaseEntity@@K@Z@sol@@@?$basic_table_core@$0A@V?$basic_reference@$0A@@sol@@@sol@@QAEAAV01@$$QAV?$tuple@AAY0BK@$$CBD@std@@$$QAU?$function_arguments@U?$function_sig@$$V@sol@@A6APAVC_BaseEntity@@K@Z@1@@Z 000000001011de30     LuaAPI.obj
 0001:0011cf00       ?call@?$upvalue_free_function@A6APAVC_BaseEntity@@K@Z$0A@@function_detail@sol@@SAHPAUlua_State@@@Z 000000001011df00     LuaAPI.obj
 0001:0011cf10       ??$static_trampoline@$1?real_call@?$upvalue_free_function@A6APAVC_BaseEntity@@K@Z$0A@@function_detail@sol@@SAHPAUlua_State@@@Z@detail@sol@@YAHPAUlua_State@@@Z 000000001011df10     LuaAPI.obj
 0001:0011d0d0       ?metatable@?$usertype_traits@PAVC_BaseEntity@@@sol@@SAABV?$basic_string@DU?$char_traits@D@std@@V?$allocator@D@2@@std@@XZ 000000001011e0d0     LuaAPI.obj
 0001:0011d450       ??$set_undefined_methods_on@PAVC_BaseEntity@@@stack_detail@stack@sol@@YAXVstack_reference@2@@Z 000000001011e450     LuaAPI.obj
 0001:0011d6d0       ??$is_check@VC_BaseEntity@@@detail@sol@@YAHPAUlua_State@@@Z 000000001011e6d0     LuaAPI.obj
 0001:0011d750       ??$comparsion_operator_wrap@VC_BaseEntity@@Uno_comp@detail@sol@@@detail@sol@@YAHPAUlua_State@@@Z 000000001011e750     LuaAPI.obj
 0001:0011d7f0       ?pairs_call@?$u_c_launch@U?$as_container_t@VC_BaseEntity@@@sol@@@container_detail@sol@@SAHPAUlua_State@@@Z 000000001011e7f0     LuaAPI.obj
 0001:0011d800       ??$get_using@V?$optional@AAVC_BaseEntity@@@sol@@AAP6AHPAUlua_State@@HW4type@2@1PBD@_E@?$unqualified_check_getter@VC_BaseEntity@@X@stack@sol@@SA?AV?$optional@AAVC_BaseEntity@@@2@PAUlua_State@@HAAP6AH0HW4type@2@1PBD@_EAAUrecord@12@@Z 000000001011e800     LuaAPI.obj
 0001:0011d8b0       ??$check@VC_BaseEntity@@AAP6AHPAUlua_State@@HW4type@sol@@1PBD@_E@?$unqualified_checker@U?$as_value_tag@VC_BaseEntity@@@detail@sol@@$06X@stack@sol@@SA_NU?$types@VC_BaseEntity@@@2@PAUlua_State@@HW4type@2@AAP6AH1H22PBD@_EAAUrecord@12@@Z 000000001011e8b0     LuaAPI.obj
 0001:0011dba0       ?qualified_name@?$usertype_traits@VC_BaseEntity@@@sol@@SAABV?$basic_string@DU?$char_traits@D@std@@V?$allocator@D@2@@std@@XZ 000000001011eba0     LuaAPI.obj
 0001:0011dcd0       ?metatable@?$usertype_traits@VC_BaseEntity@@@sol@@SAABV?$basic_string@DU?$char_traits@D@std@@V?$allocator@D@2@@std@@XZ 000000001011ecd0     LuaAPI.obj
 0001:0011e050       ?metatable@?$usertype_traits@U?$unique_usertype@VC_BaseEntity@@@detail@sol@@@sol@@SAABV?$basic_string@DU?$char_traits@D@std@@V?$allocator@D@2@@std@@XZ 000000001011f050     LuaAPI.obj
 0001:0011e3d0       ??$ctti_get_type_name@U?$unique_usertype@VC_BaseEntity@@@detail@sol@@@detail@sol@@YA?AV?$basic_string@DU?$char_traits@D@std@@V?$allocator@D@2@@std@@XZ 000000001011f3d0     LuaAPI.obj
 0001:0011e460       ?metatable@?$usertype_traits@U?$as_container_t@VC_BaseEntity@@@sol@@@sol@@SAABV?$basic_string@DU?$char_traits@D@std@@V?$allocator@D@2@@std@@XZ 000000001011f460     LuaAPI.obj
 0001:0011e7e0       ??$ctti_get_type_name@U?$as_container_t@VC_BaseEntity@@@sol@@@detail@sol@@YA?AV?$basic_string@DU?$char_traits@D@std@@V?$allocator@D@2@@std@@XZ 000000001011f7e0     LuaAPI.obj
 0001:0011e870       ?get_no_lua_nil_from@?$unqualified_getter@U?$as_value_tag@VC_BaseEntity@@@detail@sol@@X@stack@sol@@SAPAVC_BaseEntity@@PAUlua_State@@PAXHAAUrecord@23@@Z 000000001011f870     LuaAPI.obj
 0001:0011e910       ??$static_trampoline@$1?real_pairs_call@?$u_c_launch@U?$as_container_t@VC_BaseEntity@@@sol@@@container_detail@sol@@SAHPAUlua_State@@@Z@detail@sol@@YAHPAUlua_State@@@Z 000000001011f910     LuaAPI.obj
 0001:0011eae0       ??$ctti_get_type_name@VC_BaseEntity@@@detail@sol@@YA?AV?$basic_string@DU?$char_traits@D@std@@V?$allocator@D@2@@std@@XZ 000000001011fae0     LuaAPI.obj
 0001:0011eb70       ??$check@VC_BaseEntity@@P6AHPAUlua_State@@HW4type@sol@@1PBD@_E@?$unqualified_checker@U?$as_value_tag@VC_BaseEntity@@@detail@sol@@$06X@stack@sol@@SA_NU?$types@VC_BaseEntity@@@2@PAUlua_State@@HW4type@2@$$QAP6AH1H22PBD@_EAAUrecord@12@@Z 000000001011fb70     LuaAPI.obj
 0001:0011ee60       ??$usertype_allocate_pointer@VC_BaseEntity@@@detail@sol@@YAPAPAVC_BaseEntity@@PAUlua_State@@@Z 000000001011fe60     LuaAPI.obj
 0001:0011f070       ??$ctti_get_type_name@PAVC_BaseEntity@@@detail@sol@@YA?AV?$basic_string@DU?$char_traits@D@std@@V?$allocator@D@2@@std@@XZ 0000000010120070     LuaAPI.obj
 0001:0011f100       ??$traverse_set@V?$tuple@AAY0P@$$CBD@std@@U?$function_arguments@U?$function_sig@$$V@sol@@A6APAVC_BasePlayer@@XZ@sol@@@?$basic_table_core@$0A@V?$basic_reference@$0A@@sol@@@sol@@QAEAAV01@$$QAV?$tuple@AAY0P@$$CBD@std@@$$QAU?$function_arguments@U?$function_sig@$$V@sol@@A6APAVC_BasePlayer@@XZ@1@@Z 0000000010120100     LuaAPI.obj
 0001:0011f1d0       ?call@?$upvalue_free_function@A6APAVC_BasePlayer@@XZ$0A@@function_detail@sol@@SAHPAUlua_State@@@Z 00000000101201d0     LuaAPI.obj
 0001:0011f1e0       ??$static_trampoline@$1?real_call@?$upvalue_free_function@A6APAVC_BasePlayer@@XZ$0A@@function_detail@sol@@SAHPAUlua_State@@@Z@detail@sol@@YAHPAUlua_State@@@Z 00000000101201e0     LuaAPI.obj
 0001:0011f380       ?metatable@?$usertype_traits@PAVC_BasePlayer@@@sol@@SAABV?$basic_string@DU?$char_traits@D@std@@V?$allocator@D@2@@std@@XZ 0000000010120380     LuaAPI.obj
 0001:0011f700       ??$set_undefined_methods_on@PAVC_BasePlayer@@@stack_detail@stack@sol@@YAXVstack_reference@2@@Z 0000000010120700     LuaAPI.obj
 0001:0011f980       ??$is_check@VC_BasePlayer@@@detail@sol@@YAHPAUlua_State@@@Z 0000000010120980     LuaAPI.obj
 0001:0011fa00       ??$comparsion_operator_wrap@VC_BasePlayer@@Uno_comp@detail@sol@@@detail@sol@@YAHPAUlua_State@@@Z 0000000010120a00     LuaAPI.obj
 0001:0011faa0       ?pairs_call@?$u_c_launch@U?$as_container_t@VC_BasePlayer@@@sol@@@container_detail@sol@@SAHPAUlua_State@@@Z 0000000010120aa0     LuaAPI.obj
 0001:0011fab0       ??$get_using@V?$optional@AAVC_BasePlayer@@@sol@@AAP6AHPAUlua_State@@HW4type@2@1PBD@_E@?$unqualified_check_getter@VC_BasePlayer@@X@stack@sol@@SA?AV?$optional@AAVC_BasePlayer@@@2@PAUlua_State@@HAAP6AH0HW4type@2@1PBD@_EAAUrecord@12@@Z 0000000010120ab0     LuaAPI.obj
 0001:0011fb60       ??$check@VC_BasePlayer@@AAP6AHPAUlua_State@@HW4type@sol@@1PBD@_E@?$unqualified_checker@U?$as_value_tag@VC_BasePlayer@@@detail@sol@@$06X@stack@sol@@SA_NU?$types@VC_BasePlayer@@@2@PAUlua_State@@HW4type@2@AAP6AH1H22PBD@_EAAUrecord@12@@Z 0000000010120b60     LuaAPI.obj
 0001:0011fe50       ?qualified_name@?$usertype_traits@VC_BasePlayer@@@sol@@SAABV?$basic_string@DU?$char_traits@D@std@@V?$allocator@D@2@@std@@XZ 0000000010120e50     LuaAPI.obj
 0001:0011ff80       ?metatable@?$usertype_traits@VC_BasePlayer@@@sol@@SAABV?$basic_string@DU?$char_traits@D@std@@V?$allocator@D@2@@std@@XZ 0000000010120f80     LuaAPI.obj
 0001:00120300       ?metatable@?$usertype_traits@U?$unique_usertype@VC_BasePlayer@@@detail@sol@@@sol@@SAABV?$basic_string@DU?$char_traits@D@std@@V?$allocator@D@2@@std@@XZ 0000000010121300     LuaAPI.obj
 0001:00120680       ??$ctti_get_type_name@U?$unique_usertype@VC_BasePlayer@@@detail@sol@@@detail@sol@@YA?AV?$basic_string@DU?$char_traits@D@std@@V?$allocator@D@2@@std@@XZ 0000000010121680     LuaAPI.obj
 0001:00120710       ?metatable@?$usertype_traits@U?$as_container_t@VC_BasePlayer@@@sol@@@sol@@SAABV?$basic_string@DU?$char_traits@D@std@@V?$allocator@D@2@@std@@XZ 0000000010121710     LuaAPI.obj
 0001:00120a90       ??$ctti_get_type_name@U?$as_container_t@VC_BasePlayer@@@sol@@@detail@sol@@YA?AV?$basic_string@DU?$char_traits@D@std@@V?$allocator@D@2@@std@@XZ 0000000010121a90     LuaAPI.obj
 0001:00120b20       ?get_no_lua_nil_from@?$unqualified_getter@U?$as_value_tag@VC_BasePlayer@@@detail@sol@@X@stack@sol@@SAPAVC_BasePlayer@@PAUlua_State@@PAXHAAUrecord@23@@Z 0000000010121b20     LuaAPI.obj
 0001:00120bc0       ??$static_trampoline@$1?real_pairs_call@?$u_c_launch@U?$as_container_t@VC_BasePlayer@@@sol@@@container_detail@sol@@SAHPAUlua_State@@@Z@detail@sol@@YAHPAUlua_State@@@Z 0000000010121bc0     LuaAPI.obj
 0001:00120d90       ??$ctti_get_type_name@VC_BasePlayer@@@detail@sol@@YA?AV?$basic_string@DU?$char_traits@D@std@@V?$allocator@D@2@@std@@XZ 0000000010121d90     LuaAPI.obj
 0001:00120e20       ??$check@VC_BasePlayer@@P6AHPAUlua_State@@HW4type@sol@@1PBD@_E@?$unqualified_checker@U?$as_value_tag@VC_BasePlayer@@@detail@sol@@$06X@stack@sol@@SA_NU?$types@VC_BasePlayer@@@2@PAUlua_State@@HW4type@2@$$QAP6AH1H22PBD@_EAAUrecord@12@@Z 0000000010121e20     LuaAPI.obj
 0001:00121110       ??$usertype_allocate_pointer@VC_BasePlayer@@@detail@sol@@YAPAPAVC_BasePlayer@@PAUlua_State@@@Z 0000000010122110     LuaAPI.obj
 0001:00121320       ??$ctti_get_type_name@PAVC_BasePlayer@@@detail@sol@@YA?AV?$basic_string@DU?$char_traits@D@std@@V?$allocator@D@2@@std@@XZ 0000000010122320     LuaAPI.obj
 0001:001213b0       ??$traverse_set@V?$tuple@AAY09$$CBD@std@@U?$function_arguments@U?$function_sig@$$V@sol@@A6APAVC_BaseCombatWeapon@@H@Z@sol@@@?$basic_table_core@$0A@V?$basic_reference@$0A@@sol@@@sol@@QAEAAV01@$$QAV?$tuple@AAY09$$CBD@std@@$$QAU?$function_arguments@U?$function_sig@$$V@sol@@A6APAVC_BaseCombatWeapon@@H@Z@1@@Z 00000000101223b0     LuaAPI.obj
 0001:00121480       ?call@?$upvalue_free_function@A6APAVC_BaseCombatWeapon@@H@Z$0A@@function_detail@sol@@SAHPAUlua_State@@@Z 0000000010122480     LuaAPI.obj
 0001:00121490       ??$static_trampoline@$1?real_call@?$upvalue_free_function@A6APAVC_BaseCombatWeapon@@H@Z$0A@@function_detail@sol@@SAHPAUlua_State@@@Z@detail@sol@@YAHPAUlua_State@@@Z 0000000010122490     LuaAPI.obj
 0001:00121650       ?metatable@?$usertype_traits@PAVC_BaseCombatWeapon@@@sol@@SAABV?$basic_string@DU?$char_traits@D@std@@V?$allocator@D@2@@std@@XZ 0000000010122650     LuaAPI.obj
 0001:001219d0       ??$set_undefined_methods_on@PAVC_BaseCombatWeapon@@@stack_detail@stack@sol@@YAXVstack_reference@2@@Z 00000000101229d0     LuaAPI.obj
 0001:00121c50       ??$is_check@VC_BaseCombatWeapon@@@detail@sol@@YAHPAUlua_State@@@Z 0000000010122c50     LuaAPI.obj
 0001:00121cd0       ??$comparsion_operator_wrap@VC_BaseCombatWeapon@@Uno_comp@detail@sol@@@detail@sol@@YAHPAUlua_State@@@Z 0000000010122cd0     LuaAPI.obj
 0001:00121d70       ?pairs_call@?$u_c_launch@U?$as_container_t@VC_BaseCombatWeapon@@@sol@@@container_detail@sol@@SAHPAUlua_State@@@Z 0000000010122d70     LuaAPI.obj
 0001:00121d80       ??$get_using@V?$optional@AAVC_BaseCombatWeapon@@@sol@@AAP6AHPAUlua_State@@HW4type@2@1PBD@_E@?$unqualified_check_getter@VC_BaseCombatWeapon@@X@stack@sol@@SA?AV?$optional@AAVC_BaseCombatWeapon@@@2@PAUlua_State@@HAAP6AH0HW4type@2@1PBD@_EAAUrecord@12@@Z 0000000010122d80     LuaAPI.obj
 0001:00121e30       ??$check@VC_BaseCombatWeapon@@AAP6AHPAUlua_State@@HW4type@sol@@1PBD@_E@?$unqualified_checker@U?$as_value_tag@VC_BaseCombatWeapon@@@detail@sol@@$06X@stack@sol@@SA_NU?$types@VC_BaseCombatWeapon@@@2@PAUlua_State@@HW4type@2@AAP6AH1H22PBD@_EAAUrecord@12@@Z 0000000010122e30     LuaAPI.obj
 0001:00122120       ?qualified_name@?$usertype_traits@VC_BaseCombatWeapon@@@sol@@SAABV?$basic_string@DU?$char_traits@D@std@@V?$allocator@D@2@@std@@XZ 0000000010123120     LuaAPI.obj
 0001:00122250       ?metatable@?$usertype_traits@VC_BaseCombatWeapon@@@sol@@SAABV?$basic_string@DU?$char_traits@D@std@@V?$allocator@D@2@@std@@XZ 0000000010123250     LuaAPI.obj
 0001:001225d0       ?metatable@?$usertype_traits@U?$unique_usertype@VC_BaseCombatWeapon@@@detail@sol@@@sol@@SAABV?$basic_string@DU?$char_traits@D@std@@V?$allocator@D@2@@std@@XZ 00000000101235d0     LuaAPI.obj
 0001:00122950       ??$ctti_get_type_name@U?$unique_usertype@VC_BaseCombatWeapon@@@detail@sol@@@detail@sol@@YA?AV?$basic_string@DU?$char_traits@D@std@@V?$allocator@D@2@@std@@XZ 0000000010123950     LuaAPI.obj
 0001:001229e0       ?metatable@?$usertype_traits@U?$as_container_t@VC_BaseCombatWeapon@@@sol@@@sol@@SAABV?$basic_string@DU?$char_traits@D@std@@V?$allocator@D@2@@std@@XZ 00000000101239e0     LuaAPI.obj
 0001:00122d60       ??$ctti_get_type_name@U?$as_container_t@VC_BaseCombatWeapon@@@sol@@@detail@sol@@YA?AV?$basic_string@DU?$char_traits@D@std@@V?$allocator@D@2@@std@@XZ 0000000010123d60     LuaAPI.obj
 0001:00122df0       ?get_no_lua_nil_from@?$unqualified_getter@U?$as_value_tag@VC_BaseCombatWeapon@@@detail@sol@@X@stack@sol@@SAPAVC_BaseCombatWeapon@@PAUlua_State@@PAXHAAUrecord@23@@Z 0000000010123df0     LuaAPI.obj
 0001:00122e90       ??$static_trampoline@$1?real_pairs_call@?$u_c_launch@U?$as_container_t@VC_BaseCombatWeapon@@@sol@@@container_detail@sol@@SAHPAUlua_State@@@Z@detail@sol@@YAHPAUlua_State@@@Z 0000000010123e90     LuaAPI.obj
 0001:00123060       ??$ctti_get_type_name@VC_BaseCombatWeapon@@@detail@sol@@YA?AV?$basic_string@DU?$char_traits@D@std@@V?$allocator@D@2@@std@@XZ 0000000010124060     LuaAPI.obj
 0001:001230f0       ??$check@VC_BaseCombatWeapon@@P6AHPAUlua_State@@HW4type@sol@@1PBD@_E@?$unqualified_checker@U?$as_value_tag@VC_BaseCombatWeapon@@@detail@sol@@$06X@stack@sol@@SA_NU?$types@VC_BaseCombatWeapon@@@2@PAUlua_State@@HW4type@2@$$QAP6AH1H22PBD@_EAAUrecord@12@@Z 00000000101240f0     LuaAPI.obj
 0001:001233e0       ??$usertype_allocate_pointer@VC_BaseCombatWeapon@@@detail@sol@@YAPAPAVC_BaseCombatWeapon@@PAUlua_State@@@Z 00000000101243e0     LuaAPI.obj
 0001:001235f0       ??$ctti_get_type_name@PAVC_BaseCombatWeapon@@@detail@sol@@YA?AV?$basic_string@DU?$char_traits@D@std@@V?$allocator@D@2@@std@@XZ 00000000101245f0     LuaAPI.obj
 0001:00123680       ??$traverse_set@V?$tuple@AAY0BE@$$CBD@std@@U?$function_arguments@U?$function_sig@$$V@sol@@A6APAVC_BasePlayer@@K@Z@sol@@@?$basic_table_core@$0A@V?$basic_reference@$0A@@sol@@@sol@@QAEAAV01@$$QAV?$tuple@AAY0BE@$$CBD@std@@$$QAU?$function_arguments@U?$function_sig@$$V@sol@@A6APAVC_BasePlayer@@K@Z@1@@Z 0000000010124680     LuaAPI.obj
 0001:00123750       ?call@?$upvalue_free_function@A6APAVC_BasePlayer@@K@Z$0A@@function_detail@sol@@SAHPAUlua_State@@@Z 0000000010124750     LuaAPI.obj
 0001:00123760       ??$static_trampoline@$1?real_call@?$upvalue_free_function@A6APAVC_BasePlayer@@K@Z$0A@@function_detail@sol@@SAHPAUlua_State@@@Z@detail@sol@@YAHPAUlua_State@@@Z 0000000010124760     LuaAPI.obj
 0001:00123920       ??$traverse_set@V?$tuple@AAY0BE@$$CBD@std@@U?$function_arguments@U?$function_sig@$$V@sol@@A6APAVC_BaseCombatWeapon@@K@Z@sol@@@?$basic_table_core@$0A@V?$basic_reference@$0A@@sol@@@sol@@QAEAAV01@$$QAV?$tuple@AAY0BE@$$CBD@std@@$$QAU?$function_arguments@U?$function_sig@$$V@sol@@A6APAVC_BaseCombatWeapon@@K@Z@1@@Z 0000000010124920     LuaAPI.obj
 0001:001239f0       ?call@?$upvalue_free_function@A6APAVC_BaseCombatWeapon@@K@Z$0A@@function_detail@sol@@SAHPAUlua_State@@@Z 00000000101249f0     LuaAPI.obj
 0001:00123a00       ??$static_trampoline@$1?real_call@?$upvalue_free_function@A6APAVC_BaseCombatWeapon@@K@Z$0A@@function_detail@sol@@SAHPAUlua_State@@@Z@detail@sol@@YAHPAUlua_State@@@Z 0000000010124a00     LuaAPI.obj
 0001:00123bc0       ??$traverse_set@V?$tuple@AAY0BD@$$CBD@std@@U?$function_arguments@U?$function_sig@$$V@sol@@A6APAVC_BasePlayer@@H@Z@sol@@@?$basic_table_core@$0A@V?$basic_reference@$0A@@sol@@@sol@@QAEAAV01@$$QAV?$tuple@AAY0BD@$$CBD@std@@$$QAU?$function_arguments@U?$function_sig@$$V@sol@@A6APAVC_BasePlayer@@H@Z@1@@Z 0000000010124bc0     LuaAPI.obj
 0001:00123c90       ?call@?$upvalue_free_function@A6APAVC_BasePlayer@@H@Z$0A@@function_detail@sol@@SAHPAUlua_State@@@Z 0000000010124c90     LuaAPI.obj
 0001:00123ca0       ??$static_trampoline@$1?real_call@?$upvalue_free_function@A6APAVC_BasePlayer@@H@Z$0A@@function_detail@sol@@SAHPAUlua_State@@@Z@detail@sol@@YAHPAUlua_State@@@Z 0000000010124ca0     LuaAPI.obj
 0001:00123e60       ??$traverse_set@AAY0N@$$CBDAAV?$basic_table_core@$0A@V?$basic_reference@$0A@@sol@@@sol@@@?$basic_table_core@$00V?$basic_reference@$0A@@sol@@@sol@@QAEAAV01@AAY0N@$$CBDAAV?$basic_table_core@$0A@V?$basic_reference@$0A@@sol@@@1@@Z 0000000010124e60     LuaAPI.obj
 0001:00123ee0       ??$traverse_set@V?$tuple@AAY0M@$$CBD@std@@U?$function_arguments@U?$function_sig@$$V@sol@@A6AHXZ@sol@@@?$basic_table_core@$0A@V?$basic_reference@$0A@@sol@@@sol@@QAEAAV01@$$QAV?$tuple@AAY0M@$$CBD@std@@$$QAU?$function_arguments@U?$function_sig@$$V@sol@@A6AHXZ@1@@Z 0000000010124ee0     LuaAPI.obj
 0001:00123fb0       ??$traverse_set@V?$tuple@AAY0O@$$CBD@std@@U?$function_arguments@U?$function_sig@$$V@sol@@A6AHXZ@sol@@@?$basic_table_core@$0A@V?$basic_reference@$0A@@sol@@@sol@@QAEAAV01@$$QAV?$tuple@AAY0O@$$CBD@std@@$$QAU?$function_arguments@U?$function_sig@$$V@sol@@A6AHXZ@1@@Z 0000000010124fb0     LuaAPI.obj
 0001:00124080       ??$traverse_set@V?$tuple@AAY0BG@$$CBD@std@@U?$function_arguments@U?$function_sig@$$V@sol@@A6AMXZ@sol@@@?$basic_table_core@$0A@V?$basic_reference@$0A@@sol@@@sol@@QAEAAV01@$$QAV?$tuple@AAY0BG@$$CBD@std@@$$QAU?$function_arguments@U?$function_sig@$$V@sol@@A6AMXZ@1@@Z 0000000010125080     LuaAPI.obj
 0001:00124150       ?call@?$upvalue_free_function@A6AMXZ$0A@@function_detail@sol@@SAHPAUlua_State@@@Z 0000000010125150     LuaAPI.obj
 0001:00124160       ??$static_trampoline@$1?real_call@?$upvalue_free_function@A6AMXZ$0A@@function_detail@sol@@SAHPAUlua_State@@@Z@detail@sol@@YAHPAUlua_State@@@Z 0000000010125160     LuaAPI.obj
 0001:001242e0       ??$traverse_set@V?$tuple@AAY0L@$$CBD@std@@U?$function_arguments@U?$function_sig@$$V@sol@@A6AMXZ@sol@@@?$basic_table_core@$0A@V?$basic_reference@$0A@@sol@@@sol@@QAEAAV01@$$QAV?$tuple@AAY0L@$$CBD@std@@$$QAU?$function_arguments@U?$function_sig@$$V@sol@@A6AMXZ@1@@Z 00000000101252e0     LuaAPI.obj
 0001:001243b0       ??$traverse_set@V?$tuple@AAY0N@$$CBD@std@@U?$function_arguments@U?$function_sig@$$V@sol@@A6AMXZ@sol@@@?$basic_table_core@$0A@V?$basic_reference@$0A@@sol@@@sol@@QAEAAV01@$$QAV?$tuple@AAY0N@$$CBD@std@@$$QAU?$function_arguments@U?$function_sig@$$V@sol@@A6AMXZ@1@@Z 00000000101253b0     LuaAPI.obj
 0001:00124480       ??$traverse_set@V?$tuple@AAY0N@$$CBD@std@@U?$function_arguments@U?$function_sig@$$V@sol@@A6AHXZ@sol@@@?$basic_table_core@$0A@V?$basic_reference@$0A@@sol@@@sol@@QAEAAV01@$$QAV?$tuple@AAY0N@$$CBD@std@@$$QAU?$function_arguments@U?$function_sig@$$V@sol@@A6AHXZ@1@@Z 0000000010125480     LuaAPI.obj
 0001:00124550       ??$traverse_set@V?$tuple@AAY0BE@$$CBD@std@@U?$function_arguments@U?$function_sig@$$V@sol@@A6AMXZ@sol@@@?$basic_table_core@$0A@V?$basic_reference@$0A@@sol@@@sol@@QAEAAV01@$$QAV?$tuple@AAY0BE@$$CBD@std@@$$QAU?$function_arguments@U?$function_sig@$$V@sol@@A6AMXZ@1@@Z 0000000010125550     LuaAPI.obj
 0001:00124620       ??$traverse_set@V?$tuple@AAY0BI@$$CBD@std@@U?$function_arguments@U?$function_sig@$$V@sol@@A6AHXZ@sol@@@?$basic_table_core@$0A@V?$basic_reference@$0A@@sol@@@sol@@QAEAAV01@$$QAV?$tuple@AAY0BI@$$CBD@std@@$$QAU?$function_arguments@U?$function_sig@$$V@sol@@A6AHXZ@1@@Z 0000000010125620     LuaAPI.obj
 0001:001246f0       ??$traverse_set@V?$tuple@AAY0BD@$$CBD@std@@U?$function_arguments@U?$function_sig@$$V@sol@@A6AHXZ@sol@@@?$basic_table_core@$0A@V?$basic_reference@$0A@@sol@@@sol@@QAEAAV01@$$QAV?$tuple@AAY0BD@$$CBD@std@@$$QAU?$function_arguments@U?$function_sig@$$V@sol@@A6AHXZ@1@@Z 00000000101256f0     LuaAPI.obj
 0001:001247c0       ??$traverse_set@V?$tuple@AAY0M@$$CBD@std@@U?$function_arguments@U?$function_sig@$$V@sol@@A6APAXXZ@sol@@@?$basic_table_core@$0A@V?$basic_reference@$0A@@sol@@@sol@@QAEAAV01@$$QAV?$tuple@AAY0M@$$CBD@std@@$$QAU?$function_arguments@U?$function_sig@$$V@sol@@A6APAXXZ@1@@Z 00000000101257c0     LuaAPI.obj
 0001:00124890       ?call@?$upvalue_free_function@A6APAXXZ$0A@@function_detail@sol@@SAHPAUlua_State@@@Z 0000000010125890     LuaAPI.obj
 0001:001248a0       ??$static_trampoline@$1?real_call@?$upvalue_free_function@A6APAXXZ$0A@@function_detail@sol@@SAHPAUlua_State@@@Z@detail@sol@@YAHPAUlua_State@@@Z 00000000101258a0     LuaAPI.obj
 0001:00124a00       ??$traverse_set@V?$tuple@AAY09$$CBD@std@@U?$function_arguments@U?$function_sig@$$V@sol@@A6A_NXZ@sol@@@?$basic_table_core@$0A@V?$basic_reference@$0A@@sol@@@sol@@QAEAAV01@$$QAV?$tuple@AAY09$$CBD@std@@$$QAU?$function_arguments@U?$function_sig@$$V@sol@@A6A_NXZ@1@@Z 0000000010125a00     LuaAPI.obj
 0001:00124ad0       ??$traverse_set@V?$tuple@AAY0BA@$$CBD@std@@U?$function_arguments@U?$function_sig@$$V@sol@@A6A_NXZ@sol@@@?$basic_table_core@$0A@V?$basic_reference@$0A@@sol@@@sol@@QAEAAV01@$$QAV?$tuple@AAY0BA@$$CBD@std@@$$QAU?$function_arguments@U?$function_sig@$$V@sol@@A6A_NXZ@1@@Z 0000000010125ad0     LuaAPI.obj
 0001:00124ba0       ??$traverse_set@V?$tuple@AAY0BH@$$CBD@std@@U?$function_arguments@U?$function_sig@$$V@sol@@A6AHXZ@sol@@@?$basic_table_core@$0A@V?$basic_reference@$0A@@sol@@@sol@@QAEAAV01@$$QAV?$tuple@AAY0BH@$$CBD@std@@$$QAU?$function_arguments@U?$function_sig@$$V@sol@@A6AHXZ@1@@Z 0000000010125ba0     LuaAPI.obj
 0001:00124c70       ??$traverse_set@V?$tuple@AAY0BC@$$CBD@std@@U?$function_arguments@U?$function_sig@$$V@sol@@A6AHXZ@sol@@@?$basic_table_core@$0A@V?$basic_reference@$0A@@sol@@@sol@@QAEAAV01@$$QAV?$tuple@AAY0BC@$$CBD@std@@$$QAU?$function_arguments@U?$function_sig@$$V@sol@@A6AHXZ@1@@Z 0000000010125c70     LuaAPI.obj
 0001:00124d40       ??$traverse_set@AAY0O@$$CBDAAV?$basic_table_core@$0A@V?$basic_reference@$0A@@sol@@@sol@@@?$basic_table_core@$00V?$basic_reference@$0A@@sol@@@sol@@QAEAAV01@AAY0O@$$CBDAAV?$basic_table_core@$0A@V?$basic_reference@$0A@@sol@@@1@@Z 0000000010125d40     LuaAPI.obj
 0001:00124dc0       ??$traverse_set@V?$tuple@AAY0M@$$CBD@std@@U?$function_arguments@U?$function_sig@$$V@sol@@A6APAXV?$basic_string@DU?$char_traits@D@std@@V?$allocator@D@2@@std@@0@Z@sol@@@?$basic_table_core@$0A@V?$basic_reference@$0A@@sol@@@sol@@QAEAAV01@$$QAV?$tuple@AAY0M@$$CBD@std@@$$QAU?$function_arguments@U?$function_sig@$$V@sol@@A6APAXV?$basic_string@DU?$char_traits@D@std@@V?$allocator@D@2@@std@@0@Z@1@@Z 0000000010125dc0     LuaAPI.obj
 0001:00124e90       ?call@?$upvalue_free_function@A6APAXV?$basic_string@DU?$char_traits@D@std@@V?$allocator@D@2@@std@@0@Z$0A@@function_detail@sol@@SAHPAUlua_State@@@Z 0000000010125e90     LuaAPI.obj
 0001:00124ea0       ??$static_trampoline@$1?real_call@?$upvalue_free_function@A6APAXV?$basic_string@DU?$char_traits@D@std@@V?$allocator@D@2@@std@@0@Z$0A@@function_detail@sol@@SAHPAUlua_State@@@Z@detail@sol@@YAHPAUlua_State@@@Z 0000000010125ea0     LuaAPI.obj
